
GamePon.elf:     file format elf32-littlearm

Sections:
Idx Name          Size      VMA       LMA       File off  Algn
  0 .isr_vector   000001d8  08000000  08000000  00010000  2**0
                  CONTENTS, ALLOC, LOAD, READONLY, DATA
  1 .text         00007354  080001e0  080001e0  000101e0  2**4
                  CONTENTS, ALLOC, LOAD, READONLY, CODE
  2 .rodata       00000120  08007534  08007534  00017534  2**2
                  CONTENTS, ALLOC, LOAD, READONLY, DATA
  3 .ARM.extab    00000000  08007654  08007654  00020080  2**0
                  CONTENTS
  4 .ARM          00000008  08007654  08007654  00017654  2**2
                  CONTENTS, ALLOC, LOAD, READONLY, DATA
  5 .preinit_array 00000000  0800765c  0800765c  00020080  2**0
                  CONTENTS, ALLOC, LOAD, DATA
  6 .init_array   00000004  0800765c  0800765c  0001765c  2**2
                  CONTENTS, ALLOC, LOAD, DATA
  7 .fini_array   00000004  08007660  08007660  00017660  2**2
                  CONTENTS, ALLOC, LOAD, DATA
  8 .data         00000080  20000000  08007664  00020000  2**2
                  CONTENTS, ALLOC, LOAD, DATA
  9 .bss          000003e0  20000080  080076e4  00020080  2**2
                  ALLOC
 10 ._user_heap_stack 00000600  20000460  080076e4  00020460  2**0
                  ALLOC
 11 .ARM.attributes 00000030  00000000  00000000  00020080  2**0
                  CONTENTS, READONLY
 12 .comment      00000043  00000000  00000000  000200b0  2**0
                  CONTENTS, READONLY
 13 .debug_info   0001334a  00000000  00000000  000200f3  2**0
                  CONTENTS, READONLY, DEBUGGING, OCTETS
 14 .debug_abbrev 00002801  00000000  00000000  0003343d  2**0
                  CONTENTS, READONLY, DEBUGGING, OCTETS
 15 .debug_aranges 00001018  00000000  00000000  00035c40  2**3
                  CONTENTS, READONLY, DEBUGGING, OCTETS
 16 .debug_rnglists 00000c83  00000000  00000000  00036c58  2**0
                  CONTENTS, READONLY, DEBUGGING, OCTETS
 17 .debug_macro  00026b70  00000000  00000000  000378db  2**0
                  CONTENTS, READONLY, DEBUGGING, OCTETS
 18 .debug_line   000148ad  00000000  00000000  0005e44b  2**0
                  CONTENTS, READONLY, DEBUGGING, OCTETS
 19 .debug_str    000f06fa  00000000  00000000  00072cf8  2**0
                  CONTENTS, READONLY, DEBUGGING, OCTETS
 20 .debug_frame  00004c28  00000000  00000000  001633f4  2**2
                  CONTENTS, READONLY, DEBUGGING, OCTETS
 21 .debug_line_str 0000005e  00000000  00000000  0016801c  2**0
                  CONTENTS, READONLY, DEBUGGING, OCTETS

Disassembly of section .text:

080001e0 <__do_global_dtors_aux>:
 80001e0:	b510      	push	{r4, lr}
 80001e2:	4c05      	ldr	r4, [pc, #20]	; (80001f8 <__do_global_dtors_aux+0x18>)
 80001e4:	7823      	ldrb	r3, [r4, #0]
 80001e6:	b933      	cbnz	r3, 80001f6 <__do_global_dtors_aux+0x16>
 80001e8:	4b04      	ldr	r3, [pc, #16]	; (80001fc <__do_global_dtors_aux+0x1c>)
 80001ea:	b113      	cbz	r3, 80001f2 <__do_global_dtors_aux+0x12>
 80001ec:	4804      	ldr	r0, [pc, #16]	; (8000200 <__do_global_dtors_aux+0x20>)
 80001ee:	f3af 8000 	nop.w
 80001f2:	2301      	movs	r3, #1
 80001f4:	7023      	strb	r3, [r4, #0]
 80001f6:	bd10      	pop	{r4, pc}
 80001f8:	20000080 	.word	0x20000080
 80001fc:	00000000 	.word	0x00000000
 8000200:	0800751c 	.word	0x0800751c

08000204 <frame_dummy>:
 8000204:	b508      	push	{r3, lr}
 8000206:	4b03      	ldr	r3, [pc, #12]	; (8000214 <frame_dummy+0x10>)
 8000208:	b11b      	cbz	r3, 8000212 <frame_dummy+0xe>
 800020a:	4903      	ldr	r1, [pc, #12]	; (8000218 <frame_dummy+0x14>)
 800020c:	4803      	ldr	r0, [pc, #12]	; (800021c <frame_dummy+0x18>)
 800020e:	f3af 8000 	nop.w
 8000212:	bd08      	pop	{r3, pc}
 8000214:	00000000 	.word	0x00000000
 8000218:	20000084 	.word	0x20000084
 800021c:	0800751c 	.word	0x0800751c

08000220 <memchr>:
 8000220:	f001 01ff 	and.w	r1, r1, #255	; 0xff
 8000224:	2a10      	cmp	r2, #16
 8000226:	db2b      	blt.n	8000280 <memchr+0x60>
 8000228:	f010 0f07 	tst.w	r0, #7
 800022c:	d008      	beq.n	8000240 <memchr+0x20>
 800022e:	f810 3b01 	ldrb.w	r3, [r0], #1
 8000232:	3a01      	subs	r2, #1
 8000234:	428b      	cmp	r3, r1
 8000236:	d02d      	beq.n	8000294 <memchr+0x74>
 8000238:	f010 0f07 	tst.w	r0, #7
 800023c:	b342      	cbz	r2, 8000290 <memchr+0x70>
 800023e:	d1f6      	bne.n	800022e <memchr+0xe>
 8000240:	b4f0      	push	{r4, r5, r6, r7}
 8000242:	ea41 2101 	orr.w	r1, r1, r1, lsl #8
 8000246:	ea41 4101 	orr.w	r1, r1, r1, lsl #16
 800024a:	f022 0407 	bic.w	r4, r2, #7
 800024e:	f07f 0700 	mvns.w	r7, #0
 8000252:	2300      	movs	r3, #0
 8000254:	e8f0 5602 	ldrd	r5, r6, [r0], #8
 8000258:	3c08      	subs	r4, #8
 800025a:	ea85 0501 	eor.w	r5, r5, r1
 800025e:	ea86 0601 	eor.w	r6, r6, r1
 8000262:	fa85 f547 	uadd8	r5, r5, r7
 8000266:	faa3 f587 	sel	r5, r3, r7
 800026a:	fa86 f647 	uadd8	r6, r6, r7
 800026e:	faa5 f687 	sel	r6, r5, r7
 8000272:	b98e      	cbnz	r6, 8000298 <memchr+0x78>
 8000274:	d1ee      	bne.n	8000254 <memchr+0x34>
 8000276:	bcf0      	pop	{r4, r5, r6, r7}
 8000278:	f001 01ff 	and.w	r1, r1, #255	; 0xff
 800027c:	f002 0207 	and.w	r2, r2, #7
 8000280:	b132      	cbz	r2, 8000290 <memchr+0x70>
 8000282:	f810 3b01 	ldrb.w	r3, [r0], #1
 8000286:	3a01      	subs	r2, #1
 8000288:	ea83 0301 	eor.w	r3, r3, r1
 800028c:	b113      	cbz	r3, 8000294 <memchr+0x74>
 800028e:	d1f8      	bne.n	8000282 <memchr+0x62>
 8000290:	2000      	movs	r0, #0
 8000292:	4770      	bx	lr
 8000294:	3801      	subs	r0, #1
 8000296:	4770      	bx	lr
 8000298:	2d00      	cmp	r5, #0
 800029a:	bf06      	itte	eq
 800029c:	4635      	moveq	r5, r6
 800029e:	3803      	subeq	r0, #3
 80002a0:	3807      	subne	r0, #7
 80002a2:	f015 0f01 	tst.w	r5, #1
 80002a6:	d107      	bne.n	80002b8 <memchr+0x98>
 80002a8:	3001      	adds	r0, #1
 80002aa:	f415 7f80 	tst.w	r5, #256	; 0x100
 80002ae:	bf02      	ittt	eq
 80002b0:	3001      	addeq	r0, #1
 80002b2:	f415 3fc0 	tsteq.w	r5, #98304	; 0x18000
 80002b6:	3001      	addeq	r0, #1
 80002b8:	bcf0      	pop	{r4, r5, r6, r7}
 80002ba:	3801      	subs	r0, #1
 80002bc:	4770      	bx	lr
 80002be:	bf00      	nop

080002c0 <__aeabi_uldivmod>:
 80002c0:	b953      	cbnz	r3, 80002d8 <__aeabi_uldivmod+0x18>
 80002c2:	b94a      	cbnz	r2, 80002d8 <__aeabi_uldivmod+0x18>
 80002c4:	2900      	cmp	r1, #0
 80002c6:	bf08      	it	eq
 80002c8:	2800      	cmpeq	r0, #0
 80002ca:	bf1c      	itt	ne
 80002cc:	f04f 31ff 	movne.w	r1, #4294967295
 80002d0:	f04f 30ff 	movne.w	r0, #4294967295
 80002d4:	f000 b970 	b.w	80005b8 <__aeabi_idiv0>
 80002d8:	f1ad 0c08 	sub.w	ip, sp, #8
 80002dc:	e96d ce04 	strd	ip, lr, [sp, #-16]!
 80002e0:	f000 f806 	bl	80002f0 <__udivmoddi4>
 80002e4:	f8dd e004 	ldr.w	lr, [sp, #4]
 80002e8:	e9dd 2302 	ldrd	r2, r3, [sp, #8]
 80002ec:	b004      	add	sp, #16
 80002ee:	4770      	bx	lr

080002f0 <__udivmoddi4>:
 80002f0:	e92d 47f0 	stmdb	sp!, {r4, r5, r6, r7, r8, r9, sl, lr}
 80002f4:	9e08      	ldr	r6, [sp, #32]
 80002f6:	460d      	mov	r5, r1
 80002f8:	4604      	mov	r4, r0
 80002fa:	460f      	mov	r7, r1
 80002fc:	2b00      	cmp	r3, #0
 80002fe:	d14a      	bne.n	8000396 <__udivmoddi4+0xa6>
 8000300:	428a      	cmp	r2, r1
 8000302:	4694      	mov	ip, r2
 8000304:	d965      	bls.n	80003d2 <__udivmoddi4+0xe2>
 8000306:	fab2 f382 	clz	r3, r2
 800030a:	b143      	cbz	r3, 800031e <__udivmoddi4+0x2e>
 800030c:	fa02 fc03 	lsl.w	ip, r2, r3
 8000310:	f1c3 0220 	rsb	r2, r3, #32
 8000314:	409f      	lsls	r7, r3
 8000316:	fa20 f202 	lsr.w	r2, r0, r2
 800031a:	4317      	orrs	r7, r2
 800031c:	409c      	lsls	r4, r3
 800031e:	ea4f 4e1c 	mov.w	lr, ip, lsr #16
 8000322:	fa1f f58c 	uxth.w	r5, ip
 8000326:	fbb7 f1fe 	udiv	r1, r7, lr
 800032a:	0c22      	lsrs	r2, r4, #16
 800032c:	fb0e 7711 	mls	r7, lr, r1, r7
 8000330:	ea42 4207 	orr.w	r2, r2, r7, lsl #16
 8000334:	fb01 f005 	mul.w	r0, r1, r5
 8000338:	4290      	cmp	r0, r2
 800033a:	d90a      	bls.n	8000352 <__udivmoddi4+0x62>
 800033c:	eb1c 0202 	adds.w	r2, ip, r2
 8000340:	f101 37ff 	add.w	r7, r1, #4294967295
 8000344:	f080 811c 	bcs.w	8000580 <__udivmoddi4+0x290>
 8000348:	4290      	cmp	r0, r2
 800034a:	f240 8119 	bls.w	8000580 <__udivmoddi4+0x290>
 800034e:	3902      	subs	r1, #2
 8000350:	4462      	add	r2, ip
 8000352:	1a12      	subs	r2, r2, r0
 8000354:	b2a4      	uxth	r4, r4
 8000356:	fbb2 f0fe 	udiv	r0, r2, lr
 800035a:	fb0e 2210 	mls	r2, lr, r0, r2
 800035e:	ea44 4402 	orr.w	r4, r4, r2, lsl #16
 8000362:	fb00 f505 	mul.w	r5, r0, r5
 8000366:	42a5      	cmp	r5, r4
 8000368:	d90a      	bls.n	8000380 <__udivmoddi4+0x90>
 800036a:	eb1c 0404 	adds.w	r4, ip, r4
 800036e:	f100 32ff 	add.w	r2, r0, #4294967295
 8000372:	f080 8107 	bcs.w	8000584 <__udivmoddi4+0x294>
 8000376:	42a5      	cmp	r5, r4
 8000378:	f240 8104 	bls.w	8000584 <__udivmoddi4+0x294>
 800037c:	4464      	add	r4, ip
 800037e:	3802      	subs	r0, #2
 8000380:	ea40 4001 	orr.w	r0, r0, r1, lsl #16
 8000384:	1b64      	subs	r4, r4, r5
 8000386:	2100      	movs	r1, #0
 8000388:	b11e      	cbz	r6, 8000392 <__udivmoddi4+0xa2>
 800038a:	40dc      	lsrs	r4, r3
 800038c:	2300      	movs	r3, #0
 800038e:	e9c6 4300 	strd	r4, r3, [r6]
 8000392:	e8bd 87f0 	ldmia.w	sp!, {r4, r5, r6, r7, r8, r9, sl, pc}
 8000396:	428b      	cmp	r3, r1
 8000398:	d908      	bls.n	80003ac <__udivmoddi4+0xbc>
 800039a:	2e00      	cmp	r6, #0
 800039c:	f000 80ed 	beq.w	800057a <__udivmoddi4+0x28a>
 80003a0:	2100      	movs	r1, #0
 80003a2:	e9c6 0500 	strd	r0, r5, [r6]
 80003a6:	4608      	mov	r0, r1
 80003a8:	e8bd 87f0 	ldmia.w	sp!, {r4, r5, r6, r7, r8, r9, sl, pc}
 80003ac:	fab3 f183 	clz	r1, r3
 80003b0:	2900      	cmp	r1, #0
 80003b2:	d149      	bne.n	8000448 <__udivmoddi4+0x158>
 80003b4:	42ab      	cmp	r3, r5
 80003b6:	d302      	bcc.n	80003be <__udivmoddi4+0xce>
 80003b8:	4282      	cmp	r2, r0
 80003ba:	f200 80f8 	bhi.w	80005ae <__udivmoddi4+0x2be>
 80003be:	1a84      	subs	r4, r0, r2
 80003c0:	eb65 0203 	sbc.w	r2, r5, r3
 80003c4:	2001      	movs	r0, #1
 80003c6:	4617      	mov	r7, r2
 80003c8:	2e00      	cmp	r6, #0
 80003ca:	d0e2      	beq.n	8000392 <__udivmoddi4+0xa2>
 80003cc:	e9c6 4700 	strd	r4, r7, [r6]
 80003d0:	e7df      	b.n	8000392 <__udivmoddi4+0xa2>
 80003d2:	b902      	cbnz	r2, 80003d6 <__udivmoddi4+0xe6>
 80003d4:	deff      	udf	#255	; 0xff
 80003d6:	fab2 f382 	clz	r3, r2
 80003da:	2b00      	cmp	r3, #0
 80003dc:	f040 8090 	bne.w	8000500 <__udivmoddi4+0x210>
 80003e0:	1a8a      	subs	r2, r1, r2
 80003e2:	ea4f 471c 	mov.w	r7, ip, lsr #16
 80003e6:	fa1f fe8c 	uxth.w	lr, ip
 80003ea:	2101      	movs	r1, #1
 80003ec:	fbb2 f5f7 	udiv	r5, r2, r7
 80003f0:	fb07 2015 	mls	r0, r7, r5, r2
 80003f4:	0c22      	lsrs	r2, r4, #16
 80003f6:	ea42 4200 	orr.w	r2, r2, r0, lsl #16
 80003fa:	fb0e f005 	mul.w	r0, lr, r5
 80003fe:	4290      	cmp	r0, r2
 8000400:	d908      	bls.n	8000414 <__udivmoddi4+0x124>
 8000402:	eb1c 0202 	adds.w	r2, ip, r2
 8000406:	f105 38ff 	add.w	r8, r5, #4294967295
 800040a:	d202      	bcs.n	8000412 <__udivmoddi4+0x122>
 800040c:	4290      	cmp	r0, r2
 800040e:	f200 80cb 	bhi.w	80005a8 <__udivmoddi4+0x2b8>
 8000412:	4645      	mov	r5, r8
 8000414:	1a12      	subs	r2, r2, r0
 8000416:	b2a4      	uxth	r4, r4
 8000418:	fbb2 f0f7 	udiv	r0, r2, r7
 800041c:	fb07 2210 	mls	r2, r7, r0, r2
 8000420:	ea44 4402 	orr.w	r4, r4, r2, lsl #16
 8000424:	fb0e fe00 	mul.w	lr, lr, r0
 8000428:	45a6      	cmp	lr, r4
 800042a:	d908      	bls.n	800043e <__udivmoddi4+0x14e>
 800042c:	eb1c 0404 	adds.w	r4, ip, r4
 8000430:	f100 32ff 	add.w	r2, r0, #4294967295
 8000434:	d202      	bcs.n	800043c <__udivmoddi4+0x14c>
 8000436:	45a6      	cmp	lr, r4
 8000438:	f200 80bb 	bhi.w	80005b2 <__udivmoddi4+0x2c2>
 800043c:	4610      	mov	r0, r2
 800043e:	eba4 040e 	sub.w	r4, r4, lr
 8000442:	ea40 4005 	orr.w	r0, r0, r5, lsl #16
 8000446:	e79f      	b.n	8000388 <__udivmoddi4+0x98>
 8000448:	f1c1 0720 	rsb	r7, r1, #32
 800044c:	408b      	lsls	r3, r1
 800044e:	fa22 fc07 	lsr.w	ip, r2, r7
 8000452:	ea4c 0c03 	orr.w	ip, ip, r3
 8000456:	fa05 f401 	lsl.w	r4, r5, r1
 800045a:	fa20 f307 	lsr.w	r3, r0, r7
 800045e:	40fd      	lsrs	r5, r7
 8000460:	ea4f 491c 	mov.w	r9, ip, lsr #16
 8000464:	4323      	orrs	r3, r4
 8000466:	fbb5 f8f9 	udiv	r8, r5, r9
 800046a:	fa1f fe8c 	uxth.w	lr, ip
 800046e:	fb09 5518 	mls	r5, r9, r8, r5
 8000472:	0c1c      	lsrs	r4, r3, #16
 8000474:	ea44 4405 	orr.w	r4, r4, r5, lsl #16
 8000478:	fb08 f50e 	mul.w	r5, r8, lr
 800047c:	42a5      	cmp	r5, r4
 800047e:	fa02 f201 	lsl.w	r2, r2, r1
 8000482:	fa00 f001 	lsl.w	r0, r0, r1
 8000486:	d90b      	bls.n	80004a0 <__udivmoddi4+0x1b0>
 8000488:	eb1c 0404 	adds.w	r4, ip, r4
 800048c:	f108 3aff 	add.w	sl, r8, #4294967295
 8000490:	f080 8088 	bcs.w	80005a4 <__udivmoddi4+0x2b4>
 8000494:	42a5      	cmp	r5, r4
 8000496:	f240 8085 	bls.w	80005a4 <__udivmoddi4+0x2b4>
 800049a:	f1a8 0802 	sub.w	r8, r8, #2
 800049e:	4464      	add	r4, ip
 80004a0:	1b64      	subs	r4, r4, r5
 80004a2:	b29d      	uxth	r5, r3
 80004a4:	fbb4 f3f9 	udiv	r3, r4, r9
 80004a8:	fb09 4413 	mls	r4, r9, r3, r4
 80004ac:	ea45 4404 	orr.w	r4, r5, r4, lsl #16
 80004b0:	fb03 fe0e 	mul.w	lr, r3, lr
 80004b4:	45a6      	cmp	lr, r4
 80004b6:	d908      	bls.n	80004ca <__udivmoddi4+0x1da>
 80004b8:	eb1c 0404 	adds.w	r4, ip, r4
 80004bc:	f103 35ff 	add.w	r5, r3, #4294967295
 80004c0:	d26c      	bcs.n	800059c <__udivmoddi4+0x2ac>
 80004c2:	45a6      	cmp	lr, r4
 80004c4:	d96a      	bls.n	800059c <__udivmoddi4+0x2ac>
 80004c6:	3b02      	subs	r3, #2
 80004c8:	4464      	add	r4, ip
 80004ca:	ea43 4308 	orr.w	r3, r3, r8, lsl #16
 80004ce:	fba3 9502 	umull	r9, r5, r3, r2
 80004d2:	eba4 040e 	sub.w	r4, r4, lr
 80004d6:	42ac      	cmp	r4, r5
 80004d8:	46c8      	mov	r8, r9
 80004da:	46ae      	mov	lr, r5
 80004dc:	d356      	bcc.n	800058c <__udivmoddi4+0x29c>
 80004de:	d053      	beq.n	8000588 <__udivmoddi4+0x298>
 80004e0:	b156      	cbz	r6, 80004f8 <__udivmoddi4+0x208>
 80004e2:	ebb0 0208 	subs.w	r2, r0, r8
 80004e6:	eb64 040e 	sbc.w	r4, r4, lr
 80004ea:	fa04 f707 	lsl.w	r7, r4, r7
 80004ee:	40ca      	lsrs	r2, r1
 80004f0:	40cc      	lsrs	r4, r1
 80004f2:	4317      	orrs	r7, r2
 80004f4:	e9c6 7400 	strd	r7, r4, [r6]
 80004f8:	4618      	mov	r0, r3
 80004fa:	2100      	movs	r1, #0
 80004fc:	e8bd 87f0 	ldmia.w	sp!, {r4, r5, r6, r7, r8, r9, sl, pc}
 8000500:	f1c3 0120 	rsb	r1, r3, #32
 8000504:	fa02 fc03 	lsl.w	ip, r2, r3
 8000508:	fa20 f201 	lsr.w	r2, r0, r1
 800050c:	fa25 f101 	lsr.w	r1, r5, r1
 8000510:	409d      	lsls	r5, r3
 8000512:	432a      	orrs	r2, r5
 8000514:	ea4f 471c 	mov.w	r7, ip, lsr #16
 8000518:	fa1f fe8c 	uxth.w	lr, ip
 800051c:	fbb1 f0f7 	udiv	r0, r1, r7
 8000520:	fb07 1510 	mls	r5, r7, r0, r1
 8000524:	0c11      	lsrs	r1, r2, #16
 8000526:	ea41 4105 	orr.w	r1, r1, r5, lsl #16
 800052a:	fb00 f50e 	mul.w	r5, r0, lr
 800052e:	428d      	cmp	r5, r1
 8000530:	fa04 f403 	lsl.w	r4, r4, r3
 8000534:	d908      	bls.n	8000548 <__udivmoddi4+0x258>
 8000536:	eb1c 0101 	adds.w	r1, ip, r1
 800053a:	f100 38ff 	add.w	r8, r0, #4294967295
 800053e:	d22f      	bcs.n	80005a0 <__udivmoddi4+0x2b0>
 8000540:	428d      	cmp	r5, r1
 8000542:	d92d      	bls.n	80005a0 <__udivmoddi4+0x2b0>
 8000544:	3802      	subs	r0, #2
 8000546:	4461      	add	r1, ip
 8000548:	1b49      	subs	r1, r1, r5
 800054a:	b292      	uxth	r2, r2
 800054c:	fbb1 f5f7 	udiv	r5, r1, r7
 8000550:	fb07 1115 	mls	r1, r7, r5, r1
 8000554:	ea42 4201 	orr.w	r2, r2, r1, lsl #16
 8000558:	fb05 f10e 	mul.w	r1, r5, lr
 800055c:	4291      	cmp	r1, r2
 800055e:	d908      	bls.n	8000572 <__udivmoddi4+0x282>
 8000560:	eb1c 0202 	adds.w	r2, ip, r2
 8000564:	f105 38ff 	add.w	r8, r5, #4294967295
 8000568:	d216      	bcs.n	8000598 <__udivmoddi4+0x2a8>
 800056a:	4291      	cmp	r1, r2
 800056c:	d914      	bls.n	8000598 <__udivmoddi4+0x2a8>
 800056e:	3d02      	subs	r5, #2
 8000570:	4462      	add	r2, ip
 8000572:	1a52      	subs	r2, r2, r1
 8000574:	ea45 4100 	orr.w	r1, r5, r0, lsl #16
 8000578:	e738      	b.n	80003ec <__udivmoddi4+0xfc>
 800057a:	4631      	mov	r1, r6
 800057c:	4630      	mov	r0, r6
 800057e:	e708      	b.n	8000392 <__udivmoddi4+0xa2>
 8000580:	4639      	mov	r1, r7
 8000582:	e6e6      	b.n	8000352 <__udivmoddi4+0x62>
 8000584:	4610      	mov	r0, r2
 8000586:	e6fb      	b.n	8000380 <__udivmoddi4+0x90>
 8000588:	4548      	cmp	r0, r9
 800058a:	d2a9      	bcs.n	80004e0 <__udivmoddi4+0x1f0>
 800058c:	ebb9 0802 	subs.w	r8, r9, r2
 8000590:	eb65 0e0c 	sbc.w	lr, r5, ip
 8000594:	3b01      	subs	r3, #1
 8000596:	e7a3      	b.n	80004e0 <__udivmoddi4+0x1f0>
 8000598:	4645      	mov	r5, r8
 800059a:	e7ea      	b.n	8000572 <__udivmoddi4+0x282>
 800059c:	462b      	mov	r3, r5
 800059e:	e794      	b.n	80004ca <__udivmoddi4+0x1da>
 80005a0:	4640      	mov	r0, r8
 80005a2:	e7d1      	b.n	8000548 <__udivmoddi4+0x258>
 80005a4:	46d0      	mov	r8, sl
 80005a6:	e77b      	b.n	80004a0 <__udivmoddi4+0x1b0>
 80005a8:	3d02      	subs	r5, #2
 80005aa:	4462      	add	r2, ip
 80005ac:	e732      	b.n	8000414 <__udivmoddi4+0x124>
 80005ae:	4608      	mov	r0, r1
 80005b0:	e70a      	b.n	80003c8 <__udivmoddi4+0xd8>
 80005b2:	4464      	add	r4, ip
 80005b4:	3802      	subs	r0, #2
 80005b6:	e742      	b.n	800043e <__udivmoddi4+0x14e>

080005b8 <__aeabi_idiv0>:
 80005b8:	4770      	bx	lr
 80005ba:	bf00      	nop

080005bc <main>:
/**
  * @brief  The application entry point.
  * @retval int
  */
int main(void)
{
 80005bc:	b580      	push	{r7, lr}
 80005be:	af00      	add	r7, sp, #0
  /* USER CODE END 1 */

  /* MCU Configuration--------------------------------------------------------*/

  /* Reset of all peripherals, Initializes the Flash interface and the Systick. */
  HAL_Init();
 80005c0:	f001 f827 	bl	8001612 <HAL_Init>
  /* USER CODE BEGIN Init */

  /* USER CODE END Init */

  /* Configure the system clock */
  SystemClock_Config();
 80005c4:	f000 f88c 	bl	80006e0 <SystemClock_Config>
  /* USER CODE BEGIN SysInit */

  /* USER CODE END SysInit */

  /* Initialize all configured peripherals */
  MX_GPIO_Init();
 80005c8:	f000 f9d0 	bl	800096c <MX_GPIO_Init>
  MX_DMA_Init();
 80005cc:	f000 f99c 	bl	8000908 <MX_DMA_Init>
  MX_LPUART1_UART_Init();
 80005d0:	f000 f912 	bl	80007f8 <MX_LPUART1_UART_Init>
  MX_I2C1_Init();
 80005d4:	f000 f8d0 	bl	8000778 <MX_I2C1_Init>
  MX_SPI3_Init();
 80005d8:	f000 f958 	bl	800088c <MX_SPI3_Init>
  /* USER CODE BEGIN 2 */
	SPITxRx_Setup();
 80005dc:	f000 fa7c 	bl	8000ad8 <SPITxRx_Setup>
	Round1 = 1;
 80005e0:	4b36      	ldr	r3, [pc, #216]	; (80006bc <main+0x100>)
 80005e2:	2201      	movs	r2, #1
 80005e4:	601a      	str	r2, [r3, #0]
	Round2 = 1;
 80005e6:	4b36      	ldr	r3, [pc, #216]	; (80006c0 <main+0x104>)
 80005e8:	2201      	movs	r2, #1
 80005ea:	601a      	str	r2, [r3, #0]
  {

    /* USER CODE END WHILE */

    /* USER CODE BEGIN 3 */
		RandomNum1_1 = rand() % 10;
 80005ec:	f005 ffb0 	bl	8006550 <rand>
 80005f0:	4601      	mov	r1, r0
 80005f2:	4b34      	ldr	r3, [pc, #208]	; (80006c4 <main+0x108>)
 80005f4:	fb83 2301 	smull	r2, r3, r3, r1
 80005f8:	109a      	asrs	r2, r3, #2
 80005fa:	17cb      	asrs	r3, r1, #31
 80005fc:	1ad2      	subs	r2, r2, r3
 80005fe:	4613      	mov	r3, r2
 8000600:	009b      	lsls	r3, r3, #2
 8000602:	4413      	add	r3, r2
 8000604:	005b      	lsls	r3, r3, #1
 8000606:	1aca      	subs	r2, r1, r3
 8000608:	4b2f      	ldr	r3, [pc, #188]	; (80006c8 <main+0x10c>)
 800060a:	601a      	str	r2, [r3, #0]
		RandomNum2_1 = rand() % 10;
 800060c:	f005 ffa0 	bl	8006550 <rand>
 8000610:	4601      	mov	r1, r0
 8000612:	4b2c      	ldr	r3, [pc, #176]	; (80006c4 <main+0x108>)
 8000614:	fb83 2301 	smull	r2, r3, r3, r1
 8000618:	109a      	asrs	r2, r3, #2
 800061a:	17cb      	asrs	r3, r1, #31
 800061c:	1ad2      	subs	r2, r2, r3
 800061e:	4613      	mov	r3, r2
 8000620:	009b      	lsls	r3, r3, #2
 8000622:	4413      	add	r3, r2
 8000624:	005b      	lsls	r3, r3, #1
 8000626:	1aca      	subs	r2, r1, r3
 8000628:	4b28      	ldr	r3, [pc, #160]	; (80006cc <main+0x110>)
 800062a:	601a      	str	r2, [r3, #0]
		RandomNum1_2 = rand() % 10;
 800062c:	f005 ff90 	bl	8006550 <rand>
 8000630:	4601      	mov	r1, r0
 8000632:	4b24      	ldr	r3, [pc, #144]	; (80006c4 <main+0x108>)
 8000634:	fb83 2301 	smull	r2, r3, r3, r1
 8000638:	109a      	asrs	r2, r3, #2
 800063a:	17cb      	asrs	r3, r1, #31
 800063c:	1ad2      	subs	r2, r2, r3
 800063e:	4613      	mov	r3, r2
 8000640:	009b      	lsls	r3, r3, #2
 8000642:	4413      	add	r3, r2
 8000644:	005b      	lsls	r3, r3, #1
 8000646:	1aca      	subs	r2, r1, r3
 8000648:	4b21      	ldr	r3, [pc, #132]	; (80006d0 <main+0x114>)
 800064a:	601a      	str	r2, [r3, #0]
		RandomNum2_2 = rand() % 10;
 800064c:	f005 ff80 	bl	8006550 <rand>
 8000650:	4601      	mov	r1, r0
 8000652:	4b1c      	ldr	r3, [pc, #112]	; (80006c4 <main+0x108>)
 8000654:	fb83 2301 	smull	r2, r3, r3, r1
 8000658:	109a      	asrs	r2, r3, #2
 800065a:	17cb      	asrs	r3, r1, #31
 800065c:	1ad2      	subs	r2, r2, r3
 800065e:	4613      	mov	r3, r2
 8000660:	009b      	lsls	r3, r3, #2
 8000662:	4413      	add	r3, r2
 8000664:	005b      	lsls	r3, r3, #1
 8000666:	1aca      	subs	r2, r1, r3
 8000668:	4b1a      	ldr	r3, [pc, #104]	; (80006d4 <main+0x118>)
 800066a:	601a      	str	r2, [r3, #0]
		RandomNum1_3 = rand() % 10;
 800066c:	f005 ff70 	bl	8006550 <rand>
 8000670:	4601      	mov	r1, r0
 8000672:	4b14      	ldr	r3, [pc, #80]	; (80006c4 <main+0x108>)
 8000674:	fb83 2301 	smull	r2, r3, r3, r1
 8000678:	109a      	asrs	r2, r3, #2
 800067a:	17cb      	asrs	r3, r1, #31
 800067c:	1ad2      	subs	r2, r2, r3
 800067e:	4613      	mov	r3, r2
 8000680:	009b      	lsls	r3, r3, #2
 8000682:	4413      	add	r3, r2
 8000684:	005b      	lsls	r3, r3, #1
 8000686:	1aca      	subs	r2, r1, r3
 8000688:	4b13      	ldr	r3, [pc, #76]	; (80006d8 <main+0x11c>)
 800068a:	601a      	str	r2, [r3, #0]
		RandomNum2_3 = rand() % 10;
 800068c:	f005 ff60 	bl	8006550 <rand>
 8000690:	4601      	mov	r1, r0
 8000692:	4b0c      	ldr	r3, [pc, #48]	; (80006c4 <main+0x108>)
 8000694:	fb83 2301 	smull	r2, r3, r3, r1
 8000698:	109a      	asrs	r2, r3, #2
 800069a:	17cb      	asrs	r3, r1, #31
 800069c:	1ad2      	subs	r2, r2, r3
 800069e:	4613      	mov	r3, r2
 80006a0:	009b      	lsls	r3, r3, #2
 80006a2:	4413      	add	r3, r2
 80006a4:	005b      	lsls	r3, r3, #1
 80006a6:	1aca      	subs	r2, r1, r3
 80006a8:	4b0c      	ldr	r3, [pc, #48]	; (80006dc <main+0x120>)
 80006aa:	601a      	str	r2, [r3, #0]

//	  EEPROMReadExample(eepromDataReadBack, 2);
//	  EEPROMWriteExample();

	  SPITxRx_readIO();
 80006ac:	f000 fa2a 	bl	8000b04 <SPITxRx_readIO>

	  Switch();
 80006b0:	f000 fa7a 	bl	8000ba8 <Switch>
	  StateGame();
 80006b4:	f000 fb46 	bl	8000d44 <StateGame>
  {
 80006b8:	e798      	b.n	80005ec <main+0x30>
 80006ba:	bf00      	nop
 80006bc:	20000300 	.word	0x20000300
 80006c0:	20000304 	.word	0x20000304
 80006c4:	66666667 	.word	0x66666667
 80006c8:	200002e8 	.word	0x200002e8
 80006cc:	200002ec 	.word	0x200002ec
 80006d0:	200002f0 	.word	0x200002f0
 80006d4:	200002f4 	.word	0x200002f4
 80006d8:	200002f8 	.word	0x200002f8
 80006dc:	200002fc 	.word	0x200002fc

080006e0 <SystemClock_Config>:
/**
  * @brief System Clock Configuration
  * @retval None
  */
void SystemClock_Config(void)
{
 80006e0:	b580      	push	{r7, lr}
 80006e2:	b094      	sub	sp, #80	; 0x50
 80006e4:	af00      	add	r7, sp, #0
  RCC_OscInitTypeDef RCC_OscInitStruct = {0};
 80006e6:	f107 0318 	add.w	r3, r7, #24
 80006ea:	2238      	movs	r2, #56	; 0x38
 80006ec:	2100      	movs	r1, #0
 80006ee:	4618      	mov	r0, r3
 80006f0:	f006 f871 	bl	80067d6 <memset>
  RCC_ClkInitTypeDef RCC_ClkInitStruct = {0};
 80006f4:	1d3b      	adds	r3, r7, #4
 80006f6:	2200      	movs	r2, #0
 80006f8:	601a      	str	r2, [r3, #0]
 80006fa:	605a      	str	r2, [r3, #4]
 80006fc:	609a      	str	r2, [r3, #8]
 80006fe:	60da      	str	r2, [r3, #12]
 8000700:	611a      	str	r2, [r3, #16]

  /** Configure the main internal regulator output voltage
  */
  HAL_PWREx_ControlVoltageScaling(PWR_REGULATOR_VOLTAGE_SCALE1_BOOST);
 8000702:	2000      	movs	r0, #0
 8000704:	f003 fb5e 	bl	8003dc4 <HAL_PWREx_ControlVoltageScaling>

  /** Initializes the RCC Oscillators according to the specified parameters
  * in the RCC_OscInitTypeDef structure.
  */
  RCC_OscInitStruct.OscillatorType = RCC_OSCILLATORTYPE_HSI;
 8000708:	2302      	movs	r3, #2
 800070a:	61bb      	str	r3, [r7, #24]
  RCC_OscInitStruct.HSIState = RCC_HSI_ON;
 800070c:	f44f 7380 	mov.w	r3, #256	; 0x100
 8000710:	627b      	str	r3, [r7, #36]	; 0x24
  RCC_OscInitStruct.HSICalibrationValue = RCC_HSICALIBRATION_DEFAULT;
 8000712:	2340      	movs	r3, #64	; 0x40
 8000714:	62bb      	str	r3, [r7, #40]	; 0x28
  RCC_OscInitStruct.PLL.PLLState = RCC_PLL_ON;
 8000716:	2302      	movs	r3, #2
 8000718:	637b      	str	r3, [r7, #52]	; 0x34
  RCC_OscInitStruct.PLL.PLLSource = RCC_PLLSOURCE_HSI;
 800071a:	2302      	movs	r3, #2
 800071c:	63bb      	str	r3, [r7, #56]	; 0x38
  RCC_OscInitStruct.PLL.PLLM = RCC_PLLM_DIV4;
 800071e:	2304      	movs	r3, #4
 8000720:	63fb      	str	r3, [r7, #60]	; 0x3c
  RCC_OscInitStruct.PLL.PLLN = 85;
 8000722:	2355      	movs	r3, #85	; 0x55
 8000724:	643b      	str	r3, [r7, #64]	; 0x40
  RCC_OscInitStruct.PLL.PLLP = RCC_PLLP_DIV2;
 8000726:	2302      	movs	r3, #2
 8000728:	647b      	str	r3, [r7, #68]	; 0x44
  RCC_OscInitStruct.PLL.PLLQ = RCC_PLLQ_DIV2;
 800072a:	2302      	movs	r3, #2
 800072c:	64bb      	str	r3, [r7, #72]	; 0x48
  RCC_OscInitStruct.PLL.PLLR = RCC_PLLR_DIV2;
 800072e:	2302      	movs	r3, #2
 8000730:	64fb      	str	r3, [r7, #76]	; 0x4c
  if (HAL_RCC_OscConfig(&RCC_OscInitStruct) != HAL_OK)
 8000732:	f107 0318 	add.w	r3, r7, #24
 8000736:	4618      	mov	r0, r3
 8000738:	f003 fbf8 	bl	8003f2c <HAL_RCC_OscConfig>
 800073c:	4603      	mov	r3, r0
 800073e:	2b00      	cmp	r3, #0
 8000740:	d001      	beq.n	8000746 <SystemClock_Config+0x66>
  {
    Error_Handler();
 8000742:	f000 fc51 	bl	8000fe8 <Error_Handler>
  }

  /** Initializes the CPU, AHB and APB buses clocks
  */
  RCC_ClkInitStruct.ClockType = RCC_CLOCKTYPE_HCLK|RCC_CLOCKTYPE_SYSCLK
 8000746:	230f      	movs	r3, #15
 8000748:	607b      	str	r3, [r7, #4]
                              |RCC_CLOCKTYPE_PCLK1|RCC_CLOCKTYPE_PCLK2;
  RCC_ClkInitStruct.SYSCLKSource = RCC_SYSCLKSOURCE_PLLCLK;
 800074a:	2303      	movs	r3, #3
 800074c:	60bb      	str	r3, [r7, #8]
  RCC_ClkInitStruct.AHBCLKDivider = RCC_SYSCLK_DIV1;
 800074e:	2300      	movs	r3, #0
 8000750:	60fb      	str	r3, [r7, #12]
  RCC_ClkInitStruct.APB1CLKDivider = RCC_HCLK_DIV1;
 8000752:	2300      	movs	r3, #0
 8000754:	613b      	str	r3, [r7, #16]
  RCC_ClkInitStruct.APB2CLKDivider = RCC_HCLK_DIV1;
 8000756:	2300      	movs	r3, #0
 8000758:	617b      	str	r3, [r7, #20]

  if (HAL_RCC_ClockConfig(&RCC_ClkInitStruct, FLASH_LATENCY_4) != HAL_OK)
 800075a:	1d3b      	adds	r3, r7, #4
 800075c:	2104      	movs	r1, #4
 800075e:	4618      	mov	r0, r3
 8000760:	f003 fef6 	bl	8004550 <HAL_RCC_ClockConfig>
 8000764:	4603      	mov	r3, r0
 8000766:	2b00      	cmp	r3, #0
 8000768:	d001      	beq.n	800076e <SystemClock_Config+0x8e>
  {
    Error_Handler();
 800076a:	f000 fc3d 	bl	8000fe8 <Error_Handler>
  }
}
 800076e:	bf00      	nop
 8000770:	3750      	adds	r7, #80	; 0x50
 8000772:	46bd      	mov	sp, r7
 8000774:	bd80      	pop	{r7, pc}
	...

08000778 <MX_I2C1_Init>:
  * @brief I2C1 Initialization Function
  * @param None
  * @retval None
  */
static void MX_I2C1_Init(void)
{
 8000778:	b580      	push	{r7, lr}
 800077a:	af00      	add	r7, sp, #0
  /* USER CODE END I2C1_Init 0 */

  /* USER CODE BEGIN I2C1_Init 1 */

  /* USER CODE END I2C1_Init 1 */
  hi2c1.Instance = I2C1;
 800077c:	4b1b      	ldr	r3, [pc, #108]	; (80007ec <MX_I2C1_Init+0x74>)
 800077e:	4a1c      	ldr	r2, [pc, #112]	; (80007f0 <MX_I2C1_Init+0x78>)
 8000780:	601a      	str	r2, [r3, #0]
  hi2c1.Init.Timing = 0x30A0A7FB;
 8000782:	4b1a      	ldr	r3, [pc, #104]	; (80007ec <MX_I2C1_Init+0x74>)
 8000784:	4a1b      	ldr	r2, [pc, #108]	; (80007f4 <MX_I2C1_Init+0x7c>)
 8000786:	605a      	str	r2, [r3, #4]
  hi2c1.Init.OwnAddress1 = 0;
 8000788:	4b18      	ldr	r3, [pc, #96]	; (80007ec <MX_I2C1_Init+0x74>)
 800078a:	2200      	movs	r2, #0
 800078c:	609a      	str	r2, [r3, #8]
  hi2c1.Init.AddressingMode = I2C_ADDRESSINGMODE_7BIT;
 800078e:	4b17      	ldr	r3, [pc, #92]	; (80007ec <MX_I2C1_Init+0x74>)
 8000790:	2201      	movs	r2, #1
 8000792:	60da      	str	r2, [r3, #12]
  hi2c1.Init.DualAddressMode = I2C_DUALADDRESS_DISABLE;
 8000794:	4b15      	ldr	r3, [pc, #84]	; (80007ec <MX_I2C1_Init+0x74>)
 8000796:	2200      	movs	r2, #0
 8000798:	611a      	str	r2, [r3, #16]
  hi2c1.Init.OwnAddress2 = 0;
 800079a:	4b14      	ldr	r3, [pc, #80]	; (80007ec <MX_I2C1_Init+0x74>)
 800079c:	2200      	movs	r2, #0
 800079e:	615a      	str	r2, [r3, #20]
  hi2c1.Init.OwnAddress2Masks = I2C_OA2_NOMASK;
 80007a0:	4b12      	ldr	r3, [pc, #72]	; (80007ec <MX_I2C1_Init+0x74>)
 80007a2:	2200      	movs	r2, #0
 80007a4:	619a      	str	r2, [r3, #24]
  hi2c1.Init.GeneralCallMode = I2C_GENERALCALL_DISABLE;
 80007a6:	4b11      	ldr	r3, [pc, #68]	; (80007ec <MX_I2C1_Init+0x74>)
 80007a8:	2200      	movs	r2, #0
 80007aa:	61da      	str	r2, [r3, #28]
  hi2c1.Init.NoStretchMode = I2C_NOSTRETCH_DISABLE;
 80007ac:	4b0f      	ldr	r3, [pc, #60]	; (80007ec <MX_I2C1_Init+0x74>)
 80007ae:	2200      	movs	r2, #0
 80007b0:	621a      	str	r2, [r3, #32]
  if (HAL_I2C_Init(&hi2c1) != HAL_OK)
 80007b2:	480e      	ldr	r0, [pc, #56]	; (80007ec <MX_I2C1_Init+0x74>)
 80007b4:	f001 fcd3 	bl	800215e <HAL_I2C_Init>
 80007b8:	4603      	mov	r3, r0
 80007ba:	2b00      	cmp	r3, #0
 80007bc:	d001      	beq.n	80007c2 <MX_I2C1_Init+0x4a>
  {
    Error_Handler();
 80007be:	f000 fc13 	bl	8000fe8 <Error_Handler>
  }

  /** Configure Analogue filter
  */
  if (HAL_I2CEx_ConfigAnalogFilter(&hi2c1, I2C_ANALOGFILTER_ENABLE) != HAL_OK)
 80007c2:	2100      	movs	r1, #0
 80007c4:	4809      	ldr	r0, [pc, #36]	; (80007ec <MX_I2C1_Init+0x74>)
 80007c6:	f003 fa65 	bl	8003c94 <HAL_I2CEx_ConfigAnalogFilter>
 80007ca:	4603      	mov	r3, r0
 80007cc:	2b00      	cmp	r3, #0
 80007ce:	d001      	beq.n	80007d4 <MX_I2C1_Init+0x5c>
  {
    Error_Handler();
 80007d0:	f000 fc0a 	bl	8000fe8 <Error_Handler>
  }

  /** Configure Digital filter
  */
  if (HAL_I2CEx_ConfigDigitalFilter(&hi2c1, 0) != HAL_OK)
 80007d4:	2100      	movs	r1, #0
 80007d6:	4805      	ldr	r0, [pc, #20]	; (80007ec <MX_I2C1_Init+0x74>)
 80007d8:	f003 faa7 	bl	8003d2a <HAL_I2CEx_ConfigDigitalFilter>
 80007dc:	4603      	mov	r3, r0
 80007de:	2b00      	cmp	r3, #0
 80007e0:	d001      	beq.n	80007e6 <MX_I2C1_Init+0x6e>
  {
    Error_Handler();
 80007e2:	f000 fc01 	bl	8000fe8 <Error_Handler>
  }
  /* USER CODE BEGIN I2C1_Init 2 */

  /* USER CODE END I2C1_Init 2 */

}
 80007e6:	bf00      	nop
 80007e8:	bd80      	pop	{r7, pc}
 80007ea:	bf00      	nop
 80007ec:	2000009c 	.word	0x2000009c
 80007f0:	40005400 	.word	0x40005400
 80007f4:	30a0a7fb 	.word	0x30a0a7fb

080007f8 <MX_LPUART1_UART_Init>:
  * @brief LPUART1 Initialization Function
  * @param None
  * @retval None
  */
static void MX_LPUART1_UART_Init(void)
{
 80007f8:	b580      	push	{r7, lr}
 80007fa:	af00      	add	r7, sp, #0
  /* USER CODE END LPUART1_Init 0 */

  /* USER CODE BEGIN LPUART1_Init 1 */

  /* USER CODE END LPUART1_Init 1 */
  hlpuart1.Instance = LPUART1;
 80007fc:	4b21      	ldr	r3, [pc, #132]	; (8000884 <MX_LPUART1_UART_Init+0x8c>)
 80007fe:	4a22      	ldr	r2, [pc, #136]	; (8000888 <MX_LPUART1_UART_Init+0x90>)
 8000800:	601a      	str	r2, [r3, #0]
  hlpuart1.Init.BaudRate = 115200;
 8000802:	4b20      	ldr	r3, [pc, #128]	; (8000884 <MX_LPUART1_UART_Init+0x8c>)
 8000804:	f44f 32e1 	mov.w	r2, #115200	; 0x1c200
 8000808:	605a      	str	r2, [r3, #4]
  hlpuart1.Init.WordLength = UART_WORDLENGTH_8B;
 800080a:	4b1e      	ldr	r3, [pc, #120]	; (8000884 <MX_LPUART1_UART_Init+0x8c>)
 800080c:	2200      	movs	r2, #0
 800080e:	609a      	str	r2, [r3, #8]
  hlpuart1.Init.StopBits = UART_STOPBITS_1;
 8000810:	4b1c      	ldr	r3, [pc, #112]	; (8000884 <MX_LPUART1_UART_Init+0x8c>)
 8000812:	2200      	movs	r2, #0
 8000814:	60da      	str	r2, [r3, #12]
  hlpuart1.Init.Parity = UART_PARITY_NONE;
 8000816:	4b1b      	ldr	r3, [pc, #108]	; (8000884 <MX_LPUART1_UART_Init+0x8c>)
 8000818:	2200      	movs	r2, #0
 800081a:	611a      	str	r2, [r3, #16]
  hlpuart1.Init.Mode = UART_MODE_TX_RX;
 800081c:	4b19      	ldr	r3, [pc, #100]	; (8000884 <MX_LPUART1_UART_Init+0x8c>)
 800081e:	220c      	movs	r2, #12
 8000820:	615a      	str	r2, [r3, #20]
  hlpuart1.Init.HwFlowCtl = UART_HWCONTROL_NONE;
 8000822:	4b18      	ldr	r3, [pc, #96]	; (8000884 <MX_LPUART1_UART_Init+0x8c>)
 8000824:	2200      	movs	r2, #0
 8000826:	619a      	str	r2, [r3, #24]
  hlpuart1.Init.OneBitSampling = UART_ONE_BIT_SAMPLE_DISABLE;
 8000828:	4b16      	ldr	r3, [pc, #88]	; (8000884 <MX_LPUART1_UART_Init+0x8c>)
 800082a:	2200      	movs	r2, #0
 800082c:	621a      	str	r2, [r3, #32]
  hlpuart1.Init.ClockPrescaler = UART_PRESCALER_DIV1;
 800082e:	4b15      	ldr	r3, [pc, #84]	; (8000884 <MX_LPUART1_UART_Init+0x8c>)
 8000830:	2200      	movs	r2, #0
 8000832:	625a      	str	r2, [r3, #36]	; 0x24
  hlpuart1.AdvancedInit.AdvFeatureInit = UART_ADVFEATURE_NO_INIT;
 8000834:	4b13      	ldr	r3, [pc, #76]	; (8000884 <MX_LPUART1_UART_Init+0x8c>)
 8000836:	2200      	movs	r2, #0
 8000838:	629a      	str	r2, [r3, #40]	; 0x28
  if (HAL_UART_Init(&hlpuart1) != HAL_OK)
 800083a:	4812      	ldr	r0, [pc, #72]	; (8000884 <MX_LPUART1_UART_Init+0x8c>)
 800083c:	f005 f81a 	bl	8005874 <HAL_UART_Init>
 8000840:	4603      	mov	r3, r0
 8000842:	2b00      	cmp	r3, #0
 8000844:	d001      	beq.n	800084a <MX_LPUART1_UART_Init+0x52>
  {
    Error_Handler();
 8000846:	f000 fbcf 	bl	8000fe8 <Error_Handler>
  }
  if (HAL_UARTEx_SetTxFifoThreshold(&hlpuart1, UART_TXFIFO_THRESHOLD_1_8) != HAL_OK)
 800084a:	2100      	movs	r1, #0
 800084c:	480d      	ldr	r0, [pc, #52]	; (8000884 <MX_LPUART1_UART_Init+0x8c>)
 800084e:	f005 fdb5 	bl	80063bc <HAL_UARTEx_SetTxFifoThreshold>
 8000852:	4603      	mov	r3, r0
 8000854:	2b00      	cmp	r3, #0
 8000856:	d001      	beq.n	800085c <MX_LPUART1_UART_Init+0x64>
  {
    Error_Handler();
 8000858:	f000 fbc6 	bl	8000fe8 <Error_Handler>
  }
  if (HAL_UARTEx_SetRxFifoThreshold(&hlpuart1, UART_RXFIFO_THRESHOLD_1_8) != HAL_OK)
 800085c:	2100      	movs	r1, #0
 800085e:	4809      	ldr	r0, [pc, #36]	; (8000884 <MX_LPUART1_UART_Init+0x8c>)
 8000860:	f005 fdea 	bl	8006438 <HAL_UARTEx_SetRxFifoThreshold>
 8000864:	4603      	mov	r3, r0
 8000866:	2b00      	cmp	r3, #0
 8000868:	d001      	beq.n	800086e <MX_LPUART1_UART_Init+0x76>
  {
    Error_Handler();
 800086a:	f000 fbbd 	bl	8000fe8 <Error_Handler>
  }
  if (HAL_UARTEx_DisableFifoMode(&hlpuart1) != HAL_OK)
 800086e:	4805      	ldr	r0, [pc, #20]	; (8000884 <MX_LPUART1_UART_Init+0x8c>)
 8000870:	f005 fd6b 	bl	800634a <HAL_UARTEx_DisableFifoMode>
 8000874:	4603      	mov	r3, r0
 8000876:	2b00      	cmp	r3, #0
 8000878:	d001      	beq.n	800087e <MX_LPUART1_UART_Init+0x86>
  {
    Error_Handler();
 800087a:	f000 fbb5 	bl	8000fe8 <Error_Handler>
  }
  /* USER CODE BEGIN LPUART1_Init 2 */

  /* USER CODE END LPUART1_Init 2 */

}
 800087e:	bf00      	nop
 8000880:	bd80      	pop	{r7, pc}
 8000882:	bf00      	nop
 8000884:	200001b0 	.word	0x200001b0
 8000888:	40008000 	.word	0x40008000

0800088c <MX_SPI3_Init>:
  * @brief SPI3 Initialization Function
  * @param None
  * @retval None
  */
static void MX_SPI3_Init(void)
{
 800088c:	b580      	push	{r7, lr}
 800088e:	af00      	add	r7, sp, #0

  /* USER CODE BEGIN SPI3_Init 1 */

  /* USER CODE END SPI3_Init 1 */
  /* SPI3 parameter configuration*/
  hspi3.Instance = SPI3;
 8000890:	4b1b      	ldr	r3, [pc, #108]	; (8000900 <MX_SPI3_Init+0x74>)
 8000892:	4a1c      	ldr	r2, [pc, #112]	; (8000904 <MX_SPI3_Init+0x78>)
 8000894:	601a      	str	r2, [r3, #0]
  hspi3.Init.Mode = SPI_MODE_MASTER;
 8000896:	4b1a      	ldr	r3, [pc, #104]	; (8000900 <MX_SPI3_Init+0x74>)
 8000898:	f44f 7282 	mov.w	r2, #260	; 0x104
 800089c:	605a      	str	r2, [r3, #4]
  hspi3.Init.Direction = SPI_DIRECTION_2LINES;
 800089e:	4b18      	ldr	r3, [pc, #96]	; (8000900 <MX_SPI3_Init+0x74>)
 80008a0:	2200      	movs	r2, #0
 80008a2:	609a      	str	r2, [r3, #8]
  hspi3.Init.DataSize = SPI_DATASIZE_8BIT;
 80008a4:	4b16      	ldr	r3, [pc, #88]	; (8000900 <MX_SPI3_Init+0x74>)
 80008a6:	f44f 62e0 	mov.w	r2, #1792	; 0x700
 80008aa:	60da      	str	r2, [r3, #12]
  hspi3.Init.CLKPolarity = SPI_POLARITY_LOW;
 80008ac:	4b14      	ldr	r3, [pc, #80]	; (8000900 <MX_SPI3_Init+0x74>)
 80008ae:	2200      	movs	r2, #0
 80008b0:	611a      	str	r2, [r3, #16]
  hspi3.Init.CLKPhase = SPI_PHASE_1EDGE;
 80008b2:	4b13      	ldr	r3, [pc, #76]	; (8000900 <MX_SPI3_Init+0x74>)
 80008b4:	2200      	movs	r2, #0
 80008b6:	615a      	str	r2, [r3, #20]
  hspi3.Init.NSS = SPI_NSS_SOFT;
 80008b8:	4b11      	ldr	r3, [pc, #68]	; (8000900 <MX_SPI3_Init+0x74>)
 80008ba:	f44f 7200 	mov.w	r2, #512	; 0x200
 80008be:	619a      	str	r2, [r3, #24]
  hspi3.Init.BaudRatePrescaler = SPI_BAUDRATEPRESCALER_256;
 80008c0:	4b0f      	ldr	r3, [pc, #60]	; (8000900 <MX_SPI3_Init+0x74>)
 80008c2:	2238      	movs	r2, #56	; 0x38
 80008c4:	61da      	str	r2, [r3, #28]
  hspi3.Init.FirstBit = SPI_FIRSTBIT_MSB;
 80008c6:	4b0e      	ldr	r3, [pc, #56]	; (8000900 <MX_SPI3_Init+0x74>)
 80008c8:	2200      	movs	r2, #0
 80008ca:	621a      	str	r2, [r3, #32]
  hspi3.Init.TIMode = SPI_TIMODE_DISABLE;
 80008cc:	4b0c      	ldr	r3, [pc, #48]	; (8000900 <MX_SPI3_Init+0x74>)
 80008ce:	2200      	movs	r2, #0
 80008d0:	625a      	str	r2, [r3, #36]	; 0x24
  hspi3.Init.CRCCalculation = SPI_CRCCALCULATION_DISABLE;
 80008d2:	4b0b      	ldr	r3, [pc, #44]	; (8000900 <MX_SPI3_Init+0x74>)
 80008d4:	2200      	movs	r2, #0
 80008d6:	629a      	str	r2, [r3, #40]	; 0x28
  hspi3.Init.CRCPolynomial = 7;
 80008d8:	4b09      	ldr	r3, [pc, #36]	; (8000900 <MX_SPI3_Init+0x74>)
 80008da:	2207      	movs	r2, #7
 80008dc:	62da      	str	r2, [r3, #44]	; 0x2c
  hspi3.Init.CRCLength = SPI_CRC_LENGTH_DATASIZE;
 80008de:	4b08      	ldr	r3, [pc, #32]	; (8000900 <MX_SPI3_Init+0x74>)
 80008e0:	2200      	movs	r2, #0
 80008e2:	631a      	str	r2, [r3, #48]	; 0x30
  hspi3.Init.NSSPMode = SPI_NSS_PULSE_ENABLE;
 80008e4:	4b06      	ldr	r3, [pc, #24]	; (8000900 <MX_SPI3_Init+0x74>)
 80008e6:	2208      	movs	r2, #8
 80008e8:	635a      	str	r2, [r3, #52]	; 0x34
  if (HAL_SPI_Init(&hspi3) != HAL_OK)
 80008ea:	4805      	ldr	r0, [pc, #20]	; (8000900 <MX_SPI3_Init+0x74>)
 80008ec:	f004 fa9a 	bl	8004e24 <HAL_SPI_Init>
 80008f0:	4603      	mov	r3, r0
 80008f2:	2b00      	cmp	r3, #0
 80008f4:	d001      	beq.n	80008fa <MX_SPI3_Init+0x6e>
  {
    Error_Handler();
 80008f6:	f000 fb77 	bl	8000fe8 <Error_Handler>
  }
  /* USER CODE BEGIN SPI3_Init 2 */

  /* USER CODE END SPI3_Init 2 */

}
 80008fa:	bf00      	nop
 80008fc:	bd80      	pop	{r7, pc}
 80008fe:	bf00      	nop
 8000900:	20000244 	.word	0x20000244
 8000904:	40003c00 	.word	0x40003c00

08000908 <MX_DMA_Init>:

/**
  * Enable DMA controller clock
  */
static void MX_DMA_Init(void)
{
 8000908:	b580      	push	{r7, lr}
 800090a:	b082      	sub	sp, #8
 800090c:	af00      	add	r7, sp, #0

  /* DMA controller clock enable */
  __HAL_RCC_DMAMUX1_CLK_ENABLE();
 800090e:	4b16      	ldr	r3, [pc, #88]	; (8000968 <MX_DMA_Init+0x60>)
 8000910:	6c9b      	ldr	r3, [r3, #72]	; 0x48
 8000912:	4a15      	ldr	r2, [pc, #84]	; (8000968 <MX_DMA_Init+0x60>)
 8000914:	f043 0304 	orr.w	r3, r3, #4
 8000918:	6493      	str	r3, [r2, #72]	; 0x48
 800091a:	4b13      	ldr	r3, [pc, #76]	; (8000968 <MX_DMA_Init+0x60>)
 800091c:	6c9b      	ldr	r3, [r3, #72]	; 0x48
 800091e:	f003 0304 	and.w	r3, r3, #4
 8000922:	607b      	str	r3, [r7, #4]
 8000924:	687b      	ldr	r3, [r7, #4]
  __HAL_RCC_DMA1_CLK_ENABLE();
 8000926:	4b10      	ldr	r3, [pc, #64]	; (8000968 <MX_DMA_Init+0x60>)
 8000928:	6c9b      	ldr	r3, [r3, #72]	; 0x48
 800092a:	4a0f      	ldr	r2, [pc, #60]	; (8000968 <MX_DMA_Init+0x60>)
 800092c:	f043 0301 	orr.w	r3, r3, #1
 8000930:	6493      	str	r3, [r2, #72]	; 0x48
 8000932:	4b0d      	ldr	r3, [pc, #52]	; (8000968 <MX_DMA_Init+0x60>)
 8000934:	6c9b      	ldr	r3, [r3, #72]	; 0x48
 8000936:	f003 0301 	and.w	r3, r3, #1
 800093a:	603b      	str	r3, [r7, #0]
 800093c:	683b      	ldr	r3, [r7, #0]

  /* DMA interrupt init */
  /* DMA1_Channel1_IRQn interrupt configuration */
  HAL_NVIC_SetPriority(DMA1_Channel1_IRQn, 0, 0);
 800093e:	2200      	movs	r2, #0
 8000940:	2100      	movs	r1, #0
 8000942:	200b      	movs	r0, #11
 8000944:	f000 ffd3 	bl	80018ee <HAL_NVIC_SetPriority>
  HAL_NVIC_EnableIRQ(DMA1_Channel1_IRQn);
 8000948:	200b      	movs	r0, #11
 800094a:	f000 ffea 	bl	8001922 <HAL_NVIC_EnableIRQ>
  /* DMA1_Channel2_IRQn interrupt configuration */
  HAL_NVIC_SetPriority(DMA1_Channel2_IRQn, 0, 0);
 800094e:	2200      	movs	r2, #0
 8000950:	2100      	movs	r1, #0
 8000952:	200c      	movs	r0, #12
 8000954:	f000 ffcb 	bl	80018ee <HAL_NVIC_SetPriority>
  HAL_NVIC_EnableIRQ(DMA1_Channel2_IRQn);
 8000958:	200c      	movs	r0, #12
 800095a:	f000 ffe2 	bl	8001922 <HAL_NVIC_EnableIRQ>

}
 800095e:	bf00      	nop
 8000960:	3708      	adds	r7, #8
 8000962:	46bd      	mov	sp, r7
 8000964:	bd80      	pop	{r7, pc}
 8000966:	bf00      	nop
 8000968:	40021000 	.word	0x40021000

0800096c <MX_GPIO_Init>:
  * @brief GPIO Initialization Function
  * @param None
  * @retval None
  */
static void MX_GPIO_Init(void)
{
 800096c:	b580      	push	{r7, lr}
 800096e:	b08a      	sub	sp, #40	; 0x28
 8000970:	af00      	add	r7, sp, #0
  GPIO_InitTypeDef GPIO_InitStruct = {0};
 8000972:	f107 0314 	add.w	r3, r7, #20
 8000976:	2200      	movs	r2, #0
 8000978:	601a      	str	r2, [r3, #0]
 800097a:	605a      	str	r2, [r3, #4]
 800097c:	609a      	str	r2, [r3, #8]
 800097e:	60da      	str	r2, [r3, #12]
 8000980:	611a      	str	r2, [r3, #16]
/* USER CODE BEGIN MX_GPIO_Init_1 */
/* USER CODE END MX_GPIO_Init_1 */

  /* GPIO Ports Clock Enable */
  __HAL_RCC_GPIOC_CLK_ENABLE();
 8000982:	4b3f      	ldr	r3, [pc, #252]	; (8000a80 <MX_GPIO_Init+0x114>)
 8000984:	6cdb      	ldr	r3, [r3, #76]	; 0x4c
 8000986:	4a3e      	ldr	r2, [pc, #248]	; (8000a80 <MX_GPIO_Init+0x114>)
 8000988:	f043 0304 	orr.w	r3, r3, #4
 800098c:	64d3      	str	r3, [r2, #76]	; 0x4c
 800098e:	4b3c      	ldr	r3, [pc, #240]	; (8000a80 <MX_GPIO_Init+0x114>)
 8000990:	6cdb      	ldr	r3, [r3, #76]	; 0x4c
 8000992:	f003 0304 	and.w	r3, r3, #4
 8000996:	613b      	str	r3, [r7, #16]
 8000998:	693b      	ldr	r3, [r7, #16]
  __HAL_RCC_GPIOF_CLK_ENABLE();
 800099a:	4b39      	ldr	r3, [pc, #228]	; (8000a80 <MX_GPIO_Init+0x114>)
 800099c:	6cdb      	ldr	r3, [r3, #76]	; 0x4c
 800099e:	4a38      	ldr	r2, [pc, #224]	; (8000a80 <MX_GPIO_Init+0x114>)
 80009a0:	f043 0320 	orr.w	r3, r3, #32
 80009a4:	64d3      	str	r3, [r2, #76]	; 0x4c
 80009a6:	4b36      	ldr	r3, [pc, #216]	; (8000a80 <MX_GPIO_Init+0x114>)
 80009a8:	6cdb      	ldr	r3, [r3, #76]	; 0x4c
 80009aa:	f003 0320 	and.w	r3, r3, #32
 80009ae:	60fb      	str	r3, [r7, #12]
 80009b0:	68fb      	ldr	r3, [r7, #12]
  __HAL_RCC_GPIOA_CLK_ENABLE();
 80009b2:	4b33      	ldr	r3, [pc, #204]	; (8000a80 <MX_GPIO_Init+0x114>)
 80009b4:	6cdb      	ldr	r3, [r3, #76]	; 0x4c
 80009b6:	4a32      	ldr	r2, [pc, #200]	; (8000a80 <MX_GPIO_Init+0x114>)
 80009b8:	f043 0301 	orr.w	r3, r3, #1
 80009bc:	64d3      	str	r3, [r2, #76]	; 0x4c
 80009be:	4b30      	ldr	r3, [pc, #192]	; (8000a80 <MX_GPIO_Init+0x114>)
 80009c0:	6cdb      	ldr	r3, [r3, #76]	; 0x4c
 80009c2:	f003 0301 	and.w	r3, r3, #1
 80009c6:	60bb      	str	r3, [r7, #8]
 80009c8:	68bb      	ldr	r3, [r7, #8]
  __HAL_RCC_GPIOD_CLK_ENABLE();
 80009ca:	4b2d      	ldr	r3, [pc, #180]	; (8000a80 <MX_GPIO_Init+0x114>)
 80009cc:	6cdb      	ldr	r3, [r3, #76]	; 0x4c
 80009ce:	4a2c      	ldr	r2, [pc, #176]	; (8000a80 <MX_GPIO_Init+0x114>)
 80009d0:	f043 0308 	orr.w	r3, r3, #8
 80009d4:	64d3      	str	r3, [r2, #76]	; 0x4c
 80009d6:	4b2a      	ldr	r3, [pc, #168]	; (8000a80 <MX_GPIO_Init+0x114>)
 80009d8:	6cdb      	ldr	r3, [r3, #76]	; 0x4c
 80009da:	f003 0308 	and.w	r3, r3, #8
 80009de:	607b      	str	r3, [r7, #4]
 80009e0:	687b      	ldr	r3, [r7, #4]
  __HAL_RCC_GPIOB_CLK_ENABLE();
 80009e2:	4b27      	ldr	r3, [pc, #156]	; (8000a80 <MX_GPIO_Init+0x114>)
 80009e4:	6cdb      	ldr	r3, [r3, #76]	; 0x4c
 80009e6:	4a26      	ldr	r2, [pc, #152]	; (8000a80 <MX_GPIO_Init+0x114>)
 80009e8:	f043 0302 	orr.w	r3, r3, #2
 80009ec:	64d3      	str	r3, [r2, #76]	; 0x4c
 80009ee:	4b24      	ldr	r3, [pc, #144]	; (8000a80 <MX_GPIO_Init+0x114>)
 80009f0:	6cdb      	ldr	r3, [r3, #76]	; 0x4c
 80009f2:	f003 0302 	and.w	r3, r3, #2
 80009f6:	603b      	str	r3, [r7, #0]
 80009f8:	683b      	ldr	r3, [r7, #0]

  /*Configure GPIO pin Output Level */
  HAL_GPIO_WritePin(LD2_GPIO_Port, LD2_Pin, GPIO_PIN_RESET);
 80009fa:	2200      	movs	r2, #0
 80009fc:	2120      	movs	r1, #32
 80009fe:	f04f 4090 	mov.w	r0, #1207959552	; 0x48000000
 8000a02:	f001 fb71 	bl	80020e8 <HAL_GPIO_WritePin>

  /*Configure GPIO pin Output Level */
  HAL_GPIO_WritePin(GPIOD, GPIO_PIN_2, GPIO_PIN_RESET);
 8000a06:	2200      	movs	r2, #0
 8000a08:	2104      	movs	r1, #4
 8000a0a:	481e      	ldr	r0, [pc, #120]	; (8000a84 <MX_GPIO_Init+0x118>)
 8000a0c:	f001 fb6c 	bl	80020e8 <HAL_GPIO_WritePin>

  /*Configure GPIO pin : B1_Pin */
  GPIO_InitStruct.Pin = B1_Pin;
 8000a10:	f44f 5300 	mov.w	r3, #8192	; 0x2000
 8000a14:	617b      	str	r3, [r7, #20]
  GPIO_InitStruct.Mode = GPIO_MODE_IT_RISING;
 8000a16:	f44f 1388 	mov.w	r3, #1114112	; 0x110000
 8000a1a:	61bb      	str	r3, [r7, #24]
  GPIO_InitStruct.Pull = GPIO_NOPULL;
 8000a1c:	2300      	movs	r3, #0
 8000a1e:	61fb      	str	r3, [r7, #28]
  HAL_GPIO_Init(B1_GPIO_Port, &GPIO_InitStruct);
 8000a20:	f107 0314 	add.w	r3, r7, #20
 8000a24:	4619      	mov	r1, r3
 8000a26:	4818      	ldr	r0, [pc, #96]	; (8000a88 <MX_GPIO_Init+0x11c>)
 8000a28:	f001 f9c4 	bl	8001db4 <HAL_GPIO_Init>

  /*Configure GPIO pin : LD2_Pin */
  GPIO_InitStruct.Pin = LD2_Pin;
 8000a2c:	2320      	movs	r3, #32
 8000a2e:	617b      	str	r3, [r7, #20]
  GPIO_InitStruct.Mode = GPIO_MODE_OUTPUT_PP;
 8000a30:	2301      	movs	r3, #1
 8000a32:	61bb      	str	r3, [r7, #24]
  GPIO_InitStruct.Pull = GPIO_NOPULL;
 8000a34:	2300      	movs	r3, #0
 8000a36:	61fb      	str	r3, [r7, #28]
  GPIO_InitStruct.Speed = GPIO_SPEED_FREQ_LOW;
 8000a38:	2300      	movs	r3, #0
 8000a3a:	623b      	str	r3, [r7, #32]
  HAL_GPIO_Init(LD2_GPIO_Port, &GPIO_InitStruct);
 8000a3c:	f107 0314 	add.w	r3, r7, #20
 8000a40:	4619      	mov	r1, r3
 8000a42:	f04f 4090 	mov.w	r0, #1207959552	; 0x48000000
 8000a46:	f001 f9b5 	bl	8001db4 <HAL_GPIO_Init>

  /*Configure GPIO pin : PD2 */
  GPIO_InitStruct.Pin = GPIO_PIN_2;
 8000a4a:	2304      	movs	r3, #4
 8000a4c:	617b      	str	r3, [r7, #20]
  GPIO_InitStruct.Mode = GPIO_MODE_OUTPUT_PP;
 8000a4e:	2301      	movs	r3, #1
 8000a50:	61bb      	str	r3, [r7, #24]
  GPIO_InitStruct.Pull = GPIO_NOPULL;
 8000a52:	2300      	movs	r3, #0
 8000a54:	61fb      	str	r3, [r7, #28]
  GPIO_InitStruct.Speed = GPIO_SPEED_FREQ_LOW;
 8000a56:	2300      	movs	r3, #0
 8000a58:	623b      	str	r3, [r7, #32]
  HAL_GPIO_Init(GPIOD, &GPIO_InitStruct);
 8000a5a:	f107 0314 	add.w	r3, r7, #20
 8000a5e:	4619      	mov	r1, r3
 8000a60:	4808      	ldr	r0, [pc, #32]	; (8000a84 <MX_GPIO_Init+0x118>)
 8000a62:	f001 f9a7 	bl	8001db4 <HAL_GPIO_Init>

  /* EXTI interrupt init*/
  HAL_NVIC_SetPriority(EXTI15_10_IRQn, 0, 0);
 8000a66:	2200      	movs	r2, #0
 8000a68:	2100      	movs	r1, #0
 8000a6a:	2028      	movs	r0, #40	; 0x28
 8000a6c:	f000 ff3f 	bl	80018ee <HAL_NVIC_SetPriority>
  HAL_NVIC_EnableIRQ(EXTI15_10_IRQn);
 8000a70:	2028      	movs	r0, #40	; 0x28
 8000a72:	f000 ff56 	bl	8001922 <HAL_NVIC_EnableIRQ>

/* USER CODE BEGIN MX_GPIO_Init_2 */
/* USER CODE END MX_GPIO_Init_2 */
}
 8000a76:	bf00      	nop
 8000a78:	3728      	adds	r7, #40	; 0x28
 8000a7a:	46bd      	mov	sp, r7
 8000a7c:	bd80      	pop	{r7, pc}
 8000a7e:	bf00      	nop
 8000a80:	40021000 	.word	0x40021000
 8000a84:	48000c00 	.word	0x48000c00
 8000a88:	48000800 	.word	0x48000800

08000a8c <EEPROMReadExample>:
	HAL_I2C_Mem_Write_IT(&hi2c1, EEPROM_ADDR, 0x2C, I2C_MEMADD_SIZE_16BIT,data, 2);
		eepromExampleWriteFlag = 0;
	}
}

void EEPROMReadExample(uint8_t *Rdata, uint16_t len) {
 8000a8c:	b580      	push	{r7, lr}
 8000a8e:	b084      	sub	sp, #16
 8000a90:	af02      	add	r7, sp, #8
 8000a92:	6078      	str	r0, [r7, #4]
 8000a94:	460b      	mov	r3, r1
 8000a96:	807b      	strh	r3, [r7, #2]
	if (eepromExampleReadFlag && hi2c1.State == HAL_I2C_STATE_READY) {
 8000a98:	4b0d      	ldr	r3, [pc, #52]	; (8000ad0 <EEPROMReadExample+0x44>)
 8000a9a:	781b      	ldrb	r3, [r3, #0]
 8000a9c:	2b00      	cmp	r3, #0
 8000a9e:	d012      	beq.n	8000ac6 <EEPROMReadExample+0x3a>
 8000aa0:	4b0c      	ldr	r3, [pc, #48]	; (8000ad4 <EEPROMReadExample+0x48>)
 8000aa2:	f893 3041 	ldrb.w	r3, [r3, #65]	; 0x41
 8000aa6:	b2db      	uxtb	r3, r3
 8000aa8:	2b20      	cmp	r3, #32
 8000aaa:	d10c      	bne.n	8000ac6 <EEPROMReadExample+0x3a>
		HAL_I2C_Mem_Read_IT(&hi2c1, EEPROM_ADDR, 0x2C, I2C_MEMADD_SIZE_16BIT,Rdata, len);
 8000aac:	887b      	ldrh	r3, [r7, #2]
 8000aae:	9301      	str	r3, [sp, #4]
 8000ab0:	687b      	ldr	r3, [r7, #4]
 8000ab2:	9300      	str	r3, [sp, #0]
 8000ab4:	2302      	movs	r3, #2
 8000ab6:	222c      	movs	r2, #44	; 0x2c
 8000ab8:	21a0      	movs	r1, #160	; 0xa0
 8000aba:	4806      	ldr	r0, [pc, #24]	; (8000ad4 <EEPROMReadExample+0x48>)
 8000abc:	f001 fc74 	bl	80023a8 <HAL_I2C_Mem_Read_IT>
		eepromExampleReadFlag = 0;
 8000ac0:	4b03      	ldr	r3, [pc, #12]	; (8000ad0 <EEPROMReadExample+0x44>)
 8000ac2:	2200      	movs	r2, #0
 8000ac4:	701a      	strb	r2, [r3, #0]
	}
}
 8000ac6:	bf00      	nop
 8000ac8:	3708      	adds	r7, #8
 8000aca:	46bd      	mov	sp, r7
 8000acc:	bd80      	pop	{r7, pc}
 8000ace:	bf00      	nop
 8000ad0:	200002a9 	.word	0x200002a9
 8000ad4:	2000009c 	.word	0x2000009c

08000ad8 <SPITxRx_Setup>:


void SPITxRx_Setup() {
 8000ad8:	b580      	push	{r7, lr}
 8000ada:	af00      	add	r7, sp, #0
//CS pulse
	HAL_GPIO_WritePin(GPIOD, GPIO_PIN_2, 0); // CS Select
 8000adc:	2200      	movs	r2, #0
 8000ade:	2104      	movs	r1, #4
 8000ae0:	4807      	ldr	r0, [pc, #28]	; (8000b00 <SPITxRx_Setup+0x28>)
 8000ae2:	f001 fb01 	bl	80020e8 <HAL_GPIO_WritePin>
	HAL_Delay(1);
 8000ae6:	2001      	movs	r0, #1
 8000ae8:	f000 fe04 	bl	80016f4 <HAL_Delay>
	HAL_GPIO_WritePin(GPIOD, GPIO_PIN_2, 1); // CS deSelect
 8000aec:	2201      	movs	r2, #1
 8000aee:	2104      	movs	r1, #4
 8000af0:	4803      	ldr	r0, [pc, #12]	; (8000b00 <SPITxRx_Setup+0x28>)
 8000af2:	f001 faf9 	bl	80020e8 <HAL_GPIO_WritePin>
	HAL_Delay(1);
 8000af6:	2001      	movs	r0, #1
 8000af8:	f000 fdfc 	bl	80016f4 <HAL_Delay>
}
 8000afc:	bf00      	nop
 8000afe:	bd80      	pop	{r7, pc}
 8000b00:	48000c00 	.word	0x48000c00

08000b04 <SPITxRx_readIO>:
void SPITxRx_readIO() {
 8000b04:	b580      	push	{r7, lr}
 8000b06:	af00      	add	r7, sp, #0
	if (HAL_GPIO_ReadPin(GPIOD, GPIO_PIN_2)) {
 8000b08:	2104      	movs	r1, #4
 8000b0a:	4813      	ldr	r0, [pc, #76]	; (8000b58 <SPITxRx_readIO+0x54>)
 8000b0c:	f001 fad4 	bl	80020b8 <HAL_GPIO_ReadPin>
 8000b10:	4603      	mov	r3, r0
 8000b12:	2b00      	cmp	r3, #0
 8000b14:	d01e      	beq.n	8000b54 <SPITxRx_readIO+0x50>
		if (StateRT == 0){
 8000b16:	4b11      	ldr	r3, [pc, #68]	; (8000b5c <SPITxRx_readIO+0x58>)
 8000b18:	681b      	ldr	r3, [r3, #0]
 8000b1a:	2b00      	cmp	r3, #0
 8000b1c:	d10e      	bne.n	8000b3c <SPITxRx_readIO+0x38>
		HAL_GPIO_WritePin(GPIOD, GPIO_PIN_2, 0); // CS Select
 8000b1e:	2200      	movs	r2, #0
 8000b20:	2104      	movs	r1, #4
 8000b22:	480d      	ldr	r0, [pc, #52]	; (8000b58 <SPITxRx_readIO+0x54>)
 8000b24:	f001 fae0 	bl	80020e8 <HAL_GPIO_WritePin>
		SPITx[0] = 0b01000001; //what to do receive or transmit (1 == receive)
 8000b28:	4b0d      	ldr	r3, [pc, #52]	; (8000b60 <SPITxRx_readIO+0x5c>)
 8000b2a:	2241      	movs	r2, #65	; 0x41
 8000b2c:	701a      	strb	r2, [r3, #0]
		SPITx[1] = 0x12; //address
 8000b2e:	4b0c      	ldr	r3, [pc, #48]	; (8000b60 <SPITxRx_readIO+0x5c>)
 8000b30:	2212      	movs	r2, #18
 8000b32:	705a      	strb	r2, [r3, #1]
		SPITx[2] = 0;
 8000b34:	4b0a      	ldr	r3, [pc, #40]	; (8000b60 <SPITxRx_readIO+0x5c>)
 8000b36:	2200      	movs	r2, #0
 8000b38:	709a      	strb	r2, [r3, #2]
 8000b3a:	e005      	b.n	8000b48 <SPITxRx_readIO+0x44>
		}
		else if (StateRT == 1){
 8000b3c:	4b07      	ldr	r3, [pc, #28]	; (8000b5c <SPITxRx_readIO+0x58>)
 8000b3e:	681b      	ldr	r3, [r3, #0]
 8000b40:	2b01      	cmp	r3, #1
 8000b42:	d101      	bne.n	8000b48 <SPITxRx_readIO+0x44>
			LED();
 8000b44:	f000 fa1e 	bl	8000f84 <LED>
		}
		HAL_SPI_TransmitReceive_IT(&hspi3, SPITx, SPIRx, 3);
 8000b48:	2303      	movs	r3, #3
 8000b4a:	4a06      	ldr	r2, [pc, #24]	; (8000b64 <SPITxRx_readIO+0x60>)
 8000b4c:	4904      	ldr	r1, [pc, #16]	; (8000b60 <SPITxRx_readIO+0x5c>)
 8000b4e:	4806      	ldr	r0, [pc, #24]	; (8000b68 <SPITxRx_readIO+0x64>)
 8000b50:	f004 fa14 	bl	8004f7c <HAL_SPI_TransmitReceive_IT>
	}
}
 8000b54:	bf00      	nop
 8000b56:	bd80      	pop	{r7, pc}
 8000b58:	48000c00 	.word	0x48000c00
 8000b5c:	20000308 	.word	0x20000308
 8000b60:	200002bc 	.word	0x200002bc
 8000b64:	200002b0 	.word	0x200002b0
 8000b68:	20000244 	.word	0x20000244

08000b6c <HAL_SPI_TxRxCpltCallback>:
	SPITx[1] = 0x01;//IODIRB
	SPITx[2] = 0b00000000;
	HAL_SPI_TransmitReceive_IT(&hspi3, SPITx, SPIRx, 3);
}

void HAL_SPI_TxRxCpltCallback(SPI_HandleTypeDef *hspi) {
 8000b6c:	b580      	push	{r7, lr}
 8000b6e:	b082      	sub	sp, #8
 8000b70:	af00      	add	r7, sp, #0
 8000b72:	6078      	str	r0, [r7, #4]
	StateRT+=1;
 8000b74:	4b0a      	ldr	r3, [pc, #40]	; (8000ba0 <HAL_SPI_TxRxCpltCallback+0x34>)
 8000b76:	681b      	ldr	r3, [r3, #0]
 8000b78:	3301      	adds	r3, #1
 8000b7a:	4a09      	ldr	r2, [pc, #36]	; (8000ba0 <HAL_SPI_TxRxCpltCallback+0x34>)
 8000b7c:	6013      	str	r3, [r2, #0]
		if (StateRT>1)
 8000b7e:	4b08      	ldr	r3, [pc, #32]	; (8000ba0 <HAL_SPI_TxRxCpltCallback+0x34>)
 8000b80:	681b      	ldr	r3, [r3, #0]
 8000b82:	2b01      	cmp	r3, #1
 8000b84:	dd02      	ble.n	8000b8c <HAL_SPI_TxRxCpltCallback+0x20>
		{
			StateRT = 0;
 8000b86:	4b06      	ldr	r3, [pc, #24]	; (8000ba0 <HAL_SPI_TxRxCpltCallback+0x34>)
 8000b88:	2200      	movs	r2, #0
 8000b8a:	601a      	str	r2, [r3, #0]
		}
	HAL_GPIO_WritePin(GPIOD, GPIO_PIN_2, 1); //CS dnSelect
 8000b8c:	2201      	movs	r2, #1
 8000b8e:	2104      	movs	r1, #4
 8000b90:	4804      	ldr	r0, [pc, #16]	; (8000ba4 <HAL_SPI_TxRxCpltCallback+0x38>)
 8000b92:	f001 faa9 	bl	80020e8 <HAL_GPIO_WritePin>
}
 8000b96:	bf00      	nop
 8000b98:	3708      	adds	r7, #8
 8000b9a:	46bd      	mov	sp, r7
 8000b9c:	bd80      	pop	{r7, pc}
 8000b9e:	bf00      	nop
 8000ba0:	20000308 	.word	0x20000308
 8000ba4:	48000c00 	.word	0x48000c00

08000ba8 <Switch>:


void Switch()
{
 8000ba8:	b580      	push	{r7, lr}
 8000baa:	af00      	add	r7, sp, #0
	if (SPIRx[2] == 15){
 8000bac:	4b54      	ldr	r3, [pc, #336]	; (8000d00 <Switch+0x158>)
 8000bae:	789b      	ldrb	r3, [r3, #2]
 8000bb0:	2b0f      	cmp	r3, #15
 8000bb2:	d102      	bne.n	8000bba <Switch+0x12>
		click = 0;
 8000bb4:	4b53      	ldr	r3, [pc, #332]	; (8000d04 <Switch+0x15c>)
 8000bb6:	2200      	movs	r2, #0
 8000bb8:	601a      	str	r2, [r3, #0]
	}
		if (click == 0) {
 8000bba:	4b52      	ldr	r3, [pc, #328]	; (8000d04 <Switch+0x15c>)
 8000bbc:	681b      	ldr	r3, [r3, #0]
 8000bbe:	2b00      	cmp	r3, #0
 8000bc0:	f040 809b 	bne.w	8000cfa <Switch+0x152>
			if (SPIRx[2] == 7) // Button 1 pressed (0000 0001) P1 hit
 8000bc4:	4b4e      	ldr	r3, [pc, #312]	; (8000d00 <Switch+0x158>)
 8000bc6:	789b      	ldrb	r3, [r3, #2]
 8000bc8:	2b07      	cmp	r3, #7
 8000bca:	d139      	bne.n	8000c40 <Switch+0x98>
					{
				if (Round1 == 1) {
 8000bcc:	4b4e      	ldr	r3, [pc, #312]	; (8000d08 <Switch+0x160>)
 8000bce:	681b      	ldr	r3, [r3, #0]
 8000bd0:	2b01      	cmp	r3, #1
 8000bd2:	d10f      	bne.n	8000bf4 <Switch+0x4c>
					click = 1;
 8000bd4:	4b4b      	ldr	r3, [pc, #300]	; (8000d04 <Switch+0x15c>)
 8000bd6:	2201      	movs	r2, #1
 8000bd8:	601a      	str	r2, [r3, #0]
					ScorePlayer1 += RandomNum1_1; // Random the number
 8000bda:	4b4c      	ldr	r3, [pc, #304]	; (8000d0c <Switch+0x164>)
 8000bdc:	681a      	ldr	r2, [r3, #0]
 8000bde:	4b4c      	ldr	r3, [pc, #304]	; (8000d10 <Switch+0x168>)
 8000be0:	681b      	ldr	r3, [r3, #0]
 8000be2:	4413      	add	r3, r2
 8000be4:	4a49      	ldr	r2, [pc, #292]	; (8000d0c <Switch+0x164>)
 8000be6:	6013      	str	r3, [r2, #0]
					Round1 += 1;
 8000be8:	4b47      	ldr	r3, [pc, #284]	; (8000d08 <Switch+0x160>)
 8000bea:	681b      	ldr	r3, [r3, #0]
 8000bec:	3301      	adds	r3, #1
 8000bee:	4a46      	ldr	r2, [pc, #280]	; (8000d08 <Switch+0x160>)
 8000bf0:	6013      	str	r3, [r2, #0]
				eepromExampleReadFlag = 1;
				EEPROMReadExample(eepromDataReadBack, 2);

		}
	}
}
 8000bf2:	e082      	b.n	8000cfa <Switch+0x152>
				} else if (Round1 == 2) {
 8000bf4:	4b44      	ldr	r3, [pc, #272]	; (8000d08 <Switch+0x160>)
 8000bf6:	681b      	ldr	r3, [r3, #0]
 8000bf8:	2b02      	cmp	r3, #2
 8000bfa:	d10f      	bne.n	8000c1c <Switch+0x74>
					click = 1;
 8000bfc:	4b41      	ldr	r3, [pc, #260]	; (8000d04 <Switch+0x15c>)
 8000bfe:	2201      	movs	r2, #1
 8000c00:	601a      	str	r2, [r3, #0]
					ScorePlayer1 += RandomNum1_2; // Random the number
 8000c02:	4b42      	ldr	r3, [pc, #264]	; (8000d0c <Switch+0x164>)
 8000c04:	681a      	ldr	r2, [r3, #0]
 8000c06:	4b43      	ldr	r3, [pc, #268]	; (8000d14 <Switch+0x16c>)
 8000c08:	681b      	ldr	r3, [r3, #0]
 8000c0a:	4413      	add	r3, r2
 8000c0c:	4a3f      	ldr	r2, [pc, #252]	; (8000d0c <Switch+0x164>)
 8000c0e:	6013      	str	r3, [r2, #0]
					Round1 += 1;
 8000c10:	4b3d      	ldr	r3, [pc, #244]	; (8000d08 <Switch+0x160>)
 8000c12:	681b      	ldr	r3, [r3, #0]
 8000c14:	3301      	adds	r3, #1
 8000c16:	4a3c      	ldr	r2, [pc, #240]	; (8000d08 <Switch+0x160>)
 8000c18:	6013      	str	r3, [r2, #0]
}
 8000c1a:	e06e      	b.n	8000cfa <Switch+0x152>
				} else if (Round1 == 3) {
 8000c1c:	4b3a      	ldr	r3, [pc, #232]	; (8000d08 <Switch+0x160>)
 8000c1e:	681b      	ldr	r3, [r3, #0]
 8000c20:	2b03      	cmp	r3, #3
 8000c22:	d16a      	bne.n	8000cfa <Switch+0x152>
					click = 1;
 8000c24:	4b37      	ldr	r3, [pc, #220]	; (8000d04 <Switch+0x15c>)
 8000c26:	2201      	movs	r2, #1
 8000c28:	601a      	str	r2, [r3, #0]
					ScorePlayer1 += RandomNum1_3; // Random the number
 8000c2a:	4b38      	ldr	r3, [pc, #224]	; (8000d0c <Switch+0x164>)
 8000c2c:	681a      	ldr	r2, [r3, #0]
 8000c2e:	4b3a      	ldr	r3, [pc, #232]	; (8000d18 <Switch+0x170>)
 8000c30:	681b      	ldr	r3, [r3, #0]
 8000c32:	4413      	add	r3, r2
 8000c34:	4a35      	ldr	r2, [pc, #212]	; (8000d0c <Switch+0x164>)
 8000c36:	6013      	str	r3, [r2, #0]
					Round1 = 4;
 8000c38:	4b33      	ldr	r3, [pc, #204]	; (8000d08 <Switch+0x160>)
 8000c3a:	2204      	movs	r2, #4
 8000c3c:	601a      	str	r2, [r3, #0]
}
 8000c3e:	e05c      	b.n	8000cfa <Switch+0x152>
			} else if (SPIRx[2] == 11) // Button 2 pressed (0000 0010) P1 stand
 8000c40:	4b2f      	ldr	r3, [pc, #188]	; (8000d00 <Switch+0x158>)
 8000c42:	789b      	ldrb	r3, [r3, #2]
 8000c44:	2b0b      	cmp	r3, #11
 8000c46:	d109      	bne.n	8000c5c <Switch+0xb4>
				click = 1;
 8000c48:	4b2e      	ldr	r3, [pc, #184]	; (8000d04 <Switch+0x15c>)
 8000c4a:	2201      	movs	r2, #1
 8000c4c:	601a      	str	r2, [r3, #0]
				P1Finish = 1;
 8000c4e:	4b33      	ldr	r3, [pc, #204]	; (8000d1c <Switch+0x174>)
 8000c50:	2201      	movs	r2, #1
 8000c52:	601a      	str	r2, [r3, #0]
				P2Finish = 1;
 8000c54:	4b32      	ldr	r3, [pc, #200]	; (8000d20 <Switch+0x178>)
 8000c56:	2201      	movs	r2, #1
 8000c58:	601a      	str	r2, [r3, #0]
}
 8000c5a:	e04e      	b.n	8000cfa <Switch+0x152>
			} else if (SPIRx[2] == 13) // Button 3 pressed (0000 0100) P2 hit
 8000c5c:	4b28      	ldr	r3, [pc, #160]	; (8000d00 <Switch+0x158>)
 8000c5e:	789b      	ldrb	r3, [r3, #2]
 8000c60:	2b0d      	cmp	r3, #13
 8000c62:	d139      	bne.n	8000cd8 <Switch+0x130>
				if (Round2 == 1) {
 8000c64:	4b2f      	ldr	r3, [pc, #188]	; (8000d24 <Switch+0x17c>)
 8000c66:	681b      	ldr	r3, [r3, #0]
 8000c68:	2b01      	cmp	r3, #1
 8000c6a:	d10f      	bne.n	8000c8c <Switch+0xe4>
					click = 1;
 8000c6c:	4b25      	ldr	r3, [pc, #148]	; (8000d04 <Switch+0x15c>)
 8000c6e:	2201      	movs	r2, #1
 8000c70:	601a      	str	r2, [r3, #0]
					ScorePlayer2 += RandomNum2_1; // Random the number
 8000c72:	4b2d      	ldr	r3, [pc, #180]	; (8000d28 <Switch+0x180>)
 8000c74:	681a      	ldr	r2, [r3, #0]
 8000c76:	4b2d      	ldr	r3, [pc, #180]	; (8000d2c <Switch+0x184>)
 8000c78:	681b      	ldr	r3, [r3, #0]
 8000c7a:	4413      	add	r3, r2
 8000c7c:	4a2a      	ldr	r2, [pc, #168]	; (8000d28 <Switch+0x180>)
 8000c7e:	6013      	str	r3, [r2, #0]
					Round2 += 1;
 8000c80:	4b28      	ldr	r3, [pc, #160]	; (8000d24 <Switch+0x17c>)
 8000c82:	681b      	ldr	r3, [r3, #0]
 8000c84:	3301      	adds	r3, #1
 8000c86:	4a27      	ldr	r2, [pc, #156]	; (8000d24 <Switch+0x17c>)
 8000c88:	6013      	str	r3, [r2, #0]
}
 8000c8a:	e036      	b.n	8000cfa <Switch+0x152>
				} else if (Round2 == 2) {
 8000c8c:	4b25      	ldr	r3, [pc, #148]	; (8000d24 <Switch+0x17c>)
 8000c8e:	681b      	ldr	r3, [r3, #0]
 8000c90:	2b02      	cmp	r3, #2
 8000c92:	d10f      	bne.n	8000cb4 <Switch+0x10c>
					click = 1;
 8000c94:	4b1b      	ldr	r3, [pc, #108]	; (8000d04 <Switch+0x15c>)
 8000c96:	2201      	movs	r2, #1
 8000c98:	601a      	str	r2, [r3, #0]
					ScorePlayer2 += RandomNum2_2; // Random the number
 8000c9a:	4b23      	ldr	r3, [pc, #140]	; (8000d28 <Switch+0x180>)
 8000c9c:	681a      	ldr	r2, [r3, #0]
 8000c9e:	4b24      	ldr	r3, [pc, #144]	; (8000d30 <Switch+0x188>)
 8000ca0:	681b      	ldr	r3, [r3, #0]
 8000ca2:	4413      	add	r3, r2
 8000ca4:	4a20      	ldr	r2, [pc, #128]	; (8000d28 <Switch+0x180>)
 8000ca6:	6013      	str	r3, [r2, #0]
					Round2 += 1;
 8000ca8:	4b1e      	ldr	r3, [pc, #120]	; (8000d24 <Switch+0x17c>)
 8000caa:	681b      	ldr	r3, [r3, #0]
 8000cac:	3301      	adds	r3, #1
 8000cae:	4a1d      	ldr	r2, [pc, #116]	; (8000d24 <Switch+0x17c>)
 8000cb0:	6013      	str	r3, [r2, #0]
}
 8000cb2:	e022      	b.n	8000cfa <Switch+0x152>
				} else if (Round2 == 3) {
 8000cb4:	4b1b      	ldr	r3, [pc, #108]	; (8000d24 <Switch+0x17c>)
 8000cb6:	681b      	ldr	r3, [r3, #0]
 8000cb8:	2b03      	cmp	r3, #3
 8000cba:	d11e      	bne.n	8000cfa <Switch+0x152>
					click = 1;
 8000cbc:	4b11      	ldr	r3, [pc, #68]	; (8000d04 <Switch+0x15c>)
 8000cbe:	2201      	movs	r2, #1
 8000cc0:	601a      	str	r2, [r3, #0]
					ScorePlayer2 += RandomNum2_3; // Random the number
 8000cc2:	4b19      	ldr	r3, [pc, #100]	; (8000d28 <Switch+0x180>)
 8000cc4:	681a      	ldr	r2, [r3, #0]
 8000cc6:	4b1b      	ldr	r3, [pc, #108]	; (8000d34 <Switch+0x18c>)
 8000cc8:	681b      	ldr	r3, [r3, #0]
 8000cca:	4413      	add	r3, r2
 8000ccc:	4a16      	ldr	r2, [pc, #88]	; (8000d28 <Switch+0x180>)
 8000cce:	6013      	str	r3, [r2, #0]
					Round2 = 4;
 8000cd0:	4b14      	ldr	r3, [pc, #80]	; (8000d24 <Switch+0x17c>)
 8000cd2:	2204      	movs	r2, #4
 8000cd4:	601a      	str	r2, [r3, #0]
}
 8000cd6:	e010      	b.n	8000cfa <Switch+0x152>
			} else if (SPIRx[2] == 14) // Button 4 pressed (0000 1000) P2 stand
 8000cd8:	4b09      	ldr	r3, [pc, #36]	; (8000d00 <Switch+0x158>)
 8000cda:	789b      	ldrb	r3, [r3, #2]
 8000cdc:	2b0e      	cmp	r3, #14
 8000cde:	d10c      	bne.n	8000cfa <Switch+0x152>
				click = 1;
 8000ce0:	4b08      	ldr	r3, [pc, #32]	; (8000d04 <Switch+0x15c>)
 8000ce2:	2201      	movs	r2, #1
 8000ce4:	601a      	str	r2, [r3, #0]
				eepromExampleWriteFlag = 1;
 8000ce6:	4b14      	ldr	r3, [pc, #80]	; (8000d38 <Switch+0x190>)
 8000ce8:	2201      	movs	r2, #1
 8000cea:	701a      	strb	r2, [r3, #0]
				eepromExampleReadFlag = 1;
 8000cec:	4b13      	ldr	r3, [pc, #76]	; (8000d3c <Switch+0x194>)
 8000cee:	2201      	movs	r2, #1
 8000cf0:	701a      	strb	r2, [r3, #0]
				EEPROMReadExample(eepromDataReadBack, 2);
 8000cf2:	2102      	movs	r1, #2
 8000cf4:	4812      	ldr	r0, [pc, #72]	; (8000d40 <Switch+0x198>)
 8000cf6:	f7ff fec9 	bl	8000a8c <EEPROMReadExample>
}
 8000cfa:	bf00      	nop
 8000cfc:	bd80      	pop	{r7, pc}
 8000cfe:	bf00      	nop
 8000d00:	200002b0 	.word	0x200002b0
 8000d04:	200002e4 	.word	0x200002e4
 8000d08:	20000300 	.word	0x20000300
 8000d0c:	200002d4 	.word	0x200002d4
 8000d10:	200002e8 	.word	0x200002e8
 8000d14:	200002f0 	.word	0x200002f0
 8000d18:	200002f8 	.word	0x200002f8
 8000d1c:	200002dc 	.word	0x200002dc
 8000d20:	200002e0 	.word	0x200002e0
 8000d24:	20000304 	.word	0x20000304
 8000d28:	200002d8 	.word	0x200002d8
 8000d2c:	200002ec 	.word	0x200002ec
 8000d30:	200002f4 	.word	0x200002f4
 8000d34:	200002fc 	.word	0x200002fc
 8000d38:	200002a8 	.word	0x200002a8
 8000d3c:	200002a9 	.word	0x200002a9
 8000d40:	200002ac 	.word	0x200002ac

08000d44 <StateGame>:


void StateGame(){
 8000d44:	b580      	push	{r7, lr}
 8000d46:	b082      	sub	sp, #8
 8000d48:	af02      	add	r7, sp, #8
	if (P1Finish == 1 && P2Finish == 1){
 8000d4a:	4b7f      	ldr	r3, [pc, #508]	; (8000f48 <StateGame+0x204>)
 8000d4c:	681b      	ldr	r3, [r3, #0]
 8000d4e:	2b01      	cmp	r3, #1
 8000d50:	f040 80f6 	bne.w	8000f40 <StateGame+0x1fc>
 8000d54:	4b7d      	ldr	r3, [pc, #500]	; (8000f4c <StateGame+0x208>)
 8000d56:	681b      	ldr	r3, [r3, #0]
 8000d58:	2b01      	cmp	r3, #1
 8000d5a:	f040 80f1 	bne.w	8000f40 <StateGame+0x1fc>
		TotalScorePlayer1 = ScorePlayer1 ;
 8000d5e:	4b7c      	ldr	r3, [pc, #496]	; (8000f50 <StateGame+0x20c>)
 8000d60:	681b      	ldr	r3, [r3, #0]
 8000d62:	4a7c      	ldr	r2, [pc, #496]	; (8000f54 <StateGame+0x210>)
 8000d64:	6013      	str	r3, [r2, #0]
		TotalScorePlayer2 = ScorePlayer2 ;
 8000d66:	4b7c      	ldr	r3, [pc, #496]	; (8000f58 <StateGame+0x214>)
 8000d68:	681b      	ldr	r3, [r3, #0]
 8000d6a:	4a7c      	ldr	r2, [pc, #496]	; (8000f5c <StateGame+0x218>)
 8000d6c:	6013      	str	r3, [r2, #0]
		if (TotalScorePlayer1 == TotalScorePlayer2) {
 8000d6e:	4b79      	ldr	r3, [pc, #484]	; (8000f54 <StateGame+0x210>)
 8000d70:	681a      	ldr	r2, [r3, #0]
 8000d72:	4b7a      	ldr	r3, [pc, #488]	; (8000f5c <StateGame+0x218>)
 8000d74:	681b      	ldr	r3, [r3, #0]
 8000d76:	429a      	cmp	r2, r3
 8000d78:	d11c      	bne.n	8000db4 <StateGame+0x70>
				State = 3; //Tie
 8000d7a:	4b79      	ldr	r3, [pc, #484]	; (8000f60 <StateGame+0x21c>)
 8000d7c:	2203      	movs	r2, #3
 8000d7e:	601a      	str	r2, [r3, #0]
			if (eepromExampleWriteFlag && hi2c1.State == HAL_I2C_STATE_READY) {
 8000d80:	4b78      	ldr	r3, [pc, #480]	; (8000f64 <StateGame+0x220>)
 8000d82:	781b      	ldrb	r3, [r3, #0]
 8000d84:	2b00      	cmp	r3, #0
 8000d86:	f000 80db 	beq.w	8000f40 <StateGame+0x1fc>
 8000d8a:	4b77      	ldr	r3, [pc, #476]	; (8000f68 <StateGame+0x224>)
 8000d8c:	f893 3041 	ldrb.w	r3, [r3, #65]	; 0x41
 8000d90:	b2db      	uxtb	r3, r3
 8000d92:	2b20      	cmp	r3, #32
 8000d94:	f040 80d4 	bne.w	8000f40 <StateGame+0x1fc>
				static uint8_t data[2] = { 0x50, 0x54 };
				HAL_I2C_Mem_Write_IT(&hi2c1, EEPROM_ADDR, 0x2C,
 8000d98:	2302      	movs	r3, #2
 8000d9a:	9301      	str	r3, [sp, #4]
 8000d9c:	4b73      	ldr	r3, [pc, #460]	; (8000f6c <StateGame+0x228>)
 8000d9e:	9300      	str	r3, [sp, #0]
 8000da0:	2302      	movs	r3, #2
 8000da2:	222c      	movs	r2, #44	; 0x2c
 8000da4:	21a0      	movs	r1, #160	; 0xa0
 8000da6:	4870      	ldr	r0, [pc, #448]	; (8000f68 <StateGame+0x224>)
 8000da8:	f001 fa74 	bl	8002294 <HAL_I2C_Mem_Write_IT>
						I2C_MEMADD_SIZE_16BIT, data, 2);
				eepromExampleWriteFlag = 0;
 8000dac:	4b6d      	ldr	r3, [pc, #436]	; (8000f64 <StateGame+0x220>)
 8000dae:	2200      	movs	r2, #0
 8000db0:	701a      	strb	r2, [r3, #0]
						eepromExampleWriteFlag = 0;
					}
				}

	}
}
 8000db2:	e0c5      	b.n	8000f40 <StateGame+0x1fc>
		else if (TotalScorePlayer1 > 21 && TotalScorePlayer2 > 21) {
 8000db4:	4b67      	ldr	r3, [pc, #412]	; (8000f54 <StateGame+0x210>)
 8000db6:	681b      	ldr	r3, [r3, #0]
 8000db8:	2b15      	cmp	r3, #21
 8000dba:	dd20      	ble.n	8000dfe <StateGame+0xba>
 8000dbc:	4b67      	ldr	r3, [pc, #412]	; (8000f5c <StateGame+0x218>)
 8000dbe:	681b      	ldr	r3, [r3, #0]
 8000dc0:	2b15      	cmp	r3, #21
 8000dc2:	dd1c      	ble.n	8000dfe <StateGame+0xba>
				State = 3; //Tie
 8000dc4:	4b66      	ldr	r3, [pc, #408]	; (8000f60 <StateGame+0x21c>)
 8000dc6:	2203      	movs	r2, #3
 8000dc8:	601a      	str	r2, [r3, #0]
			if (eepromExampleWriteFlag && hi2c1.State == HAL_I2C_STATE_READY) {
 8000dca:	4b66      	ldr	r3, [pc, #408]	; (8000f64 <StateGame+0x220>)
 8000dcc:	781b      	ldrb	r3, [r3, #0]
 8000dce:	2b00      	cmp	r3, #0
 8000dd0:	f000 80af 	beq.w	8000f32 <StateGame+0x1ee>
 8000dd4:	4b64      	ldr	r3, [pc, #400]	; (8000f68 <StateGame+0x224>)
 8000dd6:	f893 3041 	ldrb.w	r3, [r3, #65]	; 0x41
 8000dda:	b2db      	uxtb	r3, r3
 8000ddc:	2b20      	cmp	r3, #32
 8000dde:	f040 80a8 	bne.w	8000f32 <StateGame+0x1ee>
				HAL_I2C_Mem_Write_IT(&hi2c1, EEPROM_ADDR, 0x2C,
 8000de2:	2302      	movs	r3, #2
 8000de4:	9301      	str	r3, [sp, #4]
 8000de6:	4b62      	ldr	r3, [pc, #392]	; (8000f70 <StateGame+0x22c>)
 8000de8:	9300      	str	r3, [sp, #0]
 8000dea:	2302      	movs	r3, #2
 8000dec:	222c      	movs	r2, #44	; 0x2c
 8000dee:	21a0      	movs	r1, #160	; 0xa0
 8000df0:	485d      	ldr	r0, [pc, #372]	; (8000f68 <StateGame+0x224>)
 8000df2:	f001 fa4f 	bl	8002294 <HAL_I2C_Mem_Write_IT>
				eepromExampleWriteFlag = 0;
 8000df6:	4b5b      	ldr	r3, [pc, #364]	; (8000f64 <StateGame+0x220>)
 8000df8:	2200      	movs	r2, #0
 8000dfa:	701a      	strb	r2, [r3, #0]
			if (eepromExampleWriteFlag && hi2c1.State == HAL_I2C_STATE_READY) {
 8000dfc:	e099      	b.n	8000f32 <StateGame+0x1ee>
		else if (TotalScorePlayer1 > TotalScorePlayer2 && TotalScorePlayer1 <= 21) {
 8000dfe:	4b55      	ldr	r3, [pc, #340]	; (8000f54 <StateGame+0x210>)
 8000e00:	681a      	ldr	r2, [r3, #0]
 8000e02:	4b56      	ldr	r3, [pc, #344]	; (8000f5c <StateGame+0x218>)
 8000e04:	681b      	ldr	r3, [r3, #0]
 8000e06:	429a      	cmp	r2, r3
 8000e08:	dd20      	ble.n	8000e4c <StateGame+0x108>
 8000e0a:	4b52      	ldr	r3, [pc, #328]	; (8000f54 <StateGame+0x210>)
 8000e0c:	681b      	ldr	r3, [r3, #0]
 8000e0e:	2b15      	cmp	r3, #21
 8000e10:	dc1c      	bgt.n	8000e4c <StateGame+0x108>
				State = 1; //Player1Win
 8000e12:	4b53      	ldr	r3, [pc, #332]	; (8000f60 <StateGame+0x21c>)
 8000e14:	2201      	movs	r2, #1
 8000e16:	601a      	str	r2, [r3, #0]
				if (eepromExampleWriteFlag
 8000e18:	4b52      	ldr	r3, [pc, #328]	; (8000f64 <StateGame+0x220>)
 8000e1a:	781b      	ldrb	r3, [r3, #0]
 8000e1c:	2b00      	cmp	r3, #0
 8000e1e:	f000 808a 	beq.w	8000f36 <StateGame+0x1f2>
						&& hi2c1.State == HAL_I2C_STATE_READY) {
 8000e22:	4b51      	ldr	r3, [pc, #324]	; (8000f68 <StateGame+0x224>)
 8000e24:	f893 3041 	ldrb.w	r3, [r3, #65]	; 0x41
 8000e28:	b2db      	uxtb	r3, r3
 8000e2a:	2b20      	cmp	r3, #32
 8000e2c:	f040 8083 	bne.w	8000f36 <StateGame+0x1f2>
					HAL_I2C_Mem_Write_IT(&hi2c1, EEPROM_ADDR, 0x2C,
 8000e30:	2302      	movs	r3, #2
 8000e32:	9301      	str	r3, [sp, #4]
 8000e34:	4b4f      	ldr	r3, [pc, #316]	; (8000f74 <StateGame+0x230>)
 8000e36:	9300      	str	r3, [sp, #0]
 8000e38:	2302      	movs	r3, #2
 8000e3a:	222c      	movs	r2, #44	; 0x2c
 8000e3c:	21a0      	movs	r1, #160	; 0xa0
 8000e3e:	484a      	ldr	r0, [pc, #296]	; (8000f68 <StateGame+0x224>)
 8000e40:	f001 fa28 	bl	8002294 <HAL_I2C_Mem_Write_IT>
					eepromExampleWriteFlag = 0;
 8000e44:	4b47      	ldr	r3, [pc, #284]	; (8000f64 <StateGame+0x220>)
 8000e46:	2200      	movs	r2, #0
 8000e48:	701a      	strb	r2, [r3, #0]
				if (eepromExampleWriteFlag
 8000e4a:	e074      	b.n	8000f36 <StateGame+0x1f2>
		else if (TotalScorePlayer2 > TotalScorePlayer1 && TotalScorePlayer2 <= 21) {
 8000e4c:	4b43      	ldr	r3, [pc, #268]	; (8000f5c <StateGame+0x218>)
 8000e4e:	681a      	ldr	r2, [r3, #0]
 8000e50:	4b40      	ldr	r3, [pc, #256]	; (8000f54 <StateGame+0x210>)
 8000e52:	681b      	ldr	r3, [r3, #0]
 8000e54:	429a      	cmp	r2, r3
 8000e56:	dd1e      	ble.n	8000e96 <StateGame+0x152>
 8000e58:	4b40      	ldr	r3, [pc, #256]	; (8000f5c <StateGame+0x218>)
 8000e5a:	681b      	ldr	r3, [r3, #0]
 8000e5c:	2b15      	cmp	r3, #21
 8000e5e:	dc1a      	bgt.n	8000e96 <StateGame+0x152>
				State = 2; //Player2Win
 8000e60:	4b3f      	ldr	r3, [pc, #252]	; (8000f60 <StateGame+0x21c>)
 8000e62:	2202      	movs	r2, #2
 8000e64:	601a      	str	r2, [r3, #0]
					if (eepromExampleWriteFlag
 8000e66:	4b3f      	ldr	r3, [pc, #252]	; (8000f64 <StateGame+0x220>)
 8000e68:	781b      	ldrb	r3, [r3, #0]
 8000e6a:	2b00      	cmp	r3, #0
 8000e6c:	d065      	beq.n	8000f3a <StateGame+0x1f6>
							&& hi2c1.State == HAL_I2C_STATE_READY) {
 8000e6e:	4b3e      	ldr	r3, [pc, #248]	; (8000f68 <StateGame+0x224>)
 8000e70:	f893 3041 	ldrb.w	r3, [r3, #65]	; 0x41
 8000e74:	b2db      	uxtb	r3, r3
 8000e76:	2b20      	cmp	r3, #32
 8000e78:	d15f      	bne.n	8000f3a <StateGame+0x1f6>
						HAL_I2C_Mem_Write_IT(&hi2c1, EEPROM_ADDR, 0x2C,
 8000e7a:	2302      	movs	r3, #2
 8000e7c:	9301      	str	r3, [sp, #4]
 8000e7e:	4b3e      	ldr	r3, [pc, #248]	; (8000f78 <StateGame+0x234>)
 8000e80:	9300      	str	r3, [sp, #0]
 8000e82:	2302      	movs	r3, #2
 8000e84:	222c      	movs	r2, #44	; 0x2c
 8000e86:	21a0      	movs	r1, #160	; 0xa0
 8000e88:	4837      	ldr	r0, [pc, #220]	; (8000f68 <StateGame+0x224>)
 8000e8a:	f001 fa03 	bl	8002294 <HAL_I2C_Mem_Write_IT>
						eepromExampleWriteFlag = 0;
 8000e8e:	4b35      	ldr	r3, [pc, #212]	; (8000f64 <StateGame+0x220>)
 8000e90:	2200      	movs	r2, #0
 8000e92:	701a      	strb	r2, [r3, #0]
					if (eepromExampleWriteFlag
 8000e94:	e051      	b.n	8000f3a <StateGame+0x1f6>
		else if (TotalScorePlayer2 >21 && TotalScorePlayer1 < 21 || TotalScorePlayer1 == 21  ) {
 8000e96:	4b31      	ldr	r3, [pc, #196]	; (8000f5c <StateGame+0x218>)
 8000e98:	681b      	ldr	r3, [r3, #0]
 8000e9a:	2b15      	cmp	r3, #21
 8000e9c:	dd03      	ble.n	8000ea6 <StateGame+0x162>
 8000e9e:	4b2d      	ldr	r3, [pc, #180]	; (8000f54 <StateGame+0x210>)
 8000ea0:	681b      	ldr	r3, [r3, #0]
 8000ea2:	2b14      	cmp	r3, #20
 8000ea4:	dd03      	ble.n	8000eae <StateGame+0x16a>
 8000ea6:	4b2b      	ldr	r3, [pc, #172]	; (8000f54 <StateGame+0x210>)
 8000ea8:	681b      	ldr	r3, [r3, #0]
 8000eaa:	2b15      	cmp	r3, #21
 8000eac:	d11a      	bne.n	8000ee4 <StateGame+0x1a0>
				State = 1; //Player1Win
 8000eae:	4b2c      	ldr	r3, [pc, #176]	; (8000f60 <StateGame+0x21c>)
 8000eb0:	2201      	movs	r2, #1
 8000eb2:	601a      	str	r2, [r3, #0]
					if (eepromExampleWriteFlag
 8000eb4:	4b2b      	ldr	r3, [pc, #172]	; (8000f64 <StateGame+0x220>)
 8000eb6:	781b      	ldrb	r3, [r3, #0]
 8000eb8:	2b00      	cmp	r3, #0
 8000eba:	d040      	beq.n	8000f3e <StateGame+0x1fa>
							&& hi2c1.State == HAL_I2C_STATE_READY) {
 8000ebc:	4b2a      	ldr	r3, [pc, #168]	; (8000f68 <StateGame+0x224>)
 8000ebe:	f893 3041 	ldrb.w	r3, [r3, #65]	; 0x41
 8000ec2:	b2db      	uxtb	r3, r3
 8000ec4:	2b20      	cmp	r3, #32
 8000ec6:	d13a      	bne.n	8000f3e <StateGame+0x1fa>
						HAL_I2C_Mem_Write_IT(&hi2c1, EEPROM_ADDR, 0x2C,
 8000ec8:	2302      	movs	r3, #2
 8000eca:	9301      	str	r3, [sp, #4]
 8000ecc:	4b2b      	ldr	r3, [pc, #172]	; (8000f7c <StateGame+0x238>)
 8000ece:	9300      	str	r3, [sp, #0]
 8000ed0:	2302      	movs	r3, #2
 8000ed2:	222c      	movs	r2, #44	; 0x2c
 8000ed4:	21a0      	movs	r1, #160	; 0xa0
 8000ed6:	4824      	ldr	r0, [pc, #144]	; (8000f68 <StateGame+0x224>)
 8000ed8:	f001 f9dc 	bl	8002294 <HAL_I2C_Mem_Write_IT>
						eepromExampleWriteFlag = 0;
 8000edc:	4b21      	ldr	r3, [pc, #132]	; (8000f64 <StateGame+0x220>)
 8000ede:	2200      	movs	r2, #0
 8000ee0:	701a      	strb	r2, [r3, #0]
					if (eepromExampleWriteFlag
 8000ee2:	e02c      	b.n	8000f3e <StateGame+0x1fa>
		else if (TotalScorePlayer1 >21 && TotalScorePlayer2 < 21 || TotalScorePlayer2 == 21   ) {
 8000ee4:	4b1b      	ldr	r3, [pc, #108]	; (8000f54 <StateGame+0x210>)
 8000ee6:	681b      	ldr	r3, [r3, #0]
 8000ee8:	2b15      	cmp	r3, #21
 8000eea:	dd03      	ble.n	8000ef4 <StateGame+0x1b0>
 8000eec:	4b1b      	ldr	r3, [pc, #108]	; (8000f5c <StateGame+0x218>)
 8000eee:	681b      	ldr	r3, [r3, #0]
 8000ef0:	2b14      	cmp	r3, #20
 8000ef2:	dd03      	ble.n	8000efc <StateGame+0x1b8>
 8000ef4:	4b19      	ldr	r3, [pc, #100]	; (8000f5c <StateGame+0x218>)
 8000ef6:	681b      	ldr	r3, [r3, #0]
 8000ef8:	2b15      	cmp	r3, #21
 8000efa:	d121      	bne.n	8000f40 <StateGame+0x1fc>
			State = 2; //Player1Win
 8000efc:	4b18      	ldr	r3, [pc, #96]	; (8000f60 <StateGame+0x21c>)
 8000efe:	2202      	movs	r2, #2
 8000f00:	601a      	str	r2, [r3, #0]
					if (eepromExampleWriteFlag
 8000f02:	4b18      	ldr	r3, [pc, #96]	; (8000f64 <StateGame+0x220>)
 8000f04:	781b      	ldrb	r3, [r3, #0]
 8000f06:	2b00      	cmp	r3, #0
 8000f08:	d01a      	beq.n	8000f40 <StateGame+0x1fc>
							&& hi2c1.State == HAL_I2C_STATE_READY) {
 8000f0a:	4b17      	ldr	r3, [pc, #92]	; (8000f68 <StateGame+0x224>)
 8000f0c:	f893 3041 	ldrb.w	r3, [r3, #65]	; 0x41
 8000f10:	b2db      	uxtb	r3, r3
 8000f12:	2b20      	cmp	r3, #32
 8000f14:	d114      	bne.n	8000f40 <StateGame+0x1fc>
						HAL_I2C_Mem_Write_IT(&hi2c1, EEPROM_ADDR, 0x2C,
 8000f16:	2302      	movs	r3, #2
 8000f18:	9301      	str	r3, [sp, #4]
 8000f1a:	4b19      	ldr	r3, [pc, #100]	; (8000f80 <StateGame+0x23c>)
 8000f1c:	9300      	str	r3, [sp, #0]
 8000f1e:	2302      	movs	r3, #2
 8000f20:	222c      	movs	r2, #44	; 0x2c
 8000f22:	21a0      	movs	r1, #160	; 0xa0
 8000f24:	4810      	ldr	r0, [pc, #64]	; (8000f68 <StateGame+0x224>)
 8000f26:	f001 f9b5 	bl	8002294 <HAL_I2C_Mem_Write_IT>
						eepromExampleWriteFlag = 0;
 8000f2a:	4b0e      	ldr	r3, [pc, #56]	; (8000f64 <StateGame+0x220>)
 8000f2c:	2200      	movs	r2, #0
 8000f2e:	701a      	strb	r2, [r3, #0]
}
 8000f30:	e006      	b.n	8000f40 <StateGame+0x1fc>
			if (eepromExampleWriteFlag && hi2c1.State == HAL_I2C_STATE_READY) {
 8000f32:	bf00      	nop
 8000f34:	e004      	b.n	8000f40 <StateGame+0x1fc>
				if (eepromExampleWriteFlag
 8000f36:	bf00      	nop
 8000f38:	e002      	b.n	8000f40 <StateGame+0x1fc>
					if (eepromExampleWriteFlag
 8000f3a:	bf00      	nop
 8000f3c:	e000      	b.n	8000f40 <StateGame+0x1fc>
					if (eepromExampleWriteFlag
 8000f3e:	bf00      	nop
}
 8000f40:	bf00      	nop
 8000f42:	46bd      	mov	sp, r7
 8000f44:	bd80      	pop	{r7, pc}
 8000f46:	bf00      	nop
 8000f48:	200002dc 	.word	0x200002dc
 8000f4c:	200002e0 	.word	0x200002e0
 8000f50:	200002d4 	.word	0x200002d4
 8000f54:	200002cc 	.word	0x200002cc
 8000f58:	200002d8 	.word	0x200002d8
 8000f5c:	200002d0 	.word	0x200002d0
 8000f60:	200002c8 	.word	0x200002c8
 8000f64:	200002a8 	.word	0x200002a8
 8000f68:	2000009c 	.word	0x2000009c
 8000f6c:	20000000 	.word	0x20000000
 8000f70:	20000004 	.word	0x20000004
 8000f74:	20000008 	.word	0x20000008
 8000f78:	2000000c 	.word	0x2000000c
 8000f7c:	20000010 	.word	0x20000010
 8000f80:	20000014 	.word	0x20000014

08000f84 <LED>:


void LED() {
 8000f84:	b580      	push	{r7, lr}
 8000f86:	af00      	add	r7, sp, #0
		HAL_GPIO_WritePin(GPIOD, GPIO_PIN_2, 0);
 8000f88:	2200      	movs	r2, #0
 8000f8a:	2104      	movs	r1, #4
 8000f8c:	4813      	ldr	r0, [pc, #76]	; (8000fdc <LED+0x58>)
 8000f8e:	f001 f8ab 	bl	80020e8 <HAL_GPIO_WritePin>
		SPITx[0] = 0b01000000; // write
 8000f92:	4b13      	ldr	r3, [pc, #76]	; (8000fe0 <LED+0x5c>)
 8000f94:	2240      	movs	r2, #64	; 0x40
 8000f96:	701a      	strb	r2, [r3, #0]
		SPITx[1] = 0x01; // OLATB
 8000f98:	4b11      	ldr	r3, [pc, #68]	; (8000fe0 <LED+0x5c>)
 8000f9a:	2201      	movs	r2, #1
 8000f9c:	705a      	strb	r2, [r3, #1]
		if (State == 3) { //tie
 8000f9e:	4b11      	ldr	r3, [pc, #68]	; (8000fe4 <LED+0x60>)
 8000fa0:	681b      	ldr	r3, [r3, #0]
 8000fa2:	2b03      	cmp	r3, #3
 8000fa4:	d102      	bne.n	8000fac <LED+0x28>
			SPITx[2] = 0b11101111; // LED ON 4
 8000fa6:	4b0e      	ldr	r3, [pc, #56]	; (8000fe0 <LED+0x5c>)
 8000fa8:	22ef      	movs	r2, #239	; 0xef
 8000faa:	709a      	strb	r2, [r3, #2]
		}
		if (State == 1) { // p1 win
 8000fac:	4b0d      	ldr	r3, [pc, #52]	; (8000fe4 <LED+0x60>)
 8000fae:	681b      	ldr	r3, [r3, #0]
 8000fb0:	2b01      	cmp	r3, #1
 8000fb2:	d102      	bne.n	8000fba <LED+0x36>
			SPITx[2] = 0b10111111; // LED ON 2
 8000fb4:	4b0a      	ldr	r3, [pc, #40]	; (8000fe0 <LED+0x5c>)
 8000fb6:	22bf      	movs	r2, #191	; 0xbf
 8000fb8:	709a      	strb	r2, [r3, #2]
		}
		if (State == 2) { //p2 win
 8000fba:	4b0a      	ldr	r3, [pc, #40]	; (8000fe4 <LED+0x60>)
 8000fbc:	681b      	ldr	r3, [r3, #0]
 8000fbe:	2b02      	cmp	r3, #2
 8000fc0:	d102      	bne.n	8000fc8 <LED+0x44>
			SPITx[2] = 0b11011111; // LED ON 3
 8000fc2:	4b07      	ldr	r3, [pc, #28]	; (8000fe0 <LED+0x5c>)
 8000fc4:	22df      	movs	r2, #223	; 0xdf
 8000fc6:	709a      	strb	r2, [r3, #2]
		}
		if (State == 0) { //playing
 8000fc8:	4b06      	ldr	r3, [pc, #24]	; (8000fe4 <LED+0x60>)
 8000fca:	681b      	ldr	r3, [r3, #0]
 8000fcc:	2b00      	cmp	r3, #0
 8000fce:	d102      	bne.n	8000fd6 <LED+0x52>
			SPITx[2] = 0b01111111; // LED ON 1
 8000fd0:	4b03      	ldr	r3, [pc, #12]	; (8000fe0 <LED+0x5c>)
 8000fd2:	227f      	movs	r2, #127	; 0x7f
 8000fd4:	709a      	strb	r2, [r3, #2]
		}
	}
 8000fd6:	bf00      	nop
 8000fd8:	bd80      	pop	{r7, pc}
 8000fda:	bf00      	nop
 8000fdc:	48000c00 	.word	0x48000c00
 8000fe0:	200002bc 	.word	0x200002bc
 8000fe4:	200002c8 	.word	0x200002c8

08000fe8 <Error_Handler>:
/**
  * @brief  This function is executed in case of error occurrence.
  * @retval None
  */
void Error_Handler(void)
{
 8000fe8:	b480      	push	{r7}
 8000fea:	af00      	add	r7, sp, #0
  \details Disables IRQ interrupts by setting the I-bit in the CPSR.
           Can only be executed in Privileged modes.
 */
__STATIC_FORCEINLINE void __disable_irq(void)
{
  __ASM volatile ("cpsid i" : : : "memory");
 8000fec:	b672      	cpsid	i
}
 8000fee:	bf00      	nop
  /* USER CODE BEGIN Error_Handler_Debug */
  /* User can add his own implementation to report the HAL error return state */
  __disable_irq();
  while (1)
 8000ff0:	e7fe      	b.n	8000ff0 <Error_Handler+0x8>
	...

08000ff4 <HAL_MspInit>:
/* USER CODE END 0 */
/**
  * Initializes the Global MSP.
  */
void HAL_MspInit(void)
{
 8000ff4:	b580      	push	{r7, lr}
 8000ff6:	b082      	sub	sp, #8
 8000ff8:	af00      	add	r7, sp, #0
  /* USER CODE BEGIN MspInit 0 */

  /* USER CODE END MspInit 0 */

  __HAL_RCC_SYSCFG_CLK_ENABLE();
 8000ffa:	4b0f      	ldr	r3, [pc, #60]	; (8001038 <HAL_MspInit+0x44>)
 8000ffc:	6e1b      	ldr	r3, [r3, #96]	; 0x60
 8000ffe:	4a0e      	ldr	r2, [pc, #56]	; (8001038 <HAL_MspInit+0x44>)
 8001000:	f043 0301 	orr.w	r3, r3, #1
 8001004:	6613      	str	r3, [r2, #96]	; 0x60
 8001006:	4b0c      	ldr	r3, [pc, #48]	; (8001038 <HAL_MspInit+0x44>)
 8001008:	6e1b      	ldr	r3, [r3, #96]	; 0x60
 800100a:	f003 0301 	and.w	r3, r3, #1
 800100e:	607b      	str	r3, [r7, #4]
 8001010:	687b      	ldr	r3, [r7, #4]
  __HAL_RCC_PWR_CLK_ENABLE();
 8001012:	4b09      	ldr	r3, [pc, #36]	; (8001038 <HAL_MspInit+0x44>)
 8001014:	6d9b      	ldr	r3, [r3, #88]	; 0x58
 8001016:	4a08      	ldr	r2, [pc, #32]	; (8001038 <HAL_MspInit+0x44>)
 8001018:	f043 5380 	orr.w	r3, r3, #268435456	; 0x10000000
 800101c:	6593      	str	r3, [r2, #88]	; 0x58
 800101e:	4b06      	ldr	r3, [pc, #24]	; (8001038 <HAL_MspInit+0x44>)
 8001020:	6d9b      	ldr	r3, [r3, #88]	; 0x58
 8001022:	f003 5380 	and.w	r3, r3, #268435456	; 0x10000000
 8001026:	603b      	str	r3, [r7, #0]
 8001028:	683b      	ldr	r3, [r7, #0]

  /* System interrupt init*/

  /** Disable the internal Pull-Up in Dead Battery pins of UCPD peripheral
  */
  HAL_PWREx_DisableUCPDDeadBattery();
 800102a:	f002 ff6f 	bl	8003f0c <HAL_PWREx_DisableUCPDDeadBattery>

  /* USER CODE BEGIN MspInit 1 */

  /* USER CODE END MspInit 1 */
}
 800102e:	bf00      	nop
 8001030:	3708      	adds	r7, #8
 8001032:	46bd      	mov	sp, r7
 8001034:	bd80      	pop	{r7, pc}
 8001036:	bf00      	nop
 8001038:	40021000 	.word	0x40021000

0800103c <HAL_I2C_MspInit>:
* This function configures the hardware resources used in this example
* @param hi2c: I2C handle pointer
* @retval None
*/
void HAL_I2C_MspInit(I2C_HandleTypeDef* hi2c)
{
 800103c:	b580      	push	{r7, lr}
 800103e:	b0a0      	sub	sp, #128	; 0x80
 8001040:	af00      	add	r7, sp, #0
 8001042:	6078      	str	r0, [r7, #4]
  GPIO_InitTypeDef GPIO_InitStruct = {0};
 8001044:	f107 036c 	add.w	r3, r7, #108	; 0x6c
 8001048:	2200      	movs	r2, #0
 800104a:	601a      	str	r2, [r3, #0]
 800104c:	605a      	str	r2, [r3, #4]
 800104e:	609a      	str	r2, [r3, #8]
 8001050:	60da      	str	r2, [r3, #12]
 8001052:	611a      	str	r2, [r3, #16]
  RCC_PeriphCLKInitTypeDef PeriphClkInit = {0};
 8001054:	f107 0318 	add.w	r3, r7, #24
 8001058:	2254      	movs	r2, #84	; 0x54
 800105a:	2100      	movs	r1, #0
 800105c:	4618      	mov	r0, r3
 800105e:	f005 fbba 	bl	80067d6 <memset>
  if(hi2c->Instance==I2C1)
 8001062:	687b      	ldr	r3, [r7, #4]
 8001064:	681b      	ldr	r3, [r3, #0]
 8001066:	4a5f      	ldr	r2, [pc, #380]	; (80011e4 <HAL_I2C_MspInit+0x1a8>)
 8001068:	4293      	cmp	r3, r2
 800106a:	f040 80b6 	bne.w	80011da <HAL_I2C_MspInit+0x19e>

  /* USER CODE END I2C1_MspInit 0 */

  /** Initializes the peripherals clocks
  */
    PeriphClkInit.PeriphClockSelection = RCC_PERIPHCLK_I2C1;
 800106e:	2340      	movs	r3, #64	; 0x40
 8001070:	61bb      	str	r3, [r7, #24]
    PeriphClkInit.I2c1ClockSelection = RCC_I2C1CLKSOURCE_PCLK1;
 8001072:	2300      	movs	r3, #0
 8001074:	637b      	str	r3, [r7, #52]	; 0x34
    if (HAL_RCCEx_PeriphCLKConfig(&PeriphClkInit) != HAL_OK)
 8001076:	f107 0318 	add.w	r3, r7, #24
 800107a:	4618      	mov	r0, r3
 800107c:	f003 fc84 	bl	8004988 <HAL_RCCEx_PeriphCLKConfig>
 8001080:	4603      	mov	r3, r0
 8001082:	2b00      	cmp	r3, #0
 8001084:	d001      	beq.n	800108a <HAL_I2C_MspInit+0x4e>
    {
      Error_Handler();
 8001086:	f7ff ffaf 	bl	8000fe8 <Error_Handler>
    }

    __HAL_RCC_GPIOA_CLK_ENABLE();
 800108a:	4b57      	ldr	r3, [pc, #348]	; (80011e8 <HAL_I2C_MspInit+0x1ac>)
 800108c:	6cdb      	ldr	r3, [r3, #76]	; 0x4c
 800108e:	4a56      	ldr	r2, [pc, #344]	; (80011e8 <HAL_I2C_MspInit+0x1ac>)
 8001090:	f043 0301 	orr.w	r3, r3, #1
 8001094:	64d3      	str	r3, [r2, #76]	; 0x4c
 8001096:	4b54      	ldr	r3, [pc, #336]	; (80011e8 <HAL_I2C_MspInit+0x1ac>)
 8001098:	6cdb      	ldr	r3, [r3, #76]	; 0x4c
 800109a:	f003 0301 	and.w	r3, r3, #1
 800109e:	617b      	str	r3, [r7, #20]
 80010a0:	697b      	ldr	r3, [r7, #20]
    __HAL_RCC_GPIOB_CLK_ENABLE();
 80010a2:	4b51      	ldr	r3, [pc, #324]	; (80011e8 <HAL_I2C_MspInit+0x1ac>)
 80010a4:	6cdb      	ldr	r3, [r3, #76]	; 0x4c
 80010a6:	4a50      	ldr	r2, [pc, #320]	; (80011e8 <HAL_I2C_MspInit+0x1ac>)
 80010a8:	f043 0302 	orr.w	r3, r3, #2
 80010ac:	64d3      	str	r3, [r2, #76]	; 0x4c
 80010ae:	4b4e      	ldr	r3, [pc, #312]	; (80011e8 <HAL_I2C_MspInit+0x1ac>)
 80010b0:	6cdb      	ldr	r3, [r3, #76]	; 0x4c
 80010b2:	f003 0302 	and.w	r3, r3, #2
 80010b6:	613b      	str	r3, [r7, #16]
 80010b8:	693b      	ldr	r3, [r7, #16]
    /**I2C1 GPIO Configuration
    PA15     ------> I2C1_SCL
    PB7     ------> I2C1_SDA
    */
    GPIO_InitStruct.Pin = GPIO_PIN_15;
 80010ba:	f44f 4300 	mov.w	r3, #32768	; 0x8000
 80010be:	66fb      	str	r3, [r7, #108]	; 0x6c
    GPIO_InitStruct.Mode = GPIO_MODE_AF_OD;
 80010c0:	2312      	movs	r3, #18
 80010c2:	673b      	str	r3, [r7, #112]	; 0x70
    GPIO_InitStruct.Pull = GPIO_NOPULL;
 80010c4:	2300      	movs	r3, #0
 80010c6:	677b      	str	r3, [r7, #116]	; 0x74
    GPIO_InitStruct.Speed = GPIO_SPEED_FREQ_LOW;
 80010c8:	2300      	movs	r3, #0
 80010ca:	67bb      	str	r3, [r7, #120]	; 0x78
    GPIO_InitStruct.Alternate = GPIO_AF4_I2C1;
 80010cc:	2304      	movs	r3, #4
 80010ce:	67fb      	str	r3, [r7, #124]	; 0x7c
    HAL_GPIO_Init(GPIOA, &GPIO_InitStruct);
 80010d0:	f107 036c 	add.w	r3, r7, #108	; 0x6c
 80010d4:	4619      	mov	r1, r3
 80010d6:	f04f 4090 	mov.w	r0, #1207959552	; 0x48000000
 80010da:	f000 fe6b 	bl	8001db4 <HAL_GPIO_Init>

    GPIO_InitStruct.Pin = GPIO_PIN_7;
 80010de:	2380      	movs	r3, #128	; 0x80
 80010e0:	66fb      	str	r3, [r7, #108]	; 0x6c
    GPIO_InitStruct.Mode = GPIO_MODE_AF_OD;
 80010e2:	2312      	movs	r3, #18
 80010e4:	673b      	str	r3, [r7, #112]	; 0x70
    GPIO_InitStruct.Pull = GPIO_NOPULL;
 80010e6:	2300      	movs	r3, #0
 80010e8:	677b      	str	r3, [r7, #116]	; 0x74
    GPIO_InitStruct.Speed = GPIO_SPEED_FREQ_LOW;
 80010ea:	2300      	movs	r3, #0
 80010ec:	67bb      	str	r3, [r7, #120]	; 0x78
    GPIO_InitStruct.Alternate = GPIO_AF4_I2C1;
 80010ee:	2304      	movs	r3, #4
 80010f0:	67fb      	str	r3, [r7, #124]	; 0x7c
    HAL_GPIO_Init(GPIOB, &GPIO_InitStruct);
 80010f2:	f107 036c 	add.w	r3, r7, #108	; 0x6c
 80010f6:	4619      	mov	r1, r3
 80010f8:	483c      	ldr	r0, [pc, #240]	; (80011ec <HAL_I2C_MspInit+0x1b0>)
 80010fa:	f000 fe5b 	bl	8001db4 <HAL_GPIO_Init>

    /* Peripheral clock enable */
    __HAL_RCC_I2C1_CLK_ENABLE();
 80010fe:	4b3a      	ldr	r3, [pc, #232]	; (80011e8 <HAL_I2C_MspInit+0x1ac>)
 8001100:	6d9b      	ldr	r3, [r3, #88]	; 0x58
 8001102:	4a39      	ldr	r2, [pc, #228]	; (80011e8 <HAL_I2C_MspInit+0x1ac>)
 8001104:	f443 1300 	orr.w	r3, r3, #2097152	; 0x200000
 8001108:	6593      	str	r3, [r2, #88]	; 0x58
 800110a:	4b37      	ldr	r3, [pc, #220]	; (80011e8 <HAL_I2C_MspInit+0x1ac>)
 800110c:	6d9b      	ldr	r3, [r3, #88]	; 0x58
 800110e:	f403 1300 	and.w	r3, r3, #2097152	; 0x200000
 8001112:	60fb      	str	r3, [r7, #12]
 8001114:	68fb      	ldr	r3, [r7, #12]

    /* I2C1 DMA Init */
    /* I2C1_RX Init */
    hdma_i2c1_rx.Instance = DMA1_Channel1;
 8001116:	4b36      	ldr	r3, [pc, #216]	; (80011f0 <HAL_I2C_MspInit+0x1b4>)
 8001118:	4a36      	ldr	r2, [pc, #216]	; (80011f4 <HAL_I2C_MspInit+0x1b8>)
 800111a:	601a      	str	r2, [r3, #0]
    hdma_i2c1_rx.Init.Request = DMA_REQUEST_I2C1_RX;
 800111c:	4b34      	ldr	r3, [pc, #208]	; (80011f0 <HAL_I2C_MspInit+0x1b4>)
 800111e:	2210      	movs	r2, #16
 8001120:	605a      	str	r2, [r3, #4]
    hdma_i2c1_rx.Init.Direction = DMA_PERIPH_TO_MEMORY;
 8001122:	4b33      	ldr	r3, [pc, #204]	; (80011f0 <HAL_I2C_MspInit+0x1b4>)
 8001124:	2200      	movs	r2, #0
 8001126:	609a      	str	r2, [r3, #8]
    hdma_i2c1_rx.Init.PeriphInc = DMA_PINC_DISABLE;
 8001128:	4b31      	ldr	r3, [pc, #196]	; (80011f0 <HAL_I2C_MspInit+0x1b4>)
 800112a:	2200      	movs	r2, #0
 800112c:	60da      	str	r2, [r3, #12]
    hdma_i2c1_rx.Init.MemInc = DMA_MINC_ENABLE;
 800112e:	4b30      	ldr	r3, [pc, #192]	; (80011f0 <HAL_I2C_MspInit+0x1b4>)
 8001130:	2280      	movs	r2, #128	; 0x80
 8001132:	611a      	str	r2, [r3, #16]
    hdma_i2c1_rx.Init.PeriphDataAlignment = DMA_PDATAALIGN_BYTE;
 8001134:	4b2e      	ldr	r3, [pc, #184]	; (80011f0 <HAL_I2C_MspInit+0x1b4>)
 8001136:	2200      	movs	r2, #0
 8001138:	615a      	str	r2, [r3, #20]
    hdma_i2c1_rx.Init.MemDataAlignment = DMA_MDATAALIGN_BYTE;
 800113a:	4b2d      	ldr	r3, [pc, #180]	; (80011f0 <HAL_I2C_MspInit+0x1b4>)
 800113c:	2200      	movs	r2, #0
 800113e:	619a      	str	r2, [r3, #24]
    hdma_i2c1_rx.Init.Mode = DMA_NORMAL;
 8001140:	4b2b      	ldr	r3, [pc, #172]	; (80011f0 <HAL_I2C_MspInit+0x1b4>)
 8001142:	2200      	movs	r2, #0
 8001144:	61da      	str	r2, [r3, #28]
    hdma_i2c1_rx.Init.Priority = DMA_PRIORITY_LOW;
 8001146:	4b2a      	ldr	r3, [pc, #168]	; (80011f0 <HAL_I2C_MspInit+0x1b4>)
 8001148:	2200      	movs	r2, #0
 800114a:	621a      	str	r2, [r3, #32]
    if (HAL_DMA_Init(&hdma_i2c1_rx) != HAL_OK)
 800114c:	4828      	ldr	r0, [pc, #160]	; (80011f0 <HAL_I2C_MspInit+0x1b4>)
 800114e:	f000 fc03 	bl	8001958 <HAL_DMA_Init>
 8001152:	4603      	mov	r3, r0
 8001154:	2b00      	cmp	r3, #0
 8001156:	d001      	beq.n	800115c <HAL_I2C_MspInit+0x120>
    {
      Error_Handler();
 8001158:	f7ff ff46 	bl	8000fe8 <Error_Handler>
    }

    __HAL_LINKDMA(hi2c,hdmarx,hdma_i2c1_rx);
 800115c:	687b      	ldr	r3, [r7, #4]
 800115e:	4a24      	ldr	r2, [pc, #144]	; (80011f0 <HAL_I2C_MspInit+0x1b4>)
 8001160:	63da      	str	r2, [r3, #60]	; 0x3c
 8001162:	4a23      	ldr	r2, [pc, #140]	; (80011f0 <HAL_I2C_MspInit+0x1b4>)
 8001164:	687b      	ldr	r3, [r7, #4]
 8001166:	6293      	str	r3, [r2, #40]	; 0x28

    /* I2C1_TX Init */
    hdma_i2c1_tx.Instance = DMA1_Channel2;
 8001168:	4b23      	ldr	r3, [pc, #140]	; (80011f8 <HAL_I2C_MspInit+0x1bc>)
 800116a:	4a24      	ldr	r2, [pc, #144]	; (80011fc <HAL_I2C_MspInit+0x1c0>)
 800116c:	601a      	str	r2, [r3, #0]
    hdma_i2c1_tx.Init.Request = DMA_REQUEST_I2C1_TX;
 800116e:	4b22      	ldr	r3, [pc, #136]	; (80011f8 <HAL_I2C_MspInit+0x1bc>)
 8001170:	2211      	movs	r2, #17
 8001172:	605a      	str	r2, [r3, #4]
    hdma_i2c1_tx.Init.Direction = DMA_MEMORY_TO_PERIPH;
 8001174:	4b20      	ldr	r3, [pc, #128]	; (80011f8 <HAL_I2C_MspInit+0x1bc>)
 8001176:	2210      	movs	r2, #16
 8001178:	609a      	str	r2, [r3, #8]
    hdma_i2c1_tx.Init.PeriphInc = DMA_PINC_DISABLE;
 800117a:	4b1f      	ldr	r3, [pc, #124]	; (80011f8 <HAL_I2C_MspInit+0x1bc>)
 800117c:	2200      	movs	r2, #0
 800117e:	60da      	str	r2, [r3, #12]
    hdma_i2c1_tx.Init.MemInc = DMA_MINC_ENABLE;
 8001180:	4b1d      	ldr	r3, [pc, #116]	; (80011f8 <HAL_I2C_MspInit+0x1bc>)
 8001182:	2280      	movs	r2, #128	; 0x80
 8001184:	611a      	str	r2, [r3, #16]
    hdma_i2c1_tx.Init.PeriphDataAlignment = DMA_PDATAALIGN_BYTE;
 8001186:	4b1c      	ldr	r3, [pc, #112]	; (80011f8 <HAL_I2C_MspInit+0x1bc>)
 8001188:	2200      	movs	r2, #0
 800118a:	615a      	str	r2, [r3, #20]
    hdma_i2c1_tx.Init.MemDataAlignment = DMA_MDATAALIGN_BYTE;
 800118c:	4b1a      	ldr	r3, [pc, #104]	; (80011f8 <HAL_I2C_MspInit+0x1bc>)
 800118e:	2200      	movs	r2, #0
 8001190:	619a      	str	r2, [r3, #24]
    hdma_i2c1_tx.Init.Mode = DMA_NORMAL;
 8001192:	4b19      	ldr	r3, [pc, #100]	; (80011f8 <HAL_I2C_MspInit+0x1bc>)
 8001194:	2200      	movs	r2, #0
 8001196:	61da      	str	r2, [r3, #28]
    hdma_i2c1_tx.Init.Priority = DMA_PRIORITY_LOW;
 8001198:	4b17      	ldr	r3, [pc, #92]	; (80011f8 <HAL_I2C_MspInit+0x1bc>)
 800119a:	2200      	movs	r2, #0
 800119c:	621a      	str	r2, [r3, #32]
    if (HAL_DMA_Init(&hdma_i2c1_tx) != HAL_OK)
 800119e:	4816      	ldr	r0, [pc, #88]	; (80011f8 <HAL_I2C_MspInit+0x1bc>)
 80011a0:	f000 fbda 	bl	8001958 <HAL_DMA_Init>
 80011a4:	4603      	mov	r3, r0
 80011a6:	2b00      	cmp	r3, #0
 80011a8:	d001      	beq.n	80011ae <HAL_I2C_MspInit+0x172>
    {
      Error_Handler();
 80011aa:	f7ff ff1d 	bl	8000fe8 <Error_Handler>
    }

    __HAL_LINKDMA(hi2c,hdmatx,hdma_i2c1_tx);
 80011ae:	687b      	ldr	r3, [r7, #4]
 80011b0:	4a11      	ldr	r2, [pc, #68]	; (80011f8 <HAL_I2C_MspInit+0x1bc>)
 80011b2:	639a      	str	r2, [r3, #56]	; 0x38
 80011b4:	4a10      	ldr	r2, [pc, #64]	; (80011f8 <HAL_I2C_MspInit+0x1bc>)
 80011b6:	687b      	ldr	r3, [r7, #4]
 80011b8:	6293      	str	r3, [r2, #40]	; 0x28

    /* I2C1 interrupt Init */
    HAL_NVIC_SetPriority(I2C1_EV_IRQn, 0, 0);
 80011ba:	2200      	movs	r2, #0
 80011bc:	2100      	movs	r1, #0
 80011be:	201f      	movs	r0, #31
 80011c0:	f000 fb95 	bl	80018ee <HAL_NVIC_SetPriority>
    HAL_NVIC_EnableIRQ(I2C1_EV_IRQn);
 80011c4:	201f      	movs	r0, #31
 80011c6:	f000 fbac 	bl	8001922 <HAL_NVIC_EnableIRQ>
    HAL_NVIC_SetPriority(I2C1_ER_IRQn, 0, 0);
 80011ca:	2200      	movs	r2, #0
 80011cc:	2100      	movs	r1, #0
 80011ce:	2020      	movs	r0, #32
 80011d0:	f000 fb8d 	bl	80018ee <HAL_NVIC_SetPriority>
    HAL_NVIC_EnableIRQ(I2C1_ER_IRQn);
 80011d4:	2020      	movs	r0, #32
 80011d6:	f000 fba4 	bl	8001922 <HAL_NVIC_EnableIRQ>
  /* USER CODE BEGIN I2C1_MspInit 1 */

  /* USER CODE END I2C1_MspInit 1 */
  }

}
 80011da:	bf00      	nop
 80011dc:	3780      	adds	r7, #128	; 0x80
 80011de:	46bd      	mov	sp, r7
 80011e0:	bd80      	pop	{r7, pc}
 80011e2:	bf00      	nop
 80011e4:	40005400 	.word	0x40005400
 80011e8:	40021000 	.word	0x40021000
 80011ec:	48000400 	.word	0x48000400
 80011f0:	200000f0 	.word	0x200000f0
 80011f4:	40020008 	.word	0x40020008
 80011f8:	20000150 	.word	0x20000150
 80011fc:	4002001c 	.word	0x4002001c

08001200 <HAL_UART_MspInit>:
* This function configures the hardware resources used in this example
* @param huart: UART handle pointer
* @retval None
*/
void HAL_UART_MspInit(UART_HandleTypeDef* huart)
{
 8001200:	b580      	push	{r7, lr}
 8001202:	b09e      	sub	sp, #120	; 0x78
 8001204:	af00      	add	r7, sp, #0
 8001206:	6078      	str	r0, [r7, #4]
  GPIO_InitTypeDef GPIO_InitStruct = {0};
 8001208:	f107 0364 	add.w	r3, r7, #100	; 0x64
 800120c:	2200      	movs	r2, #0
 800120e:	601a      	str	r2, [r3, #0]
 8001210:	605a      	str	r2, [r3, #4]
 8001212:	609a      	str	r2, [r3, #8]
 8001214:	60da      	str	r2, [r3, #12]
 8001216:	611a      	str	r2, [r3, #16]
  RCC_PeriphCLKInitTypeDef PeriphClkInit = {0};
 8001218:	f107 0310 	add.w	r3, r7, #16
 800121c:	2254      	movs	r2, #84	; 0x54
 800121e:	2100      	movs	r1, #0
 8001220:	4618      	mov	r0, r3
 8001222:	f005 fad8 	bl	80067d6 <memset>
  if(huart->Instance==LPUART1)
 8001226:	687b      	ldr	r3, [r7, #4]
 8001228:	681b      	ldr	r3, [r3, #0]
 800122a:	4a1f      	ldr	r2, [pc, #124]	; (80012a8 <HAL_UART_MspInit+0xa8>)
 800122c:	4293      	cmp	r3, r2
 800122e:	d136      	bne.n	800129e <HAL_UART_MspInit+0x9e>

  /* USER CODE END LPUART1_MspInit 0 */

  /** Initializes the peripherals clocks
  */
    PeriphClkInit.PeriphClockSelection = RCC_PERIPHCLK_LPUART1;
 8001230:	2320      	movs	r3, #32
 8001232:	613b      	str	r3, [r7, #16]
    PeriphClkInit.Lpuart1ClockSelection = RCC_LPUART1CLKSOURCE_PCLK1;
 8001234:	2300      	movs	r3, #0
 8001236:	62bb      	str	r3, [r7, #40]	; 0x28
    if (HAL_RCCEx_PeriphCLKConfig(&PeriphClkInit) != HAL_OK)
 8001238:	f107 0310 	add.w	r3, r7, #16
 800123c:	4618      	mov	r0, r3
 800123e:	f003 fba3 	bl	8004988 <HAL_RCCEx_PeriphCLKConfig>
 8001242:	4603      	mov	r3, r0
 8001244:	2b00      	cmp	r3, #0
 8001246:	d001      	beq.n	800124c <HAL_UART_MspInit+0x4c>
    {
      Error_Handler();
 8001248:	f7ff fece 	bl	8000fe8 <Error_Handler>
    }

    /* Peripheral clock enable */
    __HAL_RCC_LPUART1_CLK_ENABLE();
 800124c:	4b17      	ldr	r3, [pc, #92]	; (80012ac <HAL_UART_MspInit+0xac>)
 800124e:	6ddb      	ldr	r3, [r3, #92]	; 0x5c
 8001250:	4a16      	ldr	r2, [pc, #88]	; (80012ac <HAL_UART_MspInit+0xac>)
 8001252:	f043 0301 	orr.w	r3, r3, #1
 8001256:	65d3      	str	r3, [r2, #92]	; 0x5c
 8001258:	4b14      	ldr	r3, [pc, #80]	; (80012ac <HAL_UART_MspInit+0xac>)
 800125a:	6ddb      	ldr	r3, [r3, #92]	; 0x5c
 800125c:	f003 0301 	and.w	r3, r3, #1
 8001260:	60fb      	str	r3, [r7, #12]
 8001262:	68fb      	ldr	r3, [r7, #12]

    __HAL_RCC_GPIOA_CLK_ENABLE();
 8001264:	4b11      	ldr	r3, [pc, #68]	; (80012ac <HAL_UART_MspInit+0xac>)
 8001266:	6cdb      	ldr	r3, [r3, #76]	; 0x4c
 8001268:	4a10      	ldr	r2, [pc, #64]	; (80012ac <HAL_UART_MspInit+0xac>)
 800126a:	f043 0301 	orr.w	r3, r3, #1
 800126e:	64d3      	str	r3, [r2, #76]	; 0x4c
 8001270:	4b0e      	ldr	r3, [pc, #56]	; (80012ac <HAL_UART_MspInit+0xac>)
 8001272:	6cdb      	ldr	r3, [r3, #76]	; 0x4c
 8001274:	f003 0301 	and.w	r3, r3, #1
 8001278:	60bb      	str	r3, [r7, #8]
 800127a:	68bb      	ldr	r3, [r7, #8]
    /**LPUART1 GPIO Configuration
    PA2     ------> LPUART1_TX
    PA3     ------> LPUART1_RX
    */
    GPIO_InitStruct.Pin = LPUART1_TX_Pin|LPUART1_RX_Pin;
 800127c:	230c      	movs	r3, #12
 800127e:	667b      	str	r3, [r7, #100]	; 0x64
    GPIO_InitStruct.Mode = GPIO_MODE_AF_PP;
 8001280:	2302      	movs	r3, #2
 8001282:	66bb      	str	r3, [r7, #104]	; 0x68
    GPIO_InitStruct.Pull = GPIO_NOPULL;
 8001284:	2300      	movs	r3, #0
 8001286:	66fb      	str	r3, [r7, #108]	; 0x6c
    GPIO_InitStruct.Speed = GPIO_SPEED_FREQ_LOW;
 8001288:	2300      	movs	r3, #0
 800128a:	673b      	str	r3, [r7, #112]	; 0x70
    GPIO_InitStruct.Alternate = GPIO_AF12_LPUART1;
 800128c:	230c      	movs	r3, #12
 800128e:	677b      	str	r3, [r7, #116]	; 0x74
    HAL_GPIO_Init(GPIOA, &GPIO_InitStruct);
 8001290:	f107 0364 	add.w	r3, r7, #100	; 0x64
 8001294:	4619      	mov	r1, r3
 8001296:	f04f 4090 	mov.w	r0, #1207959552	; 0x48000000
 800129a:	f000 fd8b 	bl	8001db4 <HAL_GPIO_Init>
  /* USER CODE BEGIN LPUART1_MspInit 1 */

  /* USER CODE END LPUART1_MspInit 1 */
  }

}
 800129e:	bf00      	nop
 80012a0:	3778      	adds	r7, #120	; 0x78
 80012a2:	46bd      	mov	sp, r7
 80012a4:	bd80      	pop	{r7, pc}
 80012a6:	bf00      	nop
 80012a8:	40008000 	.word	0x40008000
 80012ac:	40021000 	.word	0x40021000

080012b0 <HAL_SPI_MspInit>:
* This function configures the hardware resources used in this example
* @param hspi: SPI handle pointer
* @retval None
*/
void HAL_SPI_MspInit(SPI_HandleTypeDef* hspi)
{
 80012b0:	b580      	push	{r7, lr}
 80012b2:	b08a      	sub	sp, #40	; 0x28
 80012b4:	af00      	add	r7, sp, #0
 80012b6:	6078      	str	r0, [r7, #4]
  GPIO_InitTypeDef GPIO_InitStruct = {0};
 80012b8:	f107 0314 	add.w	r3, r7, #20
 80012bc:	2200      	movs	r2, #0
 80012be:	601a      	str	r2, [r3, #0]
 80012c0:	605a      	str	r2, [r3, #4]
 80012c2:	609a      	str	r2, [r3, #8]
 80012c4:	60da      	str	r2, [r3, #12]
 80012c6:	611a      	str	r2, [r3, #16]
  if(hspi->Instance==SPI3)
 80012c8:	687b      	ldr	r3, [r7, #4]
 80012ca:	681b      	ldr	r3, [r3, #0]
 80012cc:	4a1b      	ldr	r2, [pc, #108]	; (800133c <HAL_SPI_MspInit+0x8c>)
 80012ce:	4293      	cmp	r3, r2
 80012d0:	d130      	bne.n	8001334 <HAL_SPI_MspInit+0x84>
  {
  /* USER CODE BEGIN SPI3_MspInit 0 */

  /* USER CODE END SPI3_MspInit 0 */
    /* Peripheral clock enable */
    __HAL_RCC_SPI3_CLK_ENABLE();
 80012d2:	4b1b      	ldr	r3, [pc, #108]	; (8001340 <HAL_SPI_MspInit+0x90>)
 80012d4:	6d9b      	ldr	r3, [r3, #88]	; 0x58
 80012d6:	4a1a      	ldr	r2, [pc, #104]	; (8001340 <HAL_SPI_MspInit+0x90>)
 80012d8:	f443 4300 	orr.w	r3, r3, #32768	; 0x8000
 80012dc:	6593      	str	r3, [r2, #88]	; 0x58
 80012de:	4b18      	ldr	r3, [pc, #96]	; (8001340 <HAL_SPI_MspInit+0x90>)
 80012e0:	6d9b      	ldr	r3, [r3, #88]	; 0x58
 80012e2:	f403 4300 	and.w	r3, r3, #32768	; 0x8000
 80012e6:	613b      	str	r3, [r7, #16]
 80012e8:	693b      	ldr	r3, [r7, #16]

    __HAL_RCC_GPIOC_CLK_ENABLE();
 80012ea:	4b15      	ldr	r3, [pc, #84]	; (8001340 <HAL_SPI_MspInit+0x90>)
 80012ec:	6cdb      	ldr	r3, [r3, #76]	; 0x4c
 80012ee:	4a14      	ldr	r2, [pc, #80]	; (8001340 <HAL_SPI_MspInit+0x90>)
 80012f0:	f043 0304 	orr.w	r3, r3, #4
 80012f4:	64d3      	str	r3, [r2, #76]	; 0x4c
 80012f6:	4b12      	ldr	r3, [pc, #72]	; (8001340 <HAL_SPI_MspInit+0x90>)
 80012f8:	6cdb      	ldr	r3, [r3, #76]	; 0x4c
 80012fa:	f003 0304 	and.w	r3, r3, #4
 80012fe:	60fb      	str	r3, [r7, #12]
 8001300:	68fb      	ldr	r3, [r7, #12]
    /**SPI3 GPIO Configuration
    PC10     ------> SPI3_SCK
    PC11     ------> SPI3_MISO
    PC12     ------> SPI3_MOSI
    */
    GPIO_InitStruct.Pin = GPIO_PIN_10|GPIO_PIN_11|GPIO_PIN_12;
 8001302:	f44f 53e0 	mov.w	r3, #7168	; 0x1c00
 8001306:	617b      	str	r3, [r7, #20]
    GPIO_InitStruct.Mode = GPIO_MODE_AF_PP;
 8001308:	2302      	movs	r3, #2
 800130a:	61bb      	str	r3, [r7, #24]
    GPIO_InitStruct.Pull = GPIO_NOPULL;
 800130c:	2300      	movs	r3, #0
 800130e:	61fb      	str	r3, [r7, #28]
    GPIO_InitStruct.Speed = GPIO_SPEED_FREQ_LOW;
 8001310:	2300      	movs	r3, #0
 8001312:	623b      	str	r3, [r7, #32]
    GPIO_InitStruct.Alternate = GPIO_AF6_SPI3;
 8001314:	2306      	movs	r3, #6
 8001316:	627b      	str	r3, [r7, #36]	; 0x24
    HAL_GPIO_Init(GPIOC, &GPIO_InitStruct);
 8001318:	f107 0314 	add.w	r3, r7, #20
 800131c:	4619      	mov	r1, r3
 800131e:	4809      	ldr	r0, [pc, #36]	; (8001344 <HAL_SPI_MspInit+0x94>)
 8001320:	f000 fd48 	bl	8001db4 <HAL_GPIO_Init>

    /* SPI3 interrupt Init */
    HAL_NVIC_SetPriority(SPI3_IRQn, 0, 0);
 8001324:	2200      	movs	r2, #0
 8001326:	2100      	movs	r1, #0
 8001328:	2033      	movs	r0, #51	; 0x33
 800132a:	f000 fae0 	bl	80018ee <HAL_NVIC_SetPriority>
    HAL_NVIC_EnableIRQ(SPI3_IRQn);
 800132e:	2033      	movs	r0, #51	; 0x33
 8001330:	f000 faf7 	bl	8001922 <HAL_NVIC_EnableIRQ>
  /* USER CODE BEGIN SPI3_MspInit 1 */

  /* USER CODE END SPI3_MspInit 1 */
  }

}
 8001334:	bf00      	nop
 8001336:	3728      	adds	r7, #40	; 0x28
 8001338:	46bd      	mov	sp, r7
 800133a:	bd80      	pop	{r7, pc}
 800133c:	40003c00 	.word	0x40003c00
 8001340:	40021000 	.word	0x40021000
 8001344:	48000800 	.word	0x48000800

08001348 <NMI_Handler>:
/******************************************************************************/
/**
  * @brief This function handles Non maskable interrupt.
  */
void NMI_Handler(void)
{
 8001348:	b480      	push	{r7}
 800134a:	af00      	add	r7, sp, #0
  /* USER CODE BEGIN NonMaskableInt_IRQn 0 */

  /* USER CODE END NonMaskableInt_IRQn 0 */
  /* USER CODE BEGIN NonMaskableInt_IRQn 1 */
   while (1)
 800134c:	e7fe      	b.n	800134c <NMI_Handler+0x4>

0800134e <HardFault_Handler>:

/**
  * @brief This function handles Hard fault interrupt.
  */
void HardFault_Handler(void)
{
 800134e:	b480      	push	{r7}
 8001350:	af00      	add	r7, sp, #0
  /* USER CODE BEGIN HardFault_IRQn 0 */

  /* USER CODE END HardFault_IRQn 0 */
  while (1)
 8001352:	e7fe      	b.n	8001352 <HardFault_Handler+0x4>

08001354 <MemManage_Handler>:

/**
  * @brief This function handles Memory management fault.
  */
void MemManage_Handler(void)
{
 8001354:	b480      	push	{r7}
 8001356:	af00      	add	r7, sp, #0
  /* USER CODE BEGIN MemoryManagement_IRQn 0 */

  /* USER CODE END MemoryManagement_IRQn 0 */
  while (1)
 8001358:	e7fe      	b.n	8001358 <MemManage_Handler+0x4>

0800135a <BusFault_Handler>:

/**
  * @brief This function handles Prefetch fault, memory access fault.
  */
void BusFault_Handler(void)
{
 800135a:	b480      	push	{r7}
 800135c:	af00      	add	r7, sp, #0
  /* USER CODE BEGIN BusFault_IRQn 0 */

  /* USER CODE END BusFault_IRQn 0 */
  while (1)
 800135e:	e7fe      	b.n	800135e <BusFault_Handler+0x4>

08001360 <UsageFault_Handler>:

/**
  * @brief This function handles Undefined instruction or illegal state.
  */
void UsageFault_Handler(void)
{
 8001360:	b480      	push	{r7}
 8001362:	af00      	add	r7, sp, #0
  /* USER CODE BEGIN UsageFault_IRQn 0 */

  /* USER CODE END UsageFault_IRQn 0 */
  while (1)
 8001364:	e7fe      	b.n	8001364 <UsageFault_Handler+0x4>

08001366 <SVC_Handler>:

/**
  * @brief This function handles System service call via SWI instruction.
  */
void SVC_Handler(void)
{
 8001366:	b480      	push	{r7}
 8001368:	af00      	add	r7, sp, #0

  /* USER CODE END SVCall_IRQn 0 */
  /* USER CODE BEGIN SVCall_IRQn 1 */

  /* USER CODE END SVCall_IRQn 1 */
}
 800136a:	bf00      	nop
 800136c:	46bd      	mov	sp, r7
 800136e:	f85d 7b04 	ldr.w	r7, [sp], #4
 8001372:	4770      	bx	lr

08001374 <DebugMon_Handler>:

/**
  * @brief This function handles Debug monitor.
  */
void DebugMon_Handler(void)
{
 8001374:	b480      	push	{r7}
 8001376:	af00      	add	r7, sp, #0

  /* USER CODE END DebugMonitor_IRQn 0 */
  /* USER CODE BEGIN DebugMonitor_IRQn 1 */

  /* USER CODE END DebugMonitor_IRQn 1 */
}
 8001378:	bf00      	nop
 800137a:	46bd      	mov	sp, r7
 800137c:	f85d 7b04 	ldr.w	r7, [sp], #4
 8001380:	4770      	bx	lr

08001382 <PendSV_Handler>:

/**
  * @brief This function handles Pendable request for system service.
  */
void PendSV_Handler(void)
{
 8001382:	b480      	push	{r7}
 8001384:	af00      	add	r7, sp, #0

  /* USER CODE END PendSV_IRQn 0 */
  /* USER CODE BEGIN PendSV_IRQn 1 */

  /* USER CODE END PendSV_IRQn 1 */
}
 8001386:	bf00      	nop
 8001388:	46bd      	mov	sp, r7
 800138a:	f85d 7b04 	ldr.w	r7, [sp], #4
 800138e:	4770      	bx	lr

08001390 <SysTick_Handler>:

/**
  * @brief This function handles System tick timer.
  */
void SysTick_Handler(void)
{
 8001390:	b580      	push	{r7, lr}
 8001392:	af00      	add	r7, sp, #0
  /* USER CODE BEGIN SysTick_IRQn 0 */

  /* USER CODE END SysTick_IRQn 0 */
  HAL_IncTick();
 8001394:	f000 f990 	bl	80016b8 <HAL_IncTick>
  /* USER CODE BEGIN SysTick_IRQn 1 */

  /* USER CODE END SysTick_IRQn 1 */
}
 8001398:	bf00      	nop
 800139a:	bd80      	pop	{r7, pc}

0800139c <DMA1_Channel1_IRQHandler>:

/**
  * @brief This function handles DMA1 channel1 global interrupt.
  */
void DMA1_Channel1_IRQHandler(void)
{
 800139c:	b580      	push	{r7, lr}
 800139e:	af00      	add	r7, sp, #0
  /* USER CODE BEGIN DMA1_Channel1_IRQn 0 */

  /* USER CODE END DMA1_Channel1_IRQn 0 */
  HAL_DMA_IRQHandler(&hdma_i2c1_rx);
 80013a0:	4802      	ldr	r0, [pc, #8]	; (80013ac <DMA1_Channel1_IRQHandler+0x10>)
 80013a2:	f000 fbe8 	bl	8001b76 <HAL_DMA_IRQHandler>
  /* USER CODE BEGIN DMA1_Channel1_IRQn 1 */

  /* USER CODE END DMA1_Channel1_IRQn 1 */
}
 80013a6:	bf00      	nop
 80013a8:	bd80      	pop	{r7, pc}
 80013aa:	bf00      	nop
 80013ac:	200000f0 	.word	0x200000f0

080013b0 <DMA1_Channel2_IRQHandler>:

/**
  * @brief This function handles DMA1 channel2 global interrupt.
  */
void DMA1_Channel2_IRQHandler(void)
{
 80013b0:	b580      	push	{r7, lr}
 80013b2:	af00      	add	r7, sp, #0
  /* USER CODE BEGIN DMA1_Channel2_IRQn 0 */

  /* USER CODE END DMA1_Channel2_IRQn 0 */
  HAL_DMA_IRQHandler(&hdma_i2c1_tx);
 80013b4:	4802      	ldr	r0, [pc, #8]	; (80013c0 <DMA1_Channel2_IRQHandler+0x10>)
 80013b6:	f000 fbde 	bl	8001b76 <HAL_DMA_IRQHandler>
  /* USER CODE BEGIN DMA1_Channel2_IRQn 1 */

  /* USER CODE END DMA1_Channel2_IRQn 1 */
}
 80013ba:	bf00      	nop
 80013bc:	bd80      	pop	{r7, pc}
 80013be:	bf00      	nop
 80013c0:	20000150 	.word	0x20000150

080013c4 <I2C1_EV_IRQHandler>:

/**
  * @brief This function handles I2C1 event interrupt / I2C1 wake-up interrupt through EXTI line 23.
  */
void I2C1_EV_IRQHandler(void)
{
 80013c4:	b580      	push	{r7, lr}
 80013c6:	af00      	add	r7, sp, #0
  /* USER CODE BEGIN I2C1_EV_IRQn 0 */

  /* USER CODE END I2C1_EV_IRQn 0 */
  HAL_I2C_EV_IRQHandler(&hi2c1);
 80013c8:	4802      	ldr	r0, [pc, #8]	; (80013d4 <I2C1_EV_IRQHandler+0x10>)
 80013ca:	f001 f873 	bl	80024b4 <HAL_I2C_EV_IRQHandler>
  /* USER CODE BEGIN I2C1_EV_IRQn 1 */

  /* USER CODE END I2C1_EV_IRQn 1 */
}
 80013ce:	bf00      	nop
 80013d0:	bd80      	pop	{r7, pc}
 80013d2:	bf00      	nop
 80013d4:	2000009c 	.word	0x2000009c

080013d8 <I2C1_ER_IRQHandler>:

/**
  * @brief This function handles I2C1 error interrupt.
  */
void I2C1_ER_IRQHandler(void)
{
 80013d8:	b580      	push	{r7, lr}
 80013da:	af00      	add	r7, sp, #0
  /* USER CODE BEGIN I2C1_ER_IRQn 0 */

  /* USER CODE END I2C1_ER_IRQn 0 */
  HAL_I2C_ER_IRQHandler(&hi2c1);
 80013dc:	4802      	ldr	r0, [pc, #8]	; (80013e8 <I2C1_ER_IRQHandler+0x10>)
 80013de:	f001 f883 	bl	80024e8 <HAL_I2C_ER_IRQHandler>
  /* USER CODE BEGIN I2C1_ER_IRQn 1 */

  /* USER CODE END I2C1_ER_IRQn 1 */
}
 80013e2:	bf00      	nop
 80013e4:	bd80      	pop	{r7, pc}
 80013e6:	bf00      	nop
 80013e8:	2000009c 	.word	0x2000009c

080013ec <EXTI15_10_IRQHandler>:

/**
  * @brief This function handles EXTI line[15:10] interrupts.
  */
void EXTI15_10_IRQHandler(void)
{
 80013ec:	b580      	push	{r7, lr}
 80013ee:	af00      	add	r7, sp, #0
  /* USER CODE BEGIN EXTI15_10_IRQn 0 */

  /* USER CODE END EXTI15_10_IRQn 0 */
  HAL_GPIO_EXTI_IRQHandler(B1_Pin);
 80013f0:	f44f 5000 	mov.w	r0, #8192	; 0x2000
 80013f4:	f000 fe90 	bl	8002118 <HAL_GPIO_EXTI_IRQHandler>
  /* USER CODE BEGIN EXTI15_10_IRQn 1 */

  /* USER CODE END EXTI15_10_IRQn 1 */
}
 80013f8:	bf00      	nop
 80013fa:	bd80      	pop	{r7, pc}

080013fc <SPI3_IRQHandler>:

/**
  * @brief This function handles SPI3 global interrupt.
  */
void SPI3_IRQHandler(void)
{
 80013fc:	b580      	push	{r7, lr}
 80013fe:	af00      	add	r7, sp, #0
  /* USER CODE BEGIN SPI3_IRQn 0 */

  /* USER CODE END SPI3_IRQn 0 */
  HAL_SPI_IRQHandler(&hspi3);
 8001400:	4802      	ldr	r0, [pc, #8]	; (800140c <SPI3_IRQHandler+0x10>)
 8001402:	f003 fe69 	bl	80050d8 <HAL_SPI_IRQHandler>
  /* USER CODE BEGIN SPI3_IRQn 1 */

  /* USER CODE END SPI3_IRQn 1 */
}
 8001406:	bf00      	nop
 8001408:	bd80      	pop	{r7, pc}
 800140a:	bf00      	nop
 800140c:	20000244 	.word	0x20000244

08001410 <_getpid>:
 8001410:	b480      	push	{r7}
 8001412:	af00      	add	r7, sp, #0
 8001414:	2301      	movs	r3, #1
 8001416:	4618      	mov	r0, r3
 8001418:	46bd      	mov	sp, r7
 800141a:	f85d 7b04 	ldr.w	r7, [sp], #4
 800141e:	4770      	bx	lr

08001420 <_kill>:
 8001420:	b580      	push	{r7, lr}
 8001422:	b082      	sub	sp, #8
 8001424:	af00      	add	r7, sp, #0
 8001426:	6078      	str	r0, [r7, #4]
 8001428:	6039      	str	r1, [r7, #0]
 800142a:	f005 fa23 	bl	8006874 <__errno>
 800142e:	4603      	mov	r3, r0
 8001430:	2216      	movs	r2, #22
 8001432:	601a      	str	r2, [r3, #0]
 8001434:	f04f 33ff 	mov.w	r3, #4294967295
 8001438:	4618      	mov	r0, r3
 800143a:	3708      	adds	r7, #8
 800143c:	46bd      	mov	sp, r7
 800143e:	bd80      	pop	{r7, pc}

08001440 <_exit>:
 8001440:	b580      	push	{r7, lr}
 8001442:	b082      	sub	sp, #8
 8001444:	af00      	add	r7, sp, #0
 8001446:	6078      	str	r0, [r7, #4]
 8001448:	f04f 31ff 	mov.w	r1, #4294967295
 800144c:	6878      	ldr	r0, [r7, #4]
 800144e:	f7ff ffe7 	bl	8001420 <_kill>
 8001452:	e7fe      	b.n	8001452 <_exit+0x12>

08001454 <_read>:
 8001454:	b580      	push	{r7, lr}
 8001456:	b086      	sub	sp, #24
 8001458:	af00      	add	r7, sp, #0
 800145a:	60f8      	str	r0, [r7, #12]
 800145c:	60b9      	str	r1, [r7, #8]
 800145e:	607a      	str	r2, [r7, #4]
 8001460:	2300      	movs	r3, #0
 8001462:	617b      	str	r3, [r7, #20]
 8001464:	e00a      	b.n	800147c <_read+0x28>
 8001466:	f3af 8000 	nop.w
 800146a:	4601      	mov	r1, r0
 800146c:	68bb      	ldr	r3, [r7, #8]
 800146e:	1c5a      	adds	r2, r3, #1
 8001470:	60ba      	str	r2, [r7, #8]
 8001472:	b2ca      	uxtb	r2, r1
 8001474:	701a      	strb	r2, [r3, #0]
 8001476:	697b      	ldr	r3, [r7, #20]
 8001478:	3301      	adds	r3, #1
 800147a:	617b      	str	r3, [r7, #20]
 800147c:	697a      	ldr	r2, [r7, #20]
 800147e:	687b      	ldr	r3, [r7, #4]
 8001480:	429a      	cmp	r2, r3
 8001482:	dbf0      	blt.n	8001466 <_read+0x12>
 8001484:	687b      	ldr	r3, [r7, #4]
 8001486:	4618      	mov	r0, r3
 8001488:	3718      	adds	r7, #24
 800148a:	46bd      	mov	sp, r7
 800148c:	bd80      	pop	{r7, pc}

0800148e <_write>:
 800148e:	b580      	push	{r7, lr}
 8001490:	b086      	sub	sp, #24
 8001492:	af00      	add	r7, sp, #0
 8001494:	60f8      	str	r0, [r7, #12]
 8001496:	60b9      	str	r1, [r7, #8]
 8001498:	607a      	str	r2, [r7, #4]
 800149a:	2300      	movs	r3, #0
 800149c:	617b      	str	r3, [r7, #20]
 800149e:	e009      	b.n	80014b4 <_write+0x26>
 80014a0:	68bb      	ldr	r3, [r7, #8]
 80014a2:	1c5a      	adds	r2, r3, #1
 80014a4:	60ba      	str	r2, [r7, #8]
 80014a6:	781b      	ldrb	r3, [r3, #0]
 80014a8:	4618      	mov	r0, r3
 80014aa:	f3af 8000 	nop.w
 80014ae:	697b      	ldr	r3, [r7, #20]
 80014b0:	3301      	adds	r3, #1
 80014b2:	617b      	str	r3, [r7, #20]
 80014b4:	697a      	ldr	r2, [r7, #20]
 80014b6:	687b      	ldr	r3, [r7, #4]
 80014b8:	429a      	cmp	r2, r3
 80014ba:	dbf1      	blt.n	80014a0 <_write+0x12>
 80014bc:	687b      	ldr	r3, [r7, #4]
 80014be:	4618      	mov	r0, r3
 80014c0:	3718      	adds	r7, #24
 80014c2:	46bd      	mov	sp, r7
 80014c4:	bd80      	pop	{r7, pc}

080014c6 <_close>:
 80014c6:	b480      	push	{r7}
 80014c8:	b083      	sub	sp, #12
 80014ca:	af00      	add	r7, sp, #0
 80014cc:	6078      	str	r0, [r7, #4]
 80014ce:	f04f 33ff 	mov.w	r3, #4294967295
 80014d2:	4618      	mov	r0, r3
 80014d4:	370c      	adds	r7, #12
 80014d6:	46bd      	mov	sp, r7
 80014d8:	f85d 7b04 	ldr.w	r7, [sp], #4
 80014dc:	4770      	bx	lr

080014de <_fstat>:
 80014de:	b480      	push	{r7}
 80014e0:	b083      	sub	sp, #12
 80014e2:	af00      	add	r7, sp, #0
 80014e4:	6078      	str	r0, [r7, #4]
 80014e6:	6039      	str	r1, [r7, #0]
 80014e8:	683b      	ldr	r3, [r7, #0]
 80014ea:	f44f 5200 	mov.w	r2, #8192	; 0x2000
 80014ee:	605a      	str	r2, [r3, #4]
 80014f0:	2300      	movs	r3, #0
 80014f2:	4618      	mov	r0, r3
 80014f4:	370c      	adds	r7, #12
 80014f6:	46bd      	mov	sp, r7
 80014f8:	f85d 7b04 	ldr.w	r7, [sp], #4
 80014fc:	4770      	bx	lr

080014fe <_isatty>:
 80014fe:	b480      	push	{r7}
 8001500:	b083      	sub	sp, #12
 8001502:	af00      	add	r7, sp, #0
 8001504:	6078      	str	r0, [r7, #4]
 8001506:	2301      	movs	r3, #1
 8001508:	4618      	mov	r0, r3
 800150a:	370c      	adds	r7, #12
 800150c:	46bd      	mov	sp, r7
 800150e:	f85d 7b04 	ldr.w	r7, [sp], #4
 8001512:	4770      	bx	lr

08001514 <_lseek>:
 8001514:	b480      	push	{r7}
 8001516:	b085      	sub	sp, #20
 8001518:	af00      	add	r7, sp, #0
 800151a:	60f8      	str	r0, [r7, #12]
 800151c:	60b9      	str	r1, [r7, #8]
 800151e:	607a      	str	r2, [r7, #4]
 8001520:	2300      	movs	r3, #0
 8001522:	4618      	mov	r0, r3
 8001524:	3714      	adds	r7, #20
 8001526:	46bd      	mov	sp, r7
 8001528:	f85d 7b04 	ldr.w	r7, [sp], #4
 800152c:	4770      	bx	lr
	...

08001530 <_sbrk>:
 8001530:	b580      	push	{r7, lr}
 8001532:	b086      	sub	sp, #24
 8001534:	af00      	add	r7, sp, #0
 8001536:	6078      	str	r0, [r7, #4]
 8001538:	4a14      	ldr	r2, [pc, #80]	; (800158c <_sbrk+0x5c>)
 800153a:	4b15      	ldr	r3, [pc, #84]	; (8001590 <_sbrk+0x60>)
 800153c:	1ad3      	subs	r3, r2, r3
 800153e:	617b      	str	r3, [r7, #20]
 8001540:	697b      	ldr	r3, [r7, #20]
 8001542:	613b      	str	r3, [r7, #16]
 8001544:	4b13      	ldr	r3, [pc, #76]	; (8001594 <_sbrk+0x64>)
 8001546:	681b      	ldr	r3, [r3, #0]
 8001548:	2b00      	cmp	r3, #0
 800154a:	d102      	bne.n	8001552 <_sbrk+0x22>
 800154c:	4b11      	ldr	r3, [pc, #68]	; (8001594 <_sbrk+0x64>)
 800154e:	4a12      	ldr	r2, [pc, #72]	; (8001598 <_sbrk+0x68>)
 8001550:	601a      	str	r2, [r3, #0]
 8001552:	4b10      	ldr	r3, [pc, #64]	; (8001594 <_sbrk+0x64>)
 8001554:	681a      	ldr	r2, [r3, #0]
 8001556:	687b      	ldr	r3, [r7, #4]
 8001558:	4413      	add	r3, r2
 800155a:	693a      	ldr	r2, [r7, #16]
 800155c:	429a      	cmp	r2, r3
 800155e:	d207      	bcs.n	8001570 <_sbrk+0x40>
 8001560:	f005 f988 	bl	8006874 <__errno>
 8001564:	4603      	mov	r3, r0
 8001566:	220c      	movs	r2, #12
 8001568:	601a      	str	r2, [r3, #0]
 800156a:	f04f 33ff 	mov.w	r3, #4294967295
 800156e:	e009      	b.n	8001584 <_sbrk+0x54>
 8001570:	4b08      	ldr	r3, [pc, #32]	; (8001594 <_sbrk+0x64>)
 8001572:	681b      	ldr	r3, [r3, #0]
 8001574:	60fb      	str	r3, [r7, #12]
 8001576:	4b07      	ldr	r3, [pc, #28]	; (8001594 <_sbrk+0x64>)
 8001578:	681a      	ldr	r2, [r3, #0]
 800157a:	687b      	ldr	r3, [r7, #4]
 800157c:	4413      	add	r3, r2
 800157e:	4a05      	ldr	r2, [pc, #20]	; (8001594 <_sbrk+0x64>)
 8001580:	6013      	str	r3, [r2, #0]
 8001582:	68fb      	ldr	r3, [r7, #12]
 8001584:	4618      	mov	r0, r3
 8001586:	3718      	adds	r7, #24
 8001588:	46bd      	mov	sp, r7
 800158a:	bd80      	pop	{r7, pc}
 800158c:	20020000 	.word	0x20020000
 8001590:	00000400 	.word	0x00000400
 8001594:	2000030c 	.word	0x2000030c
 8001598:	20000460 	.word	0x20000460

0800159c <SystemInit>:
  * @param  None
  * @retval None
  */

void SystemInit(void)
{
 800159c:	b480      	push	{r7}
 800159e:	af00      	add	r7, sp, #0
  /* FPU settings ------------------------------------------------------------*/
  #if (__FPU_PRESENT == 1) && (__FPU_USED == 1)
    SCB->CPACR |= ((3UL << (10*2))|(3UL << (11*2)));  /* set CP10 and CP11 Full Access */
 80015a0:	4b06      	ldr	r3, [pc, #24]	; (80015bc <SystemInit+0x20>)
 80015a2:	f8d3 3088 	ldr.w	r3, [r3, #136]	; 0x88
 80015a6:	4a05      	ldr	r2, [pc, #20]	; (80015bc <SystemInit+0x20>)
 80015a8:	f443 0370 	orr.w	r3, r3, #15728640	; 0xf00000
 80015ac:	f8c2 3088 	str.w	r3, [r2, #136]	; 0x88

  /* Configure the Vector Table location add offset address ------------------*/
#if defined(USER_VECT_TAB_ADDRESS)
  SCB->VTOR = VECT_TAB_BASE_ADDRESS | VECT_TAB_OFFSET; /* Vector Table Relocation in Internal SRAM */
#endif /* USER_VECT_TAB_ADDRESS */
}
 80015b0:	bf00      	nop
 80015b2:	46bd      	mov	sp, r7
 80015b4:	f85d 7b04 	ldr.w	r7, [sp], #4
 80015b8:	4770      	bx	lr
 80015ba:	bf00      	nop
 80015bc:	e000ed00 	.word	0xe000ed00

080015c0 <Reset_Handler>:
 80015c0:	480d      	ldr	r0, [pc, #52]	; (80015f8 <LoopForever+0x2>)
 80015c2:	4685      	mov	sp, r0
 80015c4:	f7ff ffea 	bl	800159c <SystemInit>
 80015c8:	480c      	ldr	r0, [pc, #48]	; (80015fc <LoopForever+0x6>)
 80015ca:	490d      	ldr	r1, [pc, #52]	; (8001600 <LoopForever+0xa>)
 80015cc:	4a0d      	ldr	r2, [pc, #52]	; (8001604 <LoopForever+0xe>)
 80015ce:	2300      	movs	r3, #0
 80015d0:	e002      	b.n	80015d8 <LoopCopyDataInit>

080015d2 <CopyDataInit>:
 80015d2:	58d4      	ldr	r4, [r2, r3]
 80015d4:	50c4      	str	r4, [r0, r3]
 80015d6:	3304      	adds	r3, #4

080015d8 <LoopCopyDataInit>:
 80015d8:	18c4      	adds	r4, r0, r3
 80015da:	428c      	cmp	r4, r1
 80015dc:	d3f9      	bcc.n	80015d2 <CopyDataInit>
 80015de:	4a0a      	ldr	r2, [pc, #40]	; (8001608 <LoopForever+0x12>)
 80015e0:	4c0a      	ldr	r4, [pc, #40]	; (800160c <LoopForever+0x16>)
 80015e2:	2300      	movs	r3, #0
 80015e4:	e001      	b.n	80015ea <LoopFillZerobss>

080015e6 <FillZerobss>:
 80015e6:	6013      	str	r3, [r2, #0]
 80015e8:	3204      	adds	r2, #4

080015ea <LoopFillZerobss>:
 80015ea:	42a2      	cmp	r2, r4
 80015ec:	d3fb      	bcc.n	80015e6 <FillZerobss>
 80015ee:	f005 f947 	bl	8006880 <__libc_init_array>
 80015f2:	f7fe ffe3 	bl	80005bc <main>

080015f6 <LoopForever>:
 80015f6:	e7fe      	b.n	80015f6 <LoopForever>
 80015f8:	20020000 	.word	0x20020000
 80015fc:	20000000 	.word	0x20000000
 8001600:	20000080 	.word	0x20000080
 8001604:	08007664 	.word	0x08007664
 8001608:	20000080 	.word	0x20000080
 800160c:	20000460 	.word	0x20000460

08001610 <ADC1_2_IRQHandler>:
 8001610:	e7fe      	b.n	8001610 <ADC1_2_IRQHandler>

08001612 <HAL_Init>:
  *         each 1ms in the SysTick_Handler() interrupt handler.
  *
  * @retval HAL status
  */
HAL_StatusTypeDef HAL_Init(void)
{
 8001612:	b580      	push	{r7, lr}
 8001614:	b082      	sub	sp, #8
 8001616:	af00      	add	r7, sp, #0
  HAL_StatusTypeDef  status = HAL_OK;
 8001618:	2300      	movs	r3, #0
 800161a:	71fb      	strb	r3, [r7, #7]
#if (PREFETCH_ENABLE != 0U)
  __HAL_FLASH_PREFETCH_BUFFER_ENABLE();
#endif /* PREFETCH_ENABLE */

  /* Set Interrupt Group Priority */
  HAL_NVIC_SetPriorityGrouping(NVIC_PRIORITYGROUP_4);
 800161c:	2003      	movs	r0, #3
 800161e:	f000 f95b 	bl	80018d8 <HAL_NVIC_SetPriorityGrouping>

  /* Use SysTick as time base source and configure 1ms tick (default clock after Reset is HSI) */
  if (HAL_InitTick(TICK_INT_PRIORITY) != HAL_OK)
 8001622:	2000      	movs	r0, #0
 8001624:	f000 f80e 	bl	8001644 <HAL_InitTick>
 8001628:	4603      	mov	r3, r0
 800162a:	2b00      	cmp	r3, #0
 800162c:	d002      	beq.n	8001634 <HAL_Init+0x22>
  {
    status = HAL_ERROR;
 800162e:	2301      	movs	r3, #1
 8001630:	71fb      	strb	r3, [r7, #7]
 8001632:	e001      	b.n	8001638 <HAL_Init+0x26>
  }
  else
  {
    /* Init the low level hardware */
    HAL_MspInit();
 8001634:	f7ff fcde 	bl	8000ff4 <HAL_MspInit>
  }

  /* Return function status */
  return status;
 8001638:	79fb      	ldrb	r3, [r7, #7]

}
 800163a:	4618      	mov	r0, r3
 800163c:	3708      	adds	r7, #8
 800163e:	46bd      	mov	sp, r7
 8001640:	bd80      	pop	{r7, pc}
	...

08001644 <HAL_InitTick>:
  *       implementation  in user file.
  * @param TickPriority: Tick interrupt priority.
  * @retval HAL status
  */
__weak HAL_StatusTypeDef HAL_InitTick(uint32_t TickPriority)
{
 8001644:	b580      	push	{r7, lr}
 8001646:	b084      	sub	sp, #16
 8001648:	af00      	add	r7, sp, #0
 800164a:	6078      	str	r0, [r7, #4]
  HAL_StatusTypeDef  status = HAL_OK;
 800164c:	2300      	movs	r3, #0
 800164e:	73fb      	strb	r3, [r7, #15]

  if (uwTickFreq != 0U)
 8001650:	4b16      	ldr	r3, [pc, #88]	; (80016ac <HAL_InitTick+0x68>)
 8001652:	681b      	ldr	r3, [r3, #0]
 8001654:	2b00      	cmp	r3, #0
 8001656:	d022      	beq.n	800169e <HAL_InitTick+0x5a>
  {
    /* Configure the SysTick to have interrupt in 1ms time basis*/
    if (HAL_SYSTICK_Config(SystemCoreClock / (1000U / uwTickFreq)) == 0U)
 8001658:	4b15      	ldr	r3, [pc, #84]	; (80016b0 <HAL_InitTick+0x6c>)
 800165a:	681a      	ldr	r2, [r3, #0]
 800165c:	4b13      	ldr	r3, [pc, #76]	; (80016ac <HAL_InitTick+0x68>)
 800165e:	681b      	ldr	r3, [r3, #0]
 8001660:	f44f 717a 	mov.w	r1, #1000	; 0x3e8
 8001664:	fbb1 f3f3 	udiv	r3, r1, r3
 8001668:	fbb2 f3f3 	udiv	r3, r2, r3
 800166c:	4618      	mov	r0, r3
 800166e:	f000 f966 	bl	800193e <HAL_SYSTICK_Config>
 8001672:	4603      	mov	r3, r0
 8001674:	2b00      	cmp	r3, #0
 8001676:	d10f      	bne.n	8001698 <HAL_InitTick+0x54>
    {
      /* Configure the SysTick IRQ priority */
      if (TickPriority < (1UL << __NVIC_PRIO_BITS))
 8001678:	687b      	ldr	r3, [r7, #4]
 800167a:	2b0f      	cmp	r3, #15
 800167c:	d809      	bhi.n	8001692 <HAL_InitTick+0x4e>
      {
        HAL_NVIC_SetPriority(SysTick_IRQn, TickPriority, 0U);
 800167e:	2200      	movs	r2, #0
 8001680:	6879      	ldr	r1, [r7, #4]
 8001682:	f04f 30ff 	mov.w	r0, #4294967295
 8001686:	f000 f932 	bl	80018ee <HAL_NVIC_SetPriority>
        uwTickPrio = TickPriority;
 800168a:	4a0a      	ldr	r2, [pc, #40]	; (80016b4 <HAL_InitTick+0x70>)
 800168c:	687b      	ldr	r3, [r7, #4]
 800168e:	6013      	str	r3, [r2, #0]
 8001690:	e007      	b.n	80016a2 <HAL_InitTick+0x5e>
      }
      else
      {
        status = HAL_ERROR;
 8001692:	2301      	movs	r3, #1
 8001694:	73fb      	strb	r3, [r7, #15]
 8001696:	e004      	b.n	80016a2 <HAL_InitTick+0x5e>
      }
    }
    else
    {
      status = HAL_ERROR;
 8001698:	2301      	movs	r3, #1
 800169a:	73fb      	strb	r3, [r7, #15]
 800169c:	e001      	b.n	80016a2 <HAL_InitTick+0x5e>
    }
  }
  else
  {
    status = HAL_ERROR;
 800169e:	2301      	movs	r3, #1
 80016a0:	73fb      	strb	r3, [r7, #15]
  }

  /* Return function status */
  return status;
 80016a2:	7bfb      	ldrb	r3, [r7, #15]
}
 80016a4:	4618      	mov	r0, r3
 80016a6:	3710      	adds	r7, #16
 80016a8:	46bd      	mov	sp, r7
 80016aa:	bd80      	pop	{r7, pc}
 80016ac:	20000020 	.word	0x20000020
 80016b0:	20000018 	.word	0x20000018
 80016b4:	2000001c 	.word	0x2000001c

080016b8 <HAL_IncTick>:
  * @note This function is declared as __weak to be overwritten in case of other
  *      implementations in user file.
  * @retval None
  */
__weak void HAL_IncTick(void)
{
 80016b8:	b480      	push	{r7}
 80016ba:	af00      	add	r7, sp, #0
  uwTick += uwTickFreq;
 80016bc:	4b05      	ldr	r3, [pc, #20]	; (80016d4 <HAL_IncTick+0x1c>)
 80016be:	681a      	ldr	r2, [r3, #0]
 80016c0:	4b05      	ldr	r3, [pc, #20]	; (80016d8 <HAL_IncTick+0x20>)
 80016c2:	681b      	ldr	r3, [r3, #0]
 80016c4:	4413      	add	r3, r2
 80016c6:	4a03      	ldr	r2, [pc, #12]	; (80016d4 <HAL_IncTick+0x1c>)
 80016c8:	6013      	str	r3, [r2, #0]
}
 80016ca:	bf00      	nop
 80016cc:	46bd      	mov	sp, r7
 80016ce:	f85d 7b04 	ldr.w	r7, [sp], #4
 80016d2:	4770      	bx	lr
 80016d4:	20000310 	.word	0x20000310
 80016d8:	20000020 	.word	0x20000020

080016dc <HAL_GetTick>:
  * @note This function is declared as __weak to be overwritten in case of other
  *       implementations in user file.
  * @retval tick value
  */
__weak uint32_t HAL_GetTick(void)
{
 80016dc:	b480      	push	{r7}
 80016de:	af00      	add	r7, sp, #0
  return uwTick;
 80016e0:	4b03      	ldr	r3, [pc, #12]	; (80016f0 <HAL_GetTick+0x14>)
 80016e2:	681b      	ldr	r3, [r3, #0]
}
 80016e4:	4618      	mov	r0, r3
 80016e6:	46bd      	mov	sp, r7
 80016e8:	f85d 7b04 	ldr.w	r7, [sp], #4
 80016ec:	4770      	bx	lr
 80016ee:	bf00      	nop
 80016f0:	20000310 	.word	0x20000310

080016f4 <HAL_Delay>:
  *       implementations in user file.
  * @param Delay specifies the delay time length, in milliseconds.
  * @retval None
  */
__weak void HAL_Delay(uint32_t Delay)
{
 80016f4:	b580      	push	{r7, lr}
 80016f6:	b084      	sub	sp, #16
 80016f8:	af00      	add	r7, sp, #0
 80016fa:	6078      	str	r0, [r7, #4]
  uint32_t tickstart = HAL_GetTick();
 80016fc:	f7ff ffee 	bl	80016dc <HAL_GetTick>
 8001700:	60b8      	str	r0, [r7, #8]
  uint32_t wait = Delay;
 8001702:	687b      	ldr	r3, [r7, #4]
 8001704:	60fb      	str	r3, [r7, #12]

  /* Add a freq to guarantee minimum wait */
  if (wait < HAL_MAX_DELAY)
 8001706:	68fb      	ldr	r3, [r7, #12]
 8001708:	f1b3 3fff 	cmp.w	r3, #4294967295
 800170c:	d004      	beq.n	8001718 <HAL_Delay+0x24>
  {
    wait += (uint32_t)(uwTickFreq);
 800170e:	4b09      	ldr	r3, [pc, #36]	; (8001734 <HAL_Delay+0x40>)
 8001710:	681b      	ldr	r3, [r3, #0]
 8001712:	68fa      	ldr	r2, [r7, #12]
 8001714:	4413      	add	r3, r2
 8001716:	60fb      	str	r3, [r7, #12]
  }

  while ((HAL_GetTick() - tickstart) < wait)
 8001718:	bf00      	nop
 800171a:	f7ff ffdf 	bl	80016dc <HAL_GetTick>
 800171e:	4602      	mov	r2, r0
 8001720:	68bb      	ldr	r3, [r7, #8]
 8001722:	1ad3      	subs	r3, r2, r3
 8001724:	68fa      	ldr	r2, [r7, #12]
 8001726:	429a      	cmp	r2, r3
 8001728:	d8f7      	bhi.n	800171a <HAL_Delay+0x26>
  {
  }
}
 800172a:	bf00      	nop
 800172c:	bf00      	nop
 800172e:	3710      	adds	r7, #16
 8001730:	46bd      	mov	sp, r7
 8001732:	bd80      	pop	{r7, pc}
 8001734:	20000020 	.word	0x20000020

08001738 <__NVIC_SetPriorityGrouping>:
           In case of a conflict between priority grouping and available
           priority bits (__NVIC_PRIO_BITS), the smallest possible priority group is set.
  \param [in]      PriorityGroup  Priority grouping field.
 */
__STATIC_INLINE void __NVIC_SetPriorityGrouping(uint32_t PriorityGroup)
{
 8001738:	b480      	push	{r7}
 800173a:	b085      	sub	sp, #20
 800173c:	af00      	add	r7, sp, #0
 800173e:	6078      	str	r0, [r7, #4]
  uint32_t reg_value;
  uint32_t PriorityGroupTmp = (PriorityGroup & (uint32_t)0x07UL);             /* only values 0..7 are used          */
 8001740:	687b      	ldr	r3, [r7, #4]
 8001742:	f003 0307 	and.w	r3, r3, #7
 8001746:	60fb      	str	r3, [r7, #12]

  reg_value  =  SCB->AIRCR;                                                   /* read old register configuration    */
 8001748:	4b0c      	ldr	r3, [pc, #48]	; (800177c <__NVIC_SetPriorityGrouping+0x44>)
 800174a:	68db      	ldr	r3, [r3, #12]
 800174c:	60bb      	str	r3, [r7, #8]
  reg_value &= ~((uint32_t)(SCB_AIRCR_VECTKEY_Msk | SCB_AIRCR_PRIGROUP_Msk)); /* clear bits to change               */
 800174e:	68ba      	ldr	r2, [r7, #8]
 8001750:	f64f 03ff 	movw	r3, #63743	; 0xf8ff
 8001754:	4013      	ands	r3, r2
 8001756:	60bb      	str	r3, [r7, #8]
  reg_value  =  (reg_value                                   |
                ((uint32_t)0x5FAUL << SCB_AIRCR_VECTKEY_Pos) |
                (PriorityGroupTmp << SCB_AIRCR_PRIGROUP_Pos)  );              /* Insert write key and priority group */
 8001758:	68fb      	ldr	r3, [r7, #12]
 800175a:	021a      	lsls	r2, r3, #8
                ((uint32_t)0x5FAUL << SCB_AIRCR_VECTKEY_Pos) |
 800175c:	68bb      	ldr	r3, [r7, #8]
 800175e:	4313      	orrs	r3, r2
  reg_value  =  (reg_value                                   |
 8001760:	f043 63bf 	orr.w	r3, r3, #100139008	; 0x5f80000
 8001764:	f443 3300 	orr.w	r3, r3, #131072	; 0x20000
 8001768:	60bb      	str	r3, [r7, #8]
  SCB->AIRCR =  reg_value;
 800176a:	4a04      	ldr	r2, [pc, #16]	; (800177c <__NVIC_SetPriorityGrouping+0x44>)
 800176c:	68bb      	ldr	r3, [r7, #8]
 800176e:	60d3      	str	r3, [r2, #12]
}
 8001770:	bf00      	nop
 8001772:	3714      	adds	r7, #20
 8001774:	46bd      	mov	sp, r7
 8001776:	f85d 7b04 	ldr.w	r7, [sp], #4
 800177a:	4770      	bx	lr
 800177c:	e000ed00 	.word	0xe000ed00

08001780 <__NVIC_GetPriorityGrouping>:
  \brief   Get Priority Grouping
  \details Reads the priority grouping field from the NVIC Interrupt Controller.
  \return                Priority grouping field (SCB->AIRCR [10:8] PRIGROUP field).
 */
__STATIC_INLINE uint32_t __NVIC_GetPriorityGrouping(void)
{
 8001780:	b480      	push	{r7}
 8001782:	af00      	add	r7, sp, #0
  return ((uint32_t)((SCB->AIRCR & SCB_AIRCR_PRIGROUP_Msk) >> SCB_AIRCR_PRIGROUP_Pos));
 8001784:	4b04      	ldr	r3, [pc, #16]	; (8001798 <__NVIC_GetPriorityGrouping+0x18>)
 8001786:	68db      	ldr	r3, [r3, #12]
 8001788:	0a1b      	lsrs	r3, r3, #8
 800178a:	f003 0307 	and.w	r3, r3, #7
}
 800178e:	4618      	mov	r0, r3
 8001790:	46bd      	mov	sp, r7
 8001792:	f85d 7b04 	ldr.w	r7, [sp], #4
 8001796:	4770      	bx	lr
 8001798:	e000ed00 	.word	0xe000ed00

0800179c <__NVIC_EnableIRQ>:
  \details Enables a device specific interrupt in the NVIC interrupt controller.
  \param [in]      IRQn  Device specific interrupt number.
  \note    IRQn must not be negative.
 */
__STATIC_INLINE void __NVIC_EnableIRQ(IRQn_Type IRQn)
{
 800179c:	b480      	push	{r7}
 800179e:	b083      	sub	sp, #12
 80017a0:	af00      	add	r7, sp, #0
 80017a2:	4603      	mov	r3, r0
 80017a4:	71fb      	strb	r3, [r7, #7]
  if ((int32_t)(IRQn) >= 0)
 80017a6:	f997 3007 	ldrsb.w	r3, [r7, #7]
 80017aa:	2b00      	cmp	r3, #0
 80017ac:	db0b      	blt.n	80017c6 <__NVIC_EnableIRQ+0x2a>
  {
    __COMPILER_BARRIER();
    NVIC->ISER[(((uint32_t)IRQn) >> 5UL)] = (uint32_t)(1UL << (((uint32_t)IRQn) & 0x1FUL));
 80017ae:	79fb      	ldrb	r3, [r7, #7]
 80017b0:	f003 021f 	and.w	r2, r3, #31
 80017b4:	4907      	ldr	r1, [pc, #28]	; (80017d4 <__NVIC_EnableIRQ+0x38>)
 80017b6:	f997 3007 	ldrsb.w	r3, [r7, #7]
 80017ba:	095b      	lsrs	r3, r3, #5
 80017bc:	2001      	movs	r0, #1
 80017be:	fa00 f202 	lsl.w	r2, r0, r2
 80017c2:	f841 2023 	str.w	r2, [r1, r3, lsl #2]
    __COMPILER_BARRIER();
  }
}
 80017c6:	bf00      	nop
 80017c8:	370c      	adds	r7, #12
 80017ca:	46bd      	mov	sp, r7
 80017cc:	f85d 7b04 	ldr.w	r7, [sp], #4
 80017d0:	4770      	bx	lr
 80017d2:	bf00      	nop
 80017d4:	e000e100 	.word	0xe000e100

080017d8 <__NVIC_SetPriority>:
  \param [in]      IRQn  Interrupt number.
  \param [in]  priority  Priority to set.
  \note    The priority cannot be set for every processor exception.
 */
__STATIC_INLINE void __NVIC_SetPriority(IRQn_Type IRQn, uint32_t priority)
{
 80017d8:	b480      	push	{r7}
 80017da:	b083      	sub	sp, #12
 80017dc:	af00      	add	r7, sp, #0
 80017de:	4603      	mov	r3, r0
 80017e0:	6039      	str	r1, [r7, #0]
 80017e2:	71fb      	strb	r3, [r7, #7]
  if ((int32_t)(IRQn) >= 0)
 80017e4:	f997 3007 	ldrsb.w	r3, [r7, #7]
 80017e8:	2b00      	cmp	r3, #0
 80017ea:	db0a      	blt.n	8001802 <__NVIC_SetPriority+0x2a>
  {
    NVIC->IP[((uint32_t)IRQn)]               = (uint8_t)((priority << (8U - __NVIC_PRIO_BITS)) & (uint32_t)0xFFUL);
 80017ec:	683b      	ldr	r3, [r7, #0]
 80017ee:	b2da      	uxtb	r2, r3
 80017f0:	490c      	ldr	r1, [pc, #48]	; (8001824 <__NVIC_SetPriority+0x4c>)
 80017f2:	f997 3007 	ldrsb.w	r3, [r7, #7]
 80017f6:	0112      	lsls	r2, r2, #4
 80017f8:	b2d2      	uxtb	r2, r2
 80017fa:	440b      	add	r3, r1
 80017fc:	f883 2300 	strb.w	r2, [r3, #768]	; 0x300
  }
  else
  {
    SCB->SHP[(((uint32_t)IRQn) & 0xFUL)-4UL] = (uint8_t)((priority << (8U - __NVIC_PRIO_BITS)) & (uint32_t)0xFFUL);
  }
}
 8001800:	e00a      	b.n	8001818 <__NVIC_SetPriority+0x40>
    SCB->SHP[(((uint32_t)IRQn) & 0xFUL)-4UL] = (uint8_t)((priority << (8U - __NVIC_PRIO_BITS)) & (uint32_t)0xFFUL);
 8001802:	683b      	ldr	r3, [r7, #0]
 8001804:	b2da      	uxtb	r2, r3
 8001806:	4908      	ldr	r1, [pc, #32]	; (8001828 <__NVIC_SetPriority+0x50>)
 8001808:	79fb      	ldrb	r3, [r7, #7]
 800180a:	f003 030f 	and.w	r3, r3, #15
 800180e:	3b04      	subs	r3, #4
 8001810:	0112      	lsls	r2, r2, #4
 8001812:	b2d2      	uxtb	r2, r2
 8001814:	440b      	add	r3, r1
 8001816:	761a      	strb	r2, [r3, #24]
}
 8001818:	bf00      	nop
 800181a:	370c      	adds	r7, #12
 800181c:	46bd      	mov	sp, r7
 800181e:	f85d 7b04 	ldr.w	r7, [sp], #4
 8001822:	4770      	bx	lr
 8001824:	e000e100 	.word	0xe000e100
 8001828:	e000ed00 	.word	0xe000ed00

0800182c <NVIC_EncodePriority>:
  \param [in]   PreemptPriority  Preemptive priority value (starting from 0).
  \param [in]       SubPriority  Subpriority value (starting from 0).
  \return                        Encoded priority. Value can be used in the function \ref NVIC_SetPriority().
 */
__STATIC_INLINE uint32_t NVIC_EncodePriority (uint32_t PriorityGroup, uint32_t PreemptPriority, uint32_t SubPriority)
{
 800182c:	b480      	push	{r7}
 800182e:	b089      	sub	sp, #36	; 0x24
 8001830:	af00      	add	r7, sp, #0
 8001832:	60f8      	str	r0, [r7, #12]
 8001834:	60b9      	str	r1, [r7, #8]
 8001836:	607a      	str	r2, [r7, #4]
  uint32_t PriorityGroupTmp = (PriorityGroup & (uint32_t)0x07UL);   /* only values 0..7 are used          */
 8001838:	68fb      	ldr	r3, [r7, #12]
 800183a:	f003 0307 	and.w	r3, r3, #7
 800183e:	61fb      	str	r3, [r7, #28]
  uint32_t PreemptPriorityBits;
  uint32_t SubPriorityBits;

  PreemptPriorityBits = ((7UL - PriorityGroupTmp) > (uint32_t)(__NVIC_PRIO_BITS)) ? (uint32_t)(__NVIC_PRIO_BITS) : (uint32_t)(7UL - PriorityGroupTmp);
 8001840:	69fb      	ldr	r3, [r7, #28]
 8001842:	f1c3 0307 	rsb	r3, r3, #7
 8001846:	2b04      	cmp	r3, #4
 8001848:	bf28      	it	cs
 800184a:	2304      	movcs	r3, #4
 800184c:	61bb      	str	r3, [r7, #24]
  SubPriorityBits     = ((PriorityGroupTmp + (uint32_t)(__NVIC_PRIO_BITS)) < (uint32_t)7UL) ? (uint32_t)0UL : (uint32_t)((PriorityGroupTmp - 7UL) + (uint32_t)(__NVIC_PRIO_BITS));
 800184e:	69fb      	ldr	r3, [r7, #28]
 8001850:	3304      	adds	r3, #4
 8001852:	2b06      	cmp	r3, #6
 8001854:	d902      	bls.n	800185c <NVIC_EncodePriority+0x30>
 8001856:	69fb      	ldr	r3, [r7, #28]
 8001858:	3b03      	subs	r3, #3
 800185a:	e000      	b.n	800185e <NVIC_EncodePriority+0x32>
 800185c:	2300      	movs	r3, #0
 800185e:	617b      	str	r3, [r7, #20]

  return (
           ((PreemptPriority & (uint32_t)((1UL << (PreemptPriorityBits)) - 1UL)) << SubPriorityBits) |
 8001860:	f04f 32ff 	mov.w	r2, #4294967295
 8001864:	69bb      	ldr	r3, [r7, #24]
 8001866:	fa02 f303 	lsl.w	r3, r2, r3
 800186a:	43da      	mvns	r2, r3
 800186c:	68bb      	ldr	r3, [r7, #8]
 800186e:	401a      	ands	r2, r3
 8001870:	697b      	ldr	r3, [r7, #20]
 8001872:	409a      	lsls	r2, r3
           ((SubPriority     & (uint32_t)((1UL << (SubPriorityBits    )) - 1UL)))
 8001874:	f04f 31ff 	mov.w	r1, #4294967295
 8001878:	697b      	ldr	r3, [r7, #20]
 800187a:	fa01 f303 	lsl.w	r3, r1, r3
 800187e:	43d9      	mvns	r1, r3
 8001880:	687b      	ldr	r3, [r7, #4]
 8001882:	400b      	ands	r3, r1
           ((PreemptPriority & (uint32_t)((1UL << (PreemptPriorityBits)) - 1UL)) << SubPriorityBits) |
 8001884:	4313      	orrs	r3, r2
         );
}
 8001886:	4618      	mov	r0, r3
 8001888:	3724      	adds	r7, #36	; 0x24
 800188a:	46bd      	mov	sp, r7
 800188c:	f85d 7b04 	ldr.w	r7, [sp], #4
 8001890:	4770      	bx	lr
	...

08001894 <SysTick_Config>:
  \note    When the variable <b>__Vendor_SysTickConfig</b> is set to 1, then the
           function <b>SysTick_Config</b> is not included. In this case, the file <b><i>device</i>.h</b>
           must contain a vendor-specific implementation of this function.
 */
__STATIC_INLINE uint32_t SysTick_Config(uint32_t ticks)
{
 8001894:	b580      	push	{r7, lr}
 8001896:	b082      	sub	sp, #8
 8001898:	af00      	add	r7, sp, #0
 800189a:	6078      	str	r0, [r7, #4]
  if ((ticks - 1UL) > SysTick_LOAD_RELOAD_Msk)
 800189c:	687b      	ldr	r3, [r7, #4]
 800189e:	3b01      	subs	r3, #1
 80018a0:	f1b3 7f80 	cmp.w	r3, #16777216	; 0x1000000
 80018a4:	d301      	bcc.n	80018aa <SysTick_Config+0x16>
  {
    return (1UL);                                                   /* Reload value impossible */
 80018a6:	2301      	movs	r3, #1
 80018a8:	e00f      	b.n	80018ca <SysTick_Config+0x36>
  }

  SysTick->LOAD  = (uint32_t)(ticks - 1UL);                         /* set reload register */
 80018aa:	4a0a      	ldr	r2, [pc, #40]	; (80018d4 <SysTick_Config+0x40>)
 80018ac:	687b      	ldr	r3, [r7, #4]
 80018ae:	3b01      	subs	r3, #1
 80018b0:	6053      	str	r3, [r2, #4]
  NVIC_SetPriority (SysTick_IRQn, (1UL << __NVIC_PRIO_BITS) - 1UL); /* set Priority for Systick Interrupt */
 80018b2:	210f      	movs	r1, #15
 80018b4:	f04f 30ff 	mov.w	r0, #4294967295
 80018b8:	f7ff ff8e 	bl	80017d8 <__NVIC_SetPriority>
  SysTick->VAL   = 0UL;                                             /* Load the SysTick Counter Value */
 80018bc:	4b05      	ldr	r3, [pc, #20]	; (80018d4 <SysTick_Config+0x40>)
 80018be:	2200      	movs	r2, #0
 80018c0:	609a      	str	r2, [r3, #8]
  SysTick->CTRL  = SysTick_CTRL_CLKSOURCE_Msk |
 80018c2:	4b04      	ldr	r3, [pc, #16]	; (80018d4 <SysTick_Config+0x40>)
 80018c4:	2207      	movs	r2, #7
 80018c6:	601a      	str	r2, [r3, #0]
                   SysTick_CTRL_TICKINT_Msk   |
                   SysTick_CTRL_ENABLE_Msk;                         /* Enable SysTick IRQ and SysTick Timer */
  return (0UL);                                                     /* Function successful */
 80018c8:	2300      	movs	r3, #0
}
 80018ca:	4618      	mov	r0, r3
 80018cc:	3708      	adds	r7, #8
 80018ce:	46bd      	mov	sp, r7
 80018d0:	bd80      	pop	{r7, pc}
 80018d2:	bf00      	nop
 80018d4:	e000e010 	.word	0xe000e010

080018d8 <HAL_NVIC_SetPriorityGrouping>:
  * @note   When the NVIC_PriorityGroup_0 is selected, IRQ pre-emption is no more possible.
  *         The pending IRQ priority will be managed only by the subpriority.
  * @retval None
  */
void HAL_NVIC_SetPriorityGrouping(uint32_t PriorityGroup)
{
 80018d8:	b580      	push	{r7, lr}
 80018da:	b082      	sub	sp, #8
 80018dc:	af00      	add	r7, sp, #0
 80018de:	6078      	str	r0, [r7, #4]
  /* Check the parameters */
  assert_param(IS_NVIC_PRIORITY_GROUP(PriorityGroup));

  /* Set the PRIGROUP[10:8] bits according to the PriorityGroup parameter value */
  NVIC_SetPriorityGrouping(PriorityGroup);
 80018e0:	6878      	ldr	r0, [r7, #4]
 80018e2:	f7ff ff29 	bl	8001738 <__NVIC_SetPriorityGrouping>
}
 80018e6:	bf00      	nop
 80018e8:	3708      	adds	r7, #8
 80018ea:	46bd      	mov	sp, r7
 80018ec:	bd80      	pop	{r7, pc}

080018ee <HAL_NVIC_SetPriority>:
  *         This parameter can be a value between 0 and 15
  *         A lower priority value indicates a higher priority.
  * @retval None
  */
void HAL_NVIC_SetPriority(IRQn_Type IRQn, uint32_t PreemptPriority, uint32_t SubPriority)
{
 80018ee:	b580      	push	{r7, lr}
 80018f0:	b086      	sub	sp, #24
 80018f2:	af00      	add	r7, sp, #0
 80018f4:	4603      	mov	r3, r0
 80018f6:	60b9      	str	r1, [r7, #8]
 80018f8:	607a      	str	r2, [r7, #4]
 80018fa:	73fb      	strb	r3, [r7, #15]

  /* Check the parameters */
  assert_param(IS_NVIC_SUB_PRIORITY(SubPriority));
  assert_param(IS_NVIC_PREEMPTION_PRIORITY(PreemptPriority));

  prioritygroup = NVIC_GetPriorityGrouping();
 80018fc:	f7ff ff40 	bl	8001780 <__NVIC_GetPriorityGrouping>
 8001900:	6178      	str	r0, [r7, #20]

  NVIC_SetPriority(IRQn, NVIC_EncodePriority(prioritygroup, PreemptPriority, SubPriority));
 8001902:	687a      	ldr	r2, [r7, #4]
 8001904:	68b9      	ldr	r1, [r7, #8]
 8001906:	6978      	ldr	r0, [r7, #20]
 8001908:	f7ff ff90 	bl	800182c <NVIC_EncodePriority>
 800190c:	4602      	mov	r2, r0
 800190e:	f997 300f 	ldrsb.w	r3, [r7, #15]
 8001912:	4611      	mov	r1, r2
 8001914:	4618      	mov	r0, r3
 8001916:	f7ff ff5f 	bl	80017d8 <__NVIC_SetPriority>
}
 800191a:	bf00      	nop
 800191c:	3718      	adds	r7, #24
 800191e:	46bd      	mov	sp, r7
 8001920:	bd80      	pop	{r7, pc}

08001922 <HAL_NVIC_EnableIRQ>:
  *         This parameter can be an enumerator of IRQn_Type enumeration
  *         (For the complete STM32 Devices IRQ Channels list, please refer to the appropriate CMSIS device file (stm32g4xxxx.h))
  * @retval None
  */
void HAL_NVIC_EnableIRQ(IRQn_Type IRQn)
{
 8001922:	b580      	push	{r7, lr}
 8001924:	b082      	sub	sp, #8
 8001926:	af00      	add	r7, sp, #0
 8001928:	4603      	mov	r3, r0
 800192a:	71fb      	strb	r3, [r7, #7]
  /* Check the parameters */
  assert_param(IS_NVIC_DEVICE_IRQ(IRQn));
  
  /* Enable interrupt */
  NVIC_EnableIRQ(IRQn);
 800192c:	f997 3007 	ldrsb.w	r3, [r7, #7]
 8001930:	4618      	mov	r0, r3
 8001932:	f7ff ff33 	bl	800179c <__NVIC_EnableIRQ>
}
 8001936:	bf00      	nop
 8001938:	3708      	adds	r7, #8
 800193a:	46bd      	mov	sp, r7
 800193c:	bd80      	pop	{r7, pc}

0800193e <HAL_SYSTICK_Config>:
  * @param  TicksNumb: Specifies the ticks Number of ticks between two interrupts.
  * @retval status:  - 0  Function succeeded.
  *                  - 1  Function failed.
  */
uint32_t HAL_SYSTICK_Config(uint32_t TicksNumb)
{
 800193e:	b580      	push	{r7, lr}
 8001940:	b082      	sub	sp, #8
 8001942:	af00      	add	r7, sp, #0
 8001944:	6078      	str	r0, [r7, #4]
   return SysTick_Config(TicksNumb);
 8001946:	6878      	ldr	r0, [r7, #4]
 8001948:	f7ff ffa4 	bl	8001894 <SysTick_Config>
 800194c:	4603      	mov	r3, r0
}
 800194e:	4618      	mov	r0, r3
 8001950:	3708      	adds	r7, #8
 8001952:	46bd      	mov	sp, r7
 8001954:	bd80      	pop	{r7, pc}
	...

08001958 <HAL_DMA_Init>:
  * @param  hdma Pointer to a DMA_HandleTypeDef structure that contains
  *               the configuration information for the specified DMA Channel.
  * @retval HAL status
  */
HAL_StatusTypeDef HAL_DMA_Init(DMA_HandleTypeDef *hdma)
{
 8001958:	b580      	push	{r7, lr}
 800195a:	b084      	sub	sp, #16
 800195c:	af00      	add	r7, sp, #0
 800195e:	6078      	str	r0, [r7, #4]
  uint32_t tmp;

  /* Check the DMA handle allocation */
  if (hdma == NULL)
 8001960:	687b      	ldr	r3, [r7, #4]
 8001962:	2b00      	cmp	r3, #0
 8001964:	d101      	bne.n	800196a <HAL_DMA_Init+0x12>
  {
    return HAL_ERROR;
 8001966:	2301      	movs	r3, #1
 8001968:	e08d      	b.n	8001a86 <HAL_DMA_Init+0x12e>
  assert_param(IS_DMA_PRIORITY(hdma->Init.Priority));

  assert_param(IS_DMA_ALL_REQUEST(hdma->Init.Request));

  /* Compute the channel index */
  if ((uint32_t)(hdma->Instance) < (uint32_t)(DMA2_Channel1))
 800196a:	687b      	ldr	r3, [r7, #4]
 800196c:	681b      	ldr	r3, [r3, #0]
 800196e:	461a      	mov	r2, r3
 8001970:	4b47      	ldr	r3, [pc, #284]	; (8001a90 <HAL_DMA_Init+0x138>)
 8001972:	429a      	cmp	r2, r3
 8001974:	d80f      	bhi.n	8001996 <HAL_DMA_Init+0x3e>
  {
    /* DMA1 */
    hdma->ChannelIndex = (((uint32_t)hdma->Instance - (uint32_t)DMA1_Channel1) / ((uint32_t)DMA1_Channel2 - (uint32_t)DMA1_Channel1)) << 2;
 8001976:	687b      	ldr	r3, [r7, #4]
 8001978:	681b      	ldr	r3, [r3, #0]
 800197a:	461a      	mov	r2, r3
 800197c:	4b45      	ldr	r3, [pc, #276]	; (8001a94 <HAL_DMA_Init+0x13c>)
 800197e:	4413      	add	r3, r2
 8001980:	4a45      	ldr	r2, [pc, #276]	; (8001a98 <HAL_DMA_Init+0x140>)
 8001982:	fba2 2303 	umull	r2, r3, r2, r3
 8001986:	091b      	lsrs	r3, r3, #4
 8001988:	009a      	lsls	r2, r3, #2
 800198a:	687b      	ldr	r3, [r7, #4]
 800198c:	645a      	str	r2, [r3, #68]	; 0x44
    hdma->DmaBaseAddress = DMA1;
 800198e:	687b      	ldr	r3, [r7, #4]
 8001990:	4a42      	ldr	r2, [pc, #264]	; (8001a9c <HAL_DMA_Init+0x144>)
 8001992:	641a      	str	r2, [r3, #64]	; 0x40
 8001994:	e00e      	b.n	80019b4 <HAL_DMA_Init+0x5c>
  }
  else
  {
    /* DMA2 */
    hdma->ChannelIndex = (((uint32_t)hdma->Instance - (uint32_t)DMA2_Channel1) / ((uint32_t)DMA2_Channel2 - (uint32_t)DMA2_Channel1)) << 2;
 8001996:	687b      	ldr	r3, [r7, #4]
 8001998:	681b      	ldr	r3, [r3, #0]
 800199a:	461a      	mov	r2, r3
 800199c:	4b40      	ldr	r3, [pc, #256]	; (8001aa0 <HAL_DMA_Init+0x148>)
 800199e:	4413      	add	r3, r2
 80019a0:	4a3d      	ldr	r2, [pc, #244]	; (8001a98 <HAL_DMA_Init+0x140>)
 80019a2:	fba2 2303 	umull	r2, r3, r2, r3
 80019a6:	091b      	lsrs	r3, r3, #4
 80019a8:	009a      	lsls	r2, r3, #2
 80019aa:	687b      	ldr	r3, [r7, #4]
 80019ac:	645a      	str	r2, [r3, #68]	; 0x44
    hdma->DmaBaseAddress = DMA2;
 80019ae:	687b      	ldr	r3, [r7, #4]
 80019b0:	4a3c      	ldr	r2, [pc, #240]	; (8001aa4 <HAL_DMA_Init+0x14c>)
 80019b2:	641a      	str	r2, [r3, #64]	; 0x40
  }

  /* Change DMA peripheral state */
  hdma->State = HAL_DMA_STATE_BUSY;
 80019b4:	687b      	ldr	r3, [r7, #4]
 80019b6:	2202      	movs	r2, #2
 80019b8:	f883 2025 	strb.w	r2, [r3, #37]	; 0x25

  /* Get the CR register value */
  tmp = hdma->Instance->CCR;
 80019bc:	687b      	ldr	r3, [r7, #4]
 80019be:	681b      	ldr	r3, [r3, #0]
 80019c0:	681b      	ldr	r3, [r3, #0]
 80019c2:	60fb      	str	r3, [r7, #12]

  /* Clear PL, MSIZE, PSIZE, MINC, PINC, CIRC, DIR and MEM2MEM bits */
  tmp &= ((uint32_t)~(DMA_CCR_PL    | DMA_CCR_MSIZE  | DMA_CCR_PSIZE  |
 80019c4:	68fb      	ldr	r3, [r7, #12]
 80019c6:	f423 43ff 	bic.w	r3, r3, #32640	; 0x7f80
 80019ca:	f023 0370 	bic.w	r3, r3, #112	; 0x70
 80019ce:	60fb      	str	r3, [r7, #12]
                      DMA_CCR_MINC  | DMA_CCR_PINC   | DMA_CCR_CIRC   |
                      DMA_CCR_DIR   | DMA_CCR_MEM2MEM));

  /* Prepare the DMA Channel configuration */
  tmp |=  hdma->Init.Direction        |
 80019d0:	687b      	ldr	r3, [r7, #4]
 80019d2:	689a      	ldr	r2, [r3, #8]
          hdma->Init.PeriphInc           | hdma->Init.MemInc           |
 80019d4:	687b      	ldr	r3, [r7, #4]
 80019d6:	68db      	ldr	r3, [r3, #12]
  tmp |=  hdma->Init.Direction        |
 80019d8:	431a      	orrs	r2, r3
          hdma->Init.PeriphInc           | hdma->Init.MemInc           |
 80019da:	687b      	ldr	r3, [r7, #4]
 80019dc:	691b      	ldr	r3, [r3, #16]
 80019de:	431a      	orrs	r2, r3
          hdma->Init.PeriphDataAlignment | hdma->Init.MemDataAlignment |
 80019e0:	687b      	ldr	r3, [r7, #4]
 80019e2:	695b      	ldr	r3, [r3, #20]
          hdma->Init.PeriphInc           | hdma->Init.MemInc           |
 80019e4:	431a      	orrs	r2, r3
          hdma->Init.PeriphDataAlignment | hdma->Init.MemDataAlignment |
 80019e6:	687b      	ldr	r3, [r7, #4]
 80019e8:	699b      	ldr	r3, [r3, #24]
 80019ea:	431a      	orrs	r2, r3
          hdma->Init.Mode                | hdma->Init.Priority;
 80019ec:	687b      	ldr	r3, [r7, #4]
 80019ee:	69db      	ldr	r3, [r3, #28]
          hdma->Init.PeriphDataAlignment | hdma->Init.MemDataAlignment |
 80019f0:	431a      	orrs	r2, r3
          hdma->Init.Mode                | hdma->Init.Priority;
 80019f2:	687b      	ldr	r3, [r7, #4]
 80019f4:	6a1b      	ldr	r3, [r3, #32]
 80019f6:	4313      	orrs	r3, r2
  tmp |=  hdma->Init.Direction        |
 80019f8:	68fa      	ldr	r2, [r7, #12]
 80019fa:	4313      	orrs	r3, r2
 80019fc:	60fb      	str	r3, [r7, #12]

  /* Write to DMA Channel CR register */
  hdma->Instance->CCR = tmp;
 80019fe:	687b      	ldr	r3, [r7, #4]
 8001a00:	681b      	ldr	r3, [r3, #0]
 8001a02:	68fa      	ldr	r2, [r7, #12]
 8001a04:	601a      	str	r2, [r3, #0]

  /* Initialize parameters for DMAMUX channel :
     DMAmuxChannel, DMAmuxChannelStatus and DMAmuxChannelStatusMask
  */
  DMA_CalcDMAMUXChannelBaseAndMask(hdma);
 8001a06:	6878      	ldr	r0, [r7, #4]
 8001a08:	f000 f972 	bl	8001cf0 <DMA_CalcDMAMUXChannelBaseAndMask>

  if (hdma->Init.Direction == DMA_MEMORY_TO_MEMORY)
 8001a0c:	687b      	ldr	r3, [r7, #4]
 8001a0e:	689b      	ldr	r3, [r3, #8]
 8001a10:	f5b3 4f80 	cmp.w	r3, #16384	; 0x4000
 8001a14:	d102      	bne.n	8001a1c <HAL_DMA_Init+0xc4>
  {
    /* if memory to memory force the request to 0*/
    hdma->Init.Request = DMA_REQUEST_MEM2MEM;
 8001a16:	687b      	ldr	r3, [r7, #4]
 8001a18:	2200      	movs	r2, #0
 8001a1a:	605a      	str	r2, [r3, #4]
  }

  /* Set peripheral request  to DMAMUX channel */
  hdma->DMAmuxChannel->CCR = (hdma->Init.Request & DMAMUX_CxCR_DMAREQ_ID);
 8001a1c:	687b      	ldr	r3, [r7, #4]
 8001a1e:	685a      	ldr	r2, [r3, #4]
 8001a20:	687b      	ldr	r3, [r7, #4]
 8001a22:	6c9b      	ldr	r3, [r3, #72]	; 0x48
 8001a24:	b2d2      	uxtb	r2, r2
 8001a26:	601a      	str	r2, [r3, #0]

  /* Clear the DMAMUX synchro overrun flag */
  hdma->DMAmuxChannelStatus->CFR = hdma->DMAmuxChannelStatusMask;
 8001a28:	687b      	ldr	r3, [r7, #4]
 8001a2a:	6cdb      	ldr	r3, [r3, #76]	; 0x4c
 8001a2c:	687a      	ldr	r2, [r7, #4]
 8001a2e:	6d12      	ldr	r2, [r2, #80]	; 0x50
 8001a30:	605a      	str	r2, [r3, #4]

  if (((hdma->Init.Request >  0U) && (hdma->Init.Request <= DMA_REQUEST_GENERATOR3)))
 8001a32:	687b      	ldr	r3, [r7, #4]
 8001a34:	685b      	ldr	r3, [r3, #4]
 8001a36:	2b00      	cmp	r3, #0
 8001a38:	d010      	beq.n	8001a5c <HAL_DMA_Init+0x104>
 8001a3a:	687b      	ldr	r3, [r7, #4]
 8001a3c:	685b      	ldr	r3, [r3, #4]
 8001a3e:	2b04      	cmp	r3, #4
 8001a40:	d80c      	bhi.n	8001a5c <HAL_DMA_Init+0x104>
  {
    /* Initialize parameters for DMAMUX request generator :
       DMAmuxRequestGen, DMAmuxRequestGenStatus and DMAmuxRequestGenStatusMask
    */
    DMA_CalcDMAMUXRequestGenBaseAndMask(hdma);
 8001a42:	6878      	ldr	r0, [r7, #4]
 8001a44:	f000 f992 	bl	8001d6c <DMA_CalcDMAMUXRequestGenBaseAndMask>

    /* Reset the DMAMUX request generator register*/
    hdma->DMAmuxRequestGen->RGCR = 0U;
 8001a48:	687b      	ldr	r3, [r7, #4]
 8001a4a:	6d5b      	ldr	r3, [r3, #84]	; 0x54
 8001a4c:	2200      	movs	r2, #0
 8001a4e:	601a      	str	r2, [r3, #0]

    /* Clear the DMAMUX request generator overrun flag */
    hdma->DMAmuxRequestGenStatus->RGCFR = hdma->DMAmuxRequestGenStatusMask;
 8001a50:	687b      	ldr	r3, [r7, #4]
 8001a52:	6d9b      	ldr	r3, [r3, #88]	; 0x58
 8001a54:	687a      	ldr	r2, [r7, #4]
 8001a56:	6dd2      	ldr	r2, [r2, #92]	; 0x5c
 8001a58:	605a      	str	r2, [r3, #4]
 8001a5a:	e008      	b.n	8001a6e <HAL_DMA_Init+0x116>
  }
  else
  {
    hdma->DMAmuxRequestGen = 0U;
 8001a5c:	687b      	ldr	r3, [r7, #4]
 8001a5e:	2200      	movs	r2, #0
 8001a60:	655a      	str	r2, [r3, #84]	; 0x54
    hdma->DMAmuxRequestGenStatus = 0U;
 8001a62:	687b      	ldr	r3, [r7, #4]
 8001a64:	2200      	movs	r2, #0
 8001a66:	659a      	str	r2, [r3, #88]	; 0x58
    hdma->DMAmuxRequestGenStatusMask = 0U;
 8001a68:	687b      	ldr	r3, [r7, #4]
 8001a6a:	2200      	movs	r2, #0
 8001a6c:	65da      	str	r2, [r3, #92]	; 0x5c
  }

  /* Initialize the error code */
  hdma->ErrorCode = HAL_DMA_ERROR_NONE;
 8001a6e:	687b      	ldr	r3, [r7, #4]
 8001a70:	2200      	movs	r2, #0
 8001a72:	63da      	str	r2, [r3, #60]	; 0x3c

  /* Initialize the DMA state*/
  hdma->State  = HAL_DMA_STATE_READY;
 8001a74:	687b      	ldr	r3, [r7, #4]
 8001a76:	2201      	movs	r2, #1
 8001a78:	f883 2025 	strb.w	r2, [r3, #37]	; 0x25

  /* Allocate lock resource and initialize it */
  hdma->Lock = HAL_UNLOCKED;
 8001a7c:	687b      	ldr	r3, [r7, #4]
 8001a7e:	2200      	movs	r2, #0
 8001a80:	f883 2024 	strb.w	r2, [r3, #36]	; 0x24

  return HAL_OK;
 8001a84:	2300      	movs	r3, #0
}
 8001a86:	4618      	mov	r0, r3
 8001a88:	3710      	adds	r7, #16
 8001a8a:	46bd      	mov	sp, r7
 8001a8c:	bd80      	pop	{r7, pc}
 8001a8e:	bf00      	nop
 8001a90:	40020407 	.word	0x40020407
 8001a94:	bffdfff8 	.word	0xbffdfff8
 8001a98:	cccccccd 	.word	0xcccccccd
 8001a9c:	40020000 	.word	0x40020000
 8001aa0:	bffdfbf8 	.word	0xbffdfbf8
 8001aa4:	40020400 	.word	0x40020400

08001aa8 <HAL_DMA_Abort_IT>:
  * @param  hdma pointer to a DMA_HandleTypeDef structure that contains
  *              the configuration information for the specified DMA Channel.
  * @retval HAL status
  */
HAL_StatusTypeDef HAL_DMA_Abort_IT(DMA_HandleTypeDef *hdma)
{
 8001aa8:	b580      	push	{r7, lr}
 8001aaa:	b084      	sub	sp, #16
 8001aac:	af00      	add	r7, sp, #0
 8001aae:	6078      	str	r0, [r7, #4]
  HAL_StatusTypeDef status = HAL_OK;
 8001ab0:	2300      	movs	r3, #0
 8001ab2:	73fb      	strb	r3, [r7, #15]

  if (HAL_DMA_STATE_BUSY != hdma->State)
 8001ab4:	687b      	ldr	r3, [r7, #4]
 8001ab6:	f893 3025 	ldrb.w	r3, [r3, #37]	; 0x25
 8001aba:	b2db      	uxtb	r3, r3
 8001abc:	2b02      	cmp	r3, #2
 8001abe:	d00d      	beq.n	8001adc <HAL_DMA_Abort_IT+0x34>
  {
    /* no transfer ongoing */
    hdma->ErrorCode = HAL_DMA_ERROR_NO_XFER;
 8001ac0:	687b      	ldr	r3, [r7, #4]
 8001ac2:	2204      	movs	r2, #4
 8001ac4:	63da      	str	r2, [r3, #60]	; 0x3c

    /* Change the DMA state */
    hdma->State = HAL_DMA_STATE_READY;
 8001ac6:	687b      	ldr	r3, [r7, #4]
 8001ac8:	2201      	movs	r2, #1
 8001aca:	f883 2025 	strb.w	r2, [r3, #37]	; 0x25

    /* Process Unlocked */
    __HAL_UNLOCK(hdma);
 8001ace:	687b      	ldr	r3, [r7, #4]
 8001ad0:	2200      	movs	r2, #0
 8001ad2:	f883 2024 	strb.w	r2, [r3, #36]	; 0x24

    status = HAL_ERROR;
 8001ad6:	2301      	movs	r3, #1
 8001ad8:	73fb      	strb	r3, [r7, #15]
 8001ada:	e047      	b.n	8001b6c <HAL_DMA_Abort_IT+0xc4>
  }
  else
  {
    /* Disable DMA IT */
    __HAL_DMA_DISABLE_IT(hdma, (DMA_IT_TC | DMA_IT_HT | DMA_IT_TE));
 8001adc:	687b      	ldr	r3, [r7, #4]
 8001ade:	681b      	ldr	r3, [r3, #0]
 8001ae0:	681a      	ldr	r2, [r3, #0]
 8001ae2:	687b      	ldr	r3, [r7, #4]
 8001ae4:	681b      	ldr	r3, [r3, #0]
 8001ae6:	f022 020e 	bic.w	r2, r2, #14
 8001aea:	601a      	str	r2, [r3, #0]

    /* Disable the channel */
    __HAL_DMA_DISABLE(hdma);
 8001aec:	687b      	ldr	r3, [r7, #4]
 8001aee:	681b      	ldr	r3, [r3, #0]
 8001af0:	681a      	ldr	r2, [r3, #0]
 8001af2:	687b      	ldr	r3, [r7, #4]
 8001af4:	681b      	ldr	r3, [r3, #0]
 8001af6:	f022 0201 	bic.w	r2, r2, #1
 8001afa:	601a      	str	r2, [r3, #0]

    /* disable the DMAMUX sync overrun IT*/
    hdma->DMAmuxChannel->CCR &= ~DMAMUX_CxCR_SOIE;
 8001afc:	687b      	ldr	r3, [r7, #4]
 8001afe:	6c9b      	ldr	r3, [r3, #72]	; 0x48
 8001b00:	681a      	ldr	r2, [r3, #0]
 8001b02:	687b      	ldr	r3, [r7, #4]
 8001b04:	6c9b      	ldr	r3, [r3, #72]	; 0x48
 8001b06:	f422 7280 	bic.w	r2, r2, #256	; 0x100
 8001b0a:	601a      	str	r2, [r3, #0]

    /* Clear all flags */
    hdma->DmaBaseAddress->IFCR = (DMA_ISR_GIF1 << (hdma->ChannelIndex & 0x1FU));
 8001b0c:	687b      	ldr	r3, [r7, #4]
 8001b0e:	6c5b      	ldr	r3, [r3, #68]	; 0x44
 8001b10:	f003 021f 	and.w	r2, r3, #31
 8001b14:	687b      	ldr	r3, [r7, #4]
 8001b16:	6c1b      	ldr	r3, [r3, #64]	; 0x40
 8001b18:	2101      	movs	r1, #1
 8001b1a:	fa01 f202 	lsl.w	r2, r1, r2
 8001b1e:	605a      	str	r2, [r3, #4]

    /* Clear the DMAMUX synchro overrun flag */
    hdma->DMAmuxChannelStatus->CFR = hdma->DMAmuxChannelStatusMask;
 8001b20:	687b      	ldr	r3, [r7, #4]
 8001b22:	6cdb      	ldr	r3, [r3, #76]	; 0x4c
 8001b24:	687a      	ldr	r2, [r7, #4]
 8001b26:	6d12      	ldr	r2, [r2, #80]	; 0x50
 8001b28:	605a      	str	r2, [r3, #4]

    if (hdma->DMAmuxRequestGen != 0U)
 8001b2a:	687b      	ldr	r3, [r7, #4]
 8001b2c:	6d5b      	ldr	r3, [r3, #84]	; 0x54
 8001b2e:	2b00      	cmp	r3, #0
 8001b30:	d00c      	beq.n	8001b4c <HAL_DMA_Abort_IT+0xa4>
    {
      /* if using DMAMUX request generator, disable the DMAMUX request generator overrun IT*/
      /* disable the request gen overrun IT*/
      hdma->DMAmuxRequestGen->RGCR &= ~DMAMUX_RGxCR_OIE;
 8001b32:	687b      	ldr	r3, [r7, #4]
 8001b34:	6d5b      	ldr	r3, [r3, #84]	; 0x54
 8001b36:	681a      	ldr	r2, [r3, #0]
 8001b38:	687b      	ldr	r3, [r7, #4]
 8001b3a:	6d5b      	ldr	r3, [r3, #84]	; 0x54
 8001b3c:	f422 7280 	bic.w	r2, r2, #256	; 0x100
 8001b40:	601a      	str	r2, [r3, #0]

      /* Clear the DMAMUX request generator overrun flag */
      hdma->DMAmuxRequestGenStatus->RGCFR = hdma->DMAmuxRequestGenStatusMask;
 8001b42:	687b      	ldr	r3, [r7, #4]
 8001b44:	6d9b      	ldr	r3, [r3, #88]	; 0x58
 8001b46:	687a      	ldr	r2, [r7, #4]
 8001b48:	6dd2      	ldr	r2, [r2, #92]	; 0x5c
 8001b4a:	605a      	str	r2, [r3, #4]
    }

    /* Change the DMA state */
    hdma->State = HAL_DMA_STATE_READY;
 8001b4c:	687b      	ldr	r3, [r7, #4]
 8001b4e:	2201      	movs	r2, #1
 8001b50:	f883 2025 	strb.w	r2, [r3, #37]	; 0x25

    /* Process Unlocked */
    __HAL_UNLOCK(hdma);
 8001b54:	687b      	ldr	r3, [r7, #4]
 8001b56:	2200      	movs	r2, #0
 8001b58:	f883 2024 	strb.w	r2, [r3, #36]	; 0x24

    /* Call User Abort callback */
    if (hdma->XferAbortCallback != NULL)
 8001b5c:	687b      	ldr	r3, [r7, #4]
 8001b5e:	6b9b      	ldr	r3, [r3, #56]	; 0x38
 8001b60:	2b00      	cmp	r3, #0
 8001b62:	d003      	beq.n	8001b6c <HAL_DMA_Abort_IT+0xc4>
    {
      hdma->XferAbortCallback(hdma);
 8001b64:	687b      	ldr	r3, [r7, #4]
 8001b66:	6b9b      	ldr	r3, [r3, #56]	; 0x38
 8001b68:	6878      	ldr	r0, [r7, #4]
 8001b6a:	4798      	blx	r3
    }
  }
  return status;
 8001b6c:	7bfb      	ldrb	r3, [r7, #15]
}
 8001b6e:	4618      	mov	r0, r3
 8001b70:	3710      	adds	r7, #16
 8001b72:	46bd      	mov	sp, r7
 8001b74:	bd80      	pop	{r7, pc}

08001b76 <HAL_DMA_IRQHandler>:
  * @param  hdma pointer to a DMA_HandleTypeDef structure that contains
  *               the configuration information for the specified DMA Channel.
  * @retval None
  */
void HAL_DMA_IRQHandler(DMA_HandleTypeDef *hdma)
{
 8001b76:	b580      	push	{r7, lr}
 8001b78:	b084      	sub	sp, #16
 8001b7a:	af00      	add	r7, sp, #0
 8001b7c:	6078      	str	r0, [r7, #4]
  uint32_t flag_it = hdma->DmaBaseAddress->ISR;
 8001b7e:	687b      	ldr	r3, [r7, #4]
 8001b80:	6c1b      	ldr	r3, [r3, #64]	; 0x40
 8001b82:	681b      	ldr	r3, [r3, #0]
 8001b84:	60fb      	str	r3, [r7, #12]
  uint32_t source_it = hdma->Instance->CCR;
 8001b86:	687b      	ldr	r3, [r7, #4]
 8001b88:	681b      	ldr	r3, [r3, #0]
 8001b8a:	681b      	ldr	r3, [r3, #0]
 8001b8c:	60bb      	str	r3, [r7, #8]

  /* Half Transfer Complete Interrupt management ******************************/
  if ((0U != (flag_it & ((uint32_t)DMA_FLAG_HT1 << (hdma->ChannelIndex & 0x1FU)))) && (0U != (source_it & DMA_IT_HT)))
 8001b8e:	687b      	ldr	r3, [r7, #4]
 8001b90:	6c5b      	ldr	r3, [r3, #68]	; 0x44
 8001b92:	f003 031f 	and.w	r3, r3, #31
 8001b96:	2204      	movs	r2, #4
 8001b98:	409a      	lsls	r2, r3
 8001b9a:	68fb      	ldr	r3, [r7, #12]
 8001b9c:	4013      	ands	r3, r2
 8001b9e:	2b00      	cmp	r3, #0
 8001ba0:	d026      	beq.n	8001bf0 <HAL_DMA_IRQHandler+0x7a>
 8001ba2:	68bb      	ldr	r3, [r7, #8]
 8001ba4:	f003 0304 	and.w	r3, r3, #4
 8001ba8:	2b00      	cmp	r3, #0
 8001baa:	d021      	beq.n	8001bf0 <HAL_DMA_IRQHandler+0x7a>
  {
    /* Disable the half transfer interrupt if the DMA mode is not CIRCULAR */
    if ((hdma->Instance->CCR & DMA_CCR_CIRC) == 0U)
 8001bac:	687b      	ldr	r3, [r7, #4]
 8001bae:	681b      	ldr	r3, [r3, #0]
 8001bb0:	681b      	ldr	r3, [r3, #0]
 8001bb2:	f003 0320 	and.w	r3, r3, #32
 8001bb6:	2b00      	cmp	r3, #0
 8001bb8:	d107      	bne.n	8001bca <HAL_DMA_IRQHandler+0x54>
    {
      /* Disable the half transfer interrupt */
      __HAL_DMA_DISABLE_IT(hdma, DMA_IT_HT);
 8001bba:	687b      	ldr	r3, [r7, #4]
 8001bbc:	681b      	ldr	r3, [r3, #0]
 8001bbe:	681a      	ldr	r2, [r3, #0]
 8001bc0:	687b      	ldr	r3, [r7, #4]
 8001bc2:	681b      	ldr	r3, [r3, #0]
 8001bc4:	f022 0204 	bic.w	r2, r2, #4
 8001bc8:	601a      	str	r2, [r3, #0]
    }
    /* Clear the half transfer complete flag */
    hdma->DmaBaseAddress->IFCR = ((uint32_t)DMA_ISR_HTIF1 << (hdma->ChannelIndex & 0x1FU));
 8001bca:	687b      	ldr	r3, [r7, #4]
 8001bcc:	6c5b      	ldr	r3, [r3, #68]	; 0x44
 8001bce:	f003 021f 	and.w	r2, r3, #31
 8001bd2:	687b      	ldr	r3, [r7, #4]
 8001bd4:	6c1b      	ldr	r3, [r3, #64]	; 0x40
 8001bd6:	2104      	movs	r1, #4
 8001bd8:	fa01 f202 	lsl.w	r2, r1, r2
 8001bdc:	605a      	str	r2, [r3, #4]

    /* DMA peripheral state is not updated in Half Transfer */
    /* but in Transfer Complete case */

    if (hdma->XferHalfCpltCallback != NULL)
 8001bde:	687b      	ldr	r3, [r7, #4]
 8001be0:	6b1b      	ldr	r3, [r3, #48]	; 0x30
 8001be2:	2b00      	cmp	r3, #0
 8001be4:	d071      	beq.n	8001cca <HAL_DMA_IRQHandler+0x154>
    {
      /* Half transfer callback */
      hdma->XferHalfCpltCallback(hdma);
 8001be6:	687b      	ldr	r3, [r7, #4]
 8001be8:	6b1b      	ldr	r3, [r3, #48]	; 0x30
 8001bea:	6878      	ldr	r0, [r7, #4]
 8001bec:	4798      	blx	r3
    if (hdma->XferHalfCpltCallback != NULL)
 8001bee:	e06c      	b.n	8001cca <HAL_DMA_IRQHandler+0x154>
    }
  }
  /* Transfer Complete Interrupt management ***********************************/
  else if ((0U != (flag_it & ((uint32_t)DMA_FLAG_TC1 << (hdma->ChannelIndex & 0x1FU))))
 8001bf0:	687b      	ldr	r3, [r7, #4]
 8001bf2:	6c5b      	ldr	r3, [r3, #68]	; 0x44
 8001bf4:	f003 031f 	and.w	r3, r3, #31
 8001bf8:	2202      	movs	r2, #2
 8001bfa:	409a      	lsls	r2, r3
 8001bfc:	68fb      	ldr	r3, [r7, #12]
 8001bfe:	4013      	ands	r3, r2
 8001c00:	2b00      	cmp	r3, #0
 8001c02:	d02e      	beq.n	8001c62 <HAL_DMA_IRQHandler+0xec>
           && (0U != (source_it & DMA_IT_TC)))
 8001c04:	68bb      	ldr	r3, [r7, #8]
 8001c06:	f003 0302 	and.w	r3, r3, #2
 8001c0a:	2b00      	cmp	r3, #0
 8001c0c:	d029      	beq.n	8001c62 <HAL_DMA_IRQHandler+0xec>
  {
    if ((hdma->Instance->CCR & DMA_CCR_CIRC) == 0U)
 8001c0e:	687b      	ldr	r3, [r7, #4]
 8001c10:	681b      	ldr	r3, [r3, #0]
 8001c12:	681b      	ldr	r3, [r3, #0]
 8001c14:	f003 0320 	and.w	r3, r3, #32
 8001c18:	2b00      	cmp	r3, #0
 8001c1a:	d10b      	bne.n	8001c34 <HAL_DMA_IRQHandler+0xbe>
    {
      /* Disable the transfer complete and error interrupt */
      __HAL_DMA_DISABLE_IT(hdma, DMA_IT_TE | DMA_IT_TC);
 8001c1c:	687b      	ldr	r3, [r7, #4]
 8001c1e:	681b      	ldr	r3, [r3, #0]
 8001c20:	681a      	ldr	r2, [r3, #0]
 8001c22:	687b      	ldr	r3, [r7, #4]
 8001c24:	681b      	ldr	r3, [r3, #0]
 8001c26:	f022 020a 	bic.w	r2, r2, #10
 8001c2a:	601a      	str	r2, [r3, #0]

      /* Change the DMA state */
      hdma->State = HAL_DMA_STATE_READY;
 8001c2c:	687b      	ldr	r3, [r7, #4]
 8001c2e:	2201      	movs	r2, #1
 8001c30:	f883 2025 	strb.w	r2, [r3, #37]	; 0x25
    }
    /* Clear the transfer complete flag */
    hdma->DmaBaseAddress->IFCR = ((uint32_t)DMA_ISR_TCIF1 << (hdma->ChannelIndex & 0x1FU));
 8001c34:	687b      	ldr	r3, [r7, #4]
 8001c36:	6c5b      	ldr	r3, [r3, #68]	; 0x44
 8001c38:	f003 021f 	and.w	r2, r3, #31
 8001c3c:	687b      	ldr	r3, [r7, #4]
 8001c3e:	6c1b      	ldr	r3, [r3, #64]	; 0x40
 8001c40:	2102      	movs	r1, #2
 8001c42:	fa01 f202 	lsl.w	r2, r1, r2
 8001c46:	605a      	str	r2, [r3, #4]

    /* Process Unlocked */
    __HAL_UNLOCK(hdma);
 8001c48:	687b      	ldr	r3, [r7, #4]
 8001c4a:	2200      	movs	r2, #0
 8001c4c:	f883 2024 	strb.w	r2, [r3, #36]	; 0x24

    if (hdma->XferCpltCallback != NULL)
 8001c50:	687b      	ldr	r3, [r7, #4]
 8001c52:	6adb      	ldr	r3, [r3, #44]	; 0x2c
 8001c54:	2b00      	cmp	r3, #0
 8001c56:	d038      	beq.n	8001cca <HAL_DMA_IRQHandler+0x154>
    {
      /* Transfer complete callback */
      hdma->XferCpltCallback(hdma);
 8001c58:	687b      	ldr	r3, [r7, #4]
 8001c5a:	6adb      	ldr	r3, [r3, #44]	; 0x2c
 8001c5c:	6878      	ldr	r0, [r7, #4]
 8001c5e:	4798      	blx	r3
    if (hdma->XferCpltCallback != NULL)
 8001c60:	e033      	b.n	8001cca <HAL_DMA_IRQHandler+0x154>
    }
  }
  /* Transfer Error Interrupt management **************************************/
  else if ((0U != (flag_it & ((uint32_t)DMA_FLAG_TE1 << (hdma->ChannelIndex & 0x1FU))))
 8001c62:	687b      	ldr	r3, [r7, #4]
 8001c64:	6c5b      	ldr	r3, [r3, #68]	; 0x44
 8001c66:	f003 031f 	and.w	r3, r3, #31
 8001c6a:	2208      	movs	r2, #8
 8001c6c:	409a      	lsls	r2, r3
 8001c6e:	68fb      	ldr	r3, [r7, #12]
 8001c70:	4013      	ands	r3, r2
 8001c72:	2b00      	cmp	r3, #0
 8001c74:	d02a      	beq.n	8001ccc <HAL_DMA_IRQHandler+0x156>
           && (0U != (source_it & DMA_IT_TE)))
 8001c76:	68bb      	ldr	r3, [r7, #8]
 8001c78:	f003 0308 	and.w	r3, r3, #8
 8001c7c:	2b00      	cmp	r3, #0
 8001c7e:	d025      	beq.n	8001ccc <HAL_DMA_IRQHandler+0x156>
  {
    /* When a DMA transfer error occurs */
    /* A hardware clear of its EN bits is performed */
    /* Disable ALL DMA IT */
    __HAL_DMA_DISABLE_IT(hdma, (DMA_IT_TC | DMA_IT_HT | DMA_IT_TE));
 8001c80:	687b      	ldr	r3, [r7, #4]
 8001c82:	681b      	ldr	r3, [r3, #0]
 8001c84:	681a      	ldr	r2, [r3, #0]
 8001c86:	687b      	ldr	r3, [r7, #4]
 8001c88:	681b      	ldr	r3, [r3, #0]
 8001c8a:	f022 020e 	bic.w	r2, r2, #14
 8001c8e:	601a      	str	r2, [r3, #0]

    /* Clear all flags */
    hdma->DmaBaseAddress->IFCR = ((uint32_t)DMA_ISR_GIF1 << (hdma->ChannelIndex & 0x1FU));
 8001c90:	687b      	ldr	r3, [r7, #4]
 8001c92:	6c5b      	ldr	r3, [r3, #68]	; 0x44
 8001c94:	f003 021f 	and.w	r2, r3, #31
 8001c98:	687b      	ldr	r3, [r7, #4]
 8001c9a:	6c1b      	ldr	r3, [r3, #64]	; 0x40
 8001c9c:	2101      	movs	r1, #1
 8001c9e:	fa01 f202 	lsl.w	r2, r1, r2
 8001ca2:	605a      	str	r2, [r3, #4]

    /* Update error code */
    hdma->ErrorCode = HAL_DMA_ERROR_TE;
 8001ca4:	687b      	ldr	r3, [r7, #4]
 8001ca6:	2201      	movs	r2, #1
 8001ca8:	63da      	str	r2, [r3, #60]	; 0x3c

    /* Change the DMA state */
    hdma->State = HAL_DMA_STATE_READY;
 8001caa:	687b      	ldr	r3, [r7, #4]
 8001cac:	2201      	movs	r2, #1
 8001cae:	f883 2025 	strb.w	r2, [r3, #37]	; 0x25

    /* Process Unlocked */
    __HAL_UNLOCK(hdma);
 8001cb2:	687b      	ldr	r3, [r7, #4]
 8001cb4:	2200      	movs	r2, #0
 8001cb6:	f883 2024 	strb.w	r2, [r3, #36]	; 0x24

    if (hdma->XferErrorCallback != NULL)
 8001cba:	687b      	ldr	r3, [r7, #4]
 8001cbc:	6b5b      	ldr	r3, [r3, #52]	; 0x34
 8001cbe:	2b00      	cmp	r3, #0
 8001cc0:	d004      	beq.n	8001ccc <HAL_DMA_IRQHandler+0x156>
    {
      /* Transfer error callback */
      hdma->XferErrorCallback(hdma);
 8001cc2:	687b      	ldr	r3, [r7, #4]
 8001cc4:	6b5b      	ldr	r3, [r3, #52]	; 0x34
 8001cc6:	6878      	ldr	r0, [r7, #4]
 8001cc8:	4798      	blx	r3
  }
  else
  {
    /* Nothing To Do */
  }
  return;
 8001cca:	bf00      	nop
 8001ccc:	bf00      	nop
}
 8001cce:	3710      	adds	r7, #16
 8001cd0:	46bd      	mov	sp, r7
 8001cd2:	bd80      	pop	{r7, pc}

08001cd4 <HAL_DMA_GetState>:
  * @param  hdma pointer to a DMA_HandleTypeDef structure that contains
  *               the configuration information for the specified DMA Channel.
  * @retval HAL state
  */
HAL_DMA_StateTypeDef HAL_DMA_GetState(DMA_HandleTypeDef *hdma)
{
 8001cd4:	b480      	push	{r7}
 8001cd6:	b083      	sub	sp, #12
 8001cd8:	af00      	add	r7, sp, #0
 8001cda:	6078      	str	r0, [r7, #4]
  /* Return DMA handle state */
  return hdma->State;
 8001cdc:	687b      	ldr	r3, [r7, #4]
 8001cde:	f893 3025 	ldrb.w	r3, [r3, #37]	; 0x25
 8001ce2:	b2db      	uxtb	r3, r3
}
 8001ce4:	4618      	mov	r0, r3
 8001ce6:	370c      	adds	r7, #12
 8001ce8:	46bd      	mov	sp, r7
 8001cea:	f85d 7b04 	ldr.w	r7, [sp], #4
 8001cee:	4770      	bx	lr

08001cf0 <DMA_CalcDMAMUXChannelBaseAndMask>:
  * @param  hdma        pointer to a DMA_HandleTypeDef structure that contains
  *                     the configuration information for the specified DMA Stream.
  * @retval None
  */
static void DMA_CalcDMAMUXChannelBaseAndMask(DMA_HandleTypeDef *hdma)
{
 8001cf0:	b480      	push	{r7}
 8001cf2:	b087      	sub	sp, #28
 8001cf4:	af00      	add	r7, sp, #0
 8001cf6:	6078      	str	r0, [r7, #4]
  uint32_t dmamux_base_addr;
  uint32_t channel_number;
  DMAMUX_Channel_TypeDef *DMAMUX1_ChannelBase;

  /* check if instance is not outside the DMA channel range */
  if ((uint32_t)hdma->Instance < (uint32_t)DMA2_Channel1)
 8001cf8:	687b      	ldr	r3, [r7, #4]
 8001cfa:	681b      	ldr	r3, [r3, #0]
 8001cfc:	461a      	mov	r2, r3
 8001cfe:	4b16      	ldr	r3, [pc, #88]	; (8001d58 <DMA_CalcDMAMUXChannelBaseAndMask+0x68>)
 8001d00:	429a      	cmp	r2, r3
 8001d02:	d802      	bhi.n	8001d0a <DMA_CalcDMAMUXChannelBaseAndMask+0x1a>
  {
    /* DMA1 */
    DMAMUX1_ChannelBase = DMAMUX1_Channel0;
 8001d04:	4b15      	ldr	r3, [pc, #84]	; (8001d5c <DMA_CalcDMAMUXChannelBaseAndMask+0x6c>)
 8001d06:	617b      	str	r3, [r7, #20]
 8001d08:	e001      	b.n	8001d0e <DMA_CalcDMAMUXChannelBaseAndMask+0x1e>
  }
  else
  {
    /* DMA2 */
#if defined (STM32G471xx) || defined (STM32G473xx) || defined (STM32G474xx) || defined (STM32G483xx) || defined (STM32G484xx) || defined (STM32G491xx) || defined (STM32G4A1xx)
    DMAMUX1_ChannelBase = DMAMUX1_Channel8;
 8001d0a:	4b15      	ldr	r3, [pc, #84]	; (8001d60 <DMA_CalcDMAMUXChannelBaseAndMask+0x70>)
 8001d0c:	617b      	str	r3, [r7, #20]
    DMAMUX1_ChannelBase = DMAMUX1_Channel6;
#else
    DMAMUX1_ChannelBase = DMAMUX1_Channel7;
#endif /* STM32G4x1xx) */
  }
  dmamux_base_addr = (uint32_t)DMAMUX1_ChannelBase;
 8001d0e:	697b      	ldr	r3, [r7, #20]
 8001d10:	613b      	str	r3, [r7, #16]
  channel_number = (((uint32_t)hdma->Instance & 0xFFU) - 8U) / 20U;
 8001d12:	687b      	ldr	r3, [r7, #4]
 8001d14:	681b      	ldr	r3, [r3, #0]
 8001d16:	b2db      	uxtb	r3, r3
 8001d18:	3b08      	subs	r3, #8
 8001d1a:	4a12      	ldr	r2, [pc, #72]	; (8001d64 <DMA_CalcDMAMUXChannelBaseAndMask+0x74>)
 8001d1c:	fba2 2303 	umull	r2, r3, r2, r3
 8001d20:	091b      	lsrs	r3, r3, #4
 8001d22:	60fb      	str	r3, [r7, #12]
  hdma->DMAmuxChannel = (DMAMUX_Channel_TypeDef *)(uint32_t)(dmamux_base_addr + ((hdma->ChannelIndex >> 2U) * ((uint32_t)DMAMUX1_Channel1 - (uint32_t)DMAMUX1_Channel0)));
 8001d24:	687b      	ldr	r3, [r7, #4]
 8001d26:	6c5b      	ldr	r3, [r3, #68]	; 0x44
 8001d28:	089b      	lsrs	r3, r3, #2
 8001d2a:	009a      	lsls	r2, r3, #2
 8001d2c:	693b      	ldr	r3, [r7, #16]
 8001d2e:	4413      	add	r3, r2
 8001d30:	461a      	mov	r2, r3
 8001d32:	687b      	ldr	r3, [r7, #4]
 8001d34:	649a      	str	r2, [r3, #72]	; 0x48
  hdma->DMAmuxChannelStatus = DMAMUX1_ChannelStatus;
 8001d36:	687b      	ldr	r3, [r7, #4]
 8001d38:	4a0b      	ldr	r2, [pc, #44]	; (8001d68 <DMA_CalcDMAMUXChannelBaseAndMask+0x78>)
 8001d3a:	64da      	str	r2, [r3, #76]	; 0x4c
  hdma->DMAmuxChannelStatusMask = 1UL << (channel_number & 0x1FU);
 8001d3c:	68fb      	ldr	r3, [r7, #12]
 8001d3e:	f003 031f 	and.w	r3, r3, #31
 8001d42:	2201      	movs	r2, #1
 8001d44:	409a      	lsls	r2, r3
 8001d46:	687b      	ldr	r3, [r7, #4]
 8001d48:	651a      	str	r2, [r3, #80]	; 0x50
}
 8001d4a:	bf00      	nop
 8001d4c:	371c      	adds	r7, #28
 8001d4e:	46bd      	mov	sp, r7
 8001d50:	f85d 7b04 	ldr.w	r7, [sp], #4
 8001d54:	4770      	bx	lr
 8001d56:	bf00      	nop
 8001d58:	40020407 	.word	0x40020407
 8001d5c:	40020800 	.word	0x40020800
 8001d60:	40020820 	.word	0x40020820
 8001d64:	cccccccd 	.word	0xcccccccd
 8001d68:	40020880 	.word	0x40020880

08001d6c <DMA_CalcDMAMUXRequestGenBaseAndMask>:
  *                     the configuration information for the specified DMA Channel.
  * @retval None
  */

static void DMA_CalcDMAMUXRequestGenBaseAndMask(DMA_HandleTypeDef *hdma)
{
 8001d6c:	b480      	push	{r7}
 8001d6e:	b085      	sub	sp, #20
 8001d70:	af00      	add	r7, sp, #0
 8001d72:	6078      	str	r0, [r7, #4]
  uint32_t request =  hdma->Init.Request & DMAMUX_CxCR_DMAREQ_ID;
 8001d74:	687b      	ldr	r3, [r7, #4]
 8001d76:	685b      	ldr	r3, [r3, #4]
 8001d78:	b2db      	uxtb	r3, r3
 8001d7a:	60fb      	str	r3, [r7, #12]

  /* DMA Channels are connected to DMAMUX1 request generator blocks*/
  hdma->DMAmuxRequestGen = (DMAMUX_RequestGen_TypeDef *)((uint32_t)(((uint32_t)DMAMUX1_RequestGenerator0) + ((request - 1U) * 4U)));
 8001d7c:	68fa      	ldr	r2, [r7, #12]
 8001d7e:	4b0b      	ldr	r3, [pc, #44]	; (8001dac <DMA_CalcDMAMUXRequestGenBaseAndMask+0x40>)
 8001d80:	4413      	add	r3, r2
 8001d82:	009b      	lsls	r3, r3, #2
 8001d84:	461a      	mov	r2, r3
 8001d86:	687b      	ldr	r3, [r7, #4]
 8001d88:	655a      	str	r2, [r3, #84]	; 0x54

  hdma->DMAmuxRequestGenStatus = DMAMUX1_RequestGenStatus;
 8001d8a:	687b      	ldr	r3, [r7, #4]
 8001d8c:	4a08      	ldr	r2, [pc, #32]	; (8001db0 <DMA_CalcDMAMUXRequestGenBaseAndMask+0x44>)
 8001d8e:	659a      	str	r2, [r3, #88]	; 0x58

  hdma->DMAmuxRequestGenStatusMask = 1UL << ((request - 1U) & 0x1FU);
 8001d90:	68fb      	ldr	r3, [r7, #12]
 8001d92:	3b01      	subs	r3, #1
 8001d94:	f003 031f 	and.w	r3, r3, #31
 8001d98:	2201      	movs	r2, #1
 8001d9a:	409a      	lsls	r2, r3
 8001d9c:	687b      	ldr	r3, [r7, #4]
 8001d9e:	65da      	str	r2, [r3, #92]	; 0x5c
}
 8001da0:	bf00      	nop
 8001da2:	3714      	adds	r7, #20
 8001da4:	46bd      	mov	sp, r7
 8001da6:	f85d 7b04 	ldr.w	r7, [sp], #4
 8001daa:	4770      	bx	lr
 8001dac:	1000823f 	.word	0x1000823f
 8001db0:	40020940 	.word	0x40020940

08001db4 <HAL_GPIO_Init>:
  * @param  GPIO_Init pointer to a GPIO_InitTypeDef structure that contains
  *         the configuration information for the specified GPIO peripheral.
  * @retval None
  */
void HAL_GPIO_Init(GPIO_TypeDef  *GPIOx, GPIO_InitTypeDef *GPIO_Init)
{
 8001db4:	b480      	push	{r7}
 8001db6:	b087      	sub	sp, #28
 8001db8:	af00      	add	r7, sp, #0
 8001dba:	6078      	str	r0, [r7, #4]
 8001dbc:	6039      	str	r1, [r7, #0]
  uint32_t position = 0x00U;
 8001dbe:	2300      	movs	r3, #0
 8001dc0:	617b      	str	r3, [r7, #20]
  assert_param(IS_GPIO_ALL_INSTANCE(GPIOx));
  assert_param(IS_GPIO_PIN(GPIO_Init->Pin));
  assert_param(IS_GPIO_MODE(GPIO_Init->Mode));

  /* Configure the port pins */
  while (((GPIO_Init->Pin) >> position) != 0U)
 8001dc2:	e15a      	b.n	800207a <HAL_GPIO_Init+0x2c6>
  {
    /* Get current io position */
    iocurrent = (GPIO_Init->Pin) & (1UL << position);
 8001dc4:	683b      	ldr	r3, [r7, #0]
 8001dc6:	681a      	ldr	r2, [r3, #0]
 8001dc8:	2101      	movs	r1, #1
 8001dca:	697b      	ldr	r3, [r7, #20]
 8001dcc:	fa01 f303 	lsl.w	r3, r1, r3
 8001dd0:	4013      	ands	r3, r2
 8001dd2:	60fb      	str	r3, [r7, #12]

    if (iocurrent != 0x00u)
 8001dd4:	68fb      	ldr	r3, [r7, #12]
 8001dd6:	2b00      	cmp	r3, #0
 8001dd8:	f000 814c 	beq.w	8002074 <HAL_GPIO_Init+0x2c0>
    {
      /*--------------------- GPIO Mode Configuration ------------------------*/
      /* In case of Output or Alternate function mode selection */
      if(((GPIO_Init->Mode & GPIO_MODE) == MODE_OUTPUT) ||
 8001ddc:	683b      	ldr	r3, [r7, #0]
 8001dde:	685b      	ldr	r3, [r3, #4]
 8001de0:	f003 0303 	and.w	r3, r3, #3
 8001de4:	2b01      	cmp	r3, #1
 8001de6:	d005      	beq.n	8001df4 <HAL_GPIO_Init+0x40>
         ((GPIO_Init->Mode & GPIO_MODE) == MODE_AF))
 8001de8:	683b      	ldr	r3, [r7, #0]
 8001dea:	685b      	ldr	r3, [r3, #4]
 8001dec:	f003 0303 	and.w	r3, r3, #3
      if(((GPIO_Init->Mode & GPIO_MODE) == MODE_OUTPUT) ||
 8001df0:	2b02      	cmp	r3, #2
 8001df2:	d130      	bne.n	8001e56 <HAL_GPIO_Init+0xa2>
      {
        /* Check the Speed parameter */
        assert_param(IS_GPIO_SPEED(GPIO_Init->Speed));
        /* Configure the IO Speed */
        temp = GPIOx->OSPEEDR;
 8001df4:	687b      	ldr	r3, [r7, #4]
 8001df6:	689b      	ldr	r3, [r3, #8]
 8001df8:	613b      	str	r3, [r7, #16]
        temp &= ~(GPIO_OSPEEDR_OSPEED0 << (position * 2U));
 8001dfa:	697b      	ldr	r3, [r7, #20]
 8001dfc:	005b      	lsls	r3, r3, #1
 8001dfe:	2203      	movs	r2, #3
 8001e00:	fa02 f303 	lsl.w	r3, r2, r3
 8001e04:	43db      	mvns	r3, r3
 8001e06:	693a      	ldr	r2, [r7, #16]
 8001e08:	4013      	ands	r3, r2
 8001e0a:	613b      	str	r3, [r7, #16]
        temp |= (GPIO_Init->Speed << (position * 2U));
 8001e0c:	683b      	ldr	r3, [r7, #0]
 8001e0e:	68da      	ldr	r2, [r3, #12]
 8001e10:	697b      	ldr	r3, [r7, #20]
 8001e12:	005b      	lsls	r3, r3, #1
 8001e14:	fa02 f303 	lsl.w	r3, r2, r3
 8001e18:	693a      	ldr	r2, [r7, #16]
 8001e1a:	4313      	orrs	r3, r2
 8001e1c:	613b      	str	r3, [r7, #16]
        GPIOx->OSPEEDR = temp;
 8001e1e:	687b      	ldr	r3, [r7, #4]
 8001e20:	693a      	ldr	r2, [r7, #16]
 8001e22:	609a      	str	r2, [r3, #8]

        /* Configure the IO Output Type */
        temp = GPIOx->OTYPER;
 8001e24:	687b      	ldr	r3, [r7, #4]
 8001e26:	685b      	ldr	r3, [r3, #4]
 8001e28:	613b      	str	r3, [r7, #16]
        temp &= ~(GPIO_OTYPER_OT0 << position) ;
 8001e2a:	2201      	movs	r2, #1
 8001e2c:	697b      	ldr	r3, [r7, #20]
 8001e2e:	fa02 f303 	lsl.w	r3, r2, r3
 8001e32:	43db      	mvns	r3, r3
 8001e34:	693a      	ldr	r2, [r7, #16]
 8001e36:	4013      	ands	r3, r2
 8001e38:	613b      	str	r3, [r7, #16]
        temp |= (((GPIO_Init->Mode & OUTPUT_TYPE) >> OUTPUT_TYPE_Pos) << position);
 8001e3a:	683b      	ldr	r3, [r7, #0]
 8001e3c:	685b      	ldr	r3, [r3, #4]
 8001e3e:	091b      	lsrs	r3, r3, #4
 8001e40:	f003 0201 	and.w	r2, r3, #1
 8001e44:	697b      	ldr	r3, [r7, #20]
 8001e46:	fa02 f303 	lsl.w	r3, r2, r3
 8001e4a:	693a      	ldr	r2, [r7, #16]
 8001e4c:	4313      	orrs	r3, r2
 8001e4e:	613b      	str	r3, [r7, #16]
        GPIOx->OTYPER = temp;
 8001e50:	687b      	ldr	r3, [r7, #4]
 8001e52:	693a      	ldr	r2, [r7, #16]
 8001e54:	605a      	str	r2, [r3, #4]
      }

      if ((GPIO_Init->Mode & GPIO_MODE) != MODE_ANALOG)
 8001e56:	683b      	ldr	r3, [r7, #0]
 8001e58:	685b      	ldr	r3, [r3, #4]
 8001e5a:	f003 0303 	and.w	r3, r3, #3
 8001e5e:	2b03      	cmp	r3, #3
 8001e60:	d017      	beq.n	8001e92 <HAL_GPIO_Init+0xde>
      {
        /* Check the Pull parameter */
        assert_param(IS_GPIO_PULL(GPIO_Init->Pull));

        /* Activate the Pull-up or Pull down resistor for the current IO */
        temp = GPIOx->PUPDR;
 8001e62:	687b      	ldr	r3, [r7, #4]
 8001e64:	68db      	ldr	r3, [r3, #12]
 8001e66:	613b      	str	r3, [r7, #16]
        temp &= ~(GPIO_PUPDR_PUPD0 << (position * 2U));
 8001e68:	697b      	ldr	r3, [r7, #20]
 8001e6a:	005b      	lsls	r3, r3, #1
 8001e6c:	2203      	movs	r2, #3
 8001e6e:	fa02 f303 	lsl.w	r3, r2, r3
 8001e72:	43db      	mvns	r3, r3
 8001e74:	693a      	ldr	r2, [r7, #16]
 8001e76:	4013      	ands	r3, r2
 8001e78:	613b      	str	r3, [r7, #16]
        temp |= ((GPIO_Init->Pull) << (position * 2U));
 8001e7a:	683b      	ldr	r3, [r7, #0]
 8001e7c:	689a      	ldr	r2, [r3, #8]
 8001e7e:	697b      	ldr	r3, [r7, #20]
 8001e80:	005b      	lsls	r3, r3, #1
 8001e82:	fa02 f303 	lsl.w	r3, r2, r3
 8001e86:	693a      	ldr	r2, [r7, #16]
 8001e88:	4313      	orrs	r3, r2
 8001e8a:	613b      	str	r3, [r7, #16]
        GPIOx->PUPDR = temp;
 8001e8c:	687b      	ldr	r3, [r7, #4]
 8001e8e:	693a      	ldr	r2, [r7, #16]
 8001e90:	60da      	str	r2, [r3, #12]
      }

      /* In case of Alternate function mode selection */
      if ((GPIO_Init->Mode & GPIO_MODE) == MODE_AF)
 8001e92:	683b      	ldr	r3, [r7, #0]
 8001e94:	685b      	ldr	r3, [r3, #4]
 8001e96:	f003 0303 	and.w	r3, r3, #3
 8001e9a:	2b02      	cmp	r3, #2
 8001e9c:	d123      	bne.n	8001ee6 <HAL_GPIO_Init+0x132>
        /* Check the Alternate function parameters */
        assert_param(IS_GPIO_AF_INSTANCE(GPIOx));
        assert_param(IS_GPIO_AF(GPIO_Init->Alternate));

        /* Configure Alternate function mapped with the current IO */
        temp = GPIOx->AFR[position >> 3U];
 8001e9e:	697b      	ldr	r3, [r7, #20]
 8001ea0:	08da      	lsrs	r2, r3, #3
 8001ea2:	687b      	ldr	r3, [r7, #4]
 8001ea4:	3208      	adds	r2, #8
 8001ea6:	f853 3022 	ldr.w	r3, [r3, r2, lsl #2]
 8001eaa:	613b      	str	r3, [r7, #16]
        temp &= ~(0xFU << ((position & 0x07U) * 4U));
 8001eac:	697b      	ldr	r3, [r7, #20]
 8001eae:	f003 0307 	and.w	r3, r3, #7
 8001eb2:	009b      	lsls	r3, r3, #2
 8001eb4:	220f      	movs	r2, #15
 8001eb6:	fa02 f303 	lsl.w	r3, r2, r3
 8001eba:	43db      	mvns	r3, r3
 8001ebc:	693a      	ldr	r2, [r7, #16]
 8001ebe:	4013      	ands	r3, r2
 8001ec0:	613b      	str	r3, [r7, #16]
        temp |= ((GPIO_Init->Alternate) << ((position & 0x07U) * 4U));
 8001ec2:	683b      	ldr	r3, [r7, #0]
 8001ec4:	691a      	ldr	r2, [r3, #16]
 8001ec6:	697b      	ldr	r3, [r7, #20]
 8001ec8:	f003 0307 	and.w	r3, r3, #7
 8001ecc:	009b      	lsls	r3, r3, #2
 8001ece:	fa02 f303 	lsl.w	r3, r2, r3
 8001ed2:	693a      	ldr	r2, [r7, #16]
 8001ed4:	4313      	orrs	r3, r2
 8001ed6:	613b      	str	r3, [r7, #16]
        GPIOx->AFR[position >> 3U] = temp;
 8001ed8:	697b      	ldr	r3, [r7, #20]
 8001eda:	08da      	lsrs	r2, r3, #3
 8001edc:	687b      	ldr	r3, [r7, #4]
 8001ede:	3208      	adds	r2, #8
 8001ee0:	6939      	ldr	r1, [r7, #16]
 8001ee2:	f843 1022 	str.w	r1, [r3, r2, lsl #2]
      }

      /* Configure IO Direction mode (Input, Output, Alternate or Analog) */
      temp = GPIOx->MODER;
 8001ee6:	687b      	ldr	r3, [r7, #4]
 8001ee8:	681b      	ldr	r3, [r3, #0]
 8001eea:	613b      	str	r3, [r7, #16]
      temp &= ~(GPIO_MODER_MODE0 << (position * 2U));
 8001eec:	697b      	ldr	r3, [r7, #20]
 8001eee:	005b      	lsls	r3, r3, #1
 8001ef0:	2203      	movs	r2, #3
 8001ef2:	fa02 f303 	lsl.w	r3, r2, r3
 8001ef6:	43db      	mvns	r3, r3
 8001ef8:	693a      	ldr	r2, [r7, #16]
 8001efa:	4013      	ands	r3, r2
 8001efc:	613b      	str	r3, [r7, #16]
      temp |= ((GPIO_Init->Mode & GPIO_MODE) << (position * 2U));
 8001efe:	683b      	ldr	r3, [r7, #0]
 8001f00:	685b      	ldr	r3, [r3, #4]
 8001f02:	f003 0203 	and.w	r2, r3, #3
 8001f06:	697b      	ldr	r3, [r7, #20]
 8001f08:	005b      	lsls	r3, r3, #1
 8001f0a:	fa02 f303 	lsl.w	r3, r2, r3
 8001f0e:	693a      	ldr	r2, [r7, #16]
 8001f10:	4313      	orrs	r3, r2
 8001f12:	613b      	str	r3, [r7, #16]
      GPIOx->MODER = temp;
 8001f14:	687b      	ldr	r3, [r7, #4]
 8001f16:	693a      	ldr	r2, [r7, #16]
 8001f18:	601a      	str	r2, [r3, #0]

      /*--------------------- EXTI Mode Configuration ------------------------*/
      /* Configure the External Interrupt or event for the current IO */
      if ((GPIO_Init->Mode & EXTI_MODE) != 0x00u)
 8001f1a:	683b      	ldr	r3, [r7, #0]
 8001f1c:	685b      	ldr	r3, [r3, #4]
 8001f1e:	f403 3340 	and.w	r3, r3, #196608	; 0x30000
 8001f22:	2b00      	cmp	r3, #0
 8001f24:	f000 80a6 	beq.w	8002074 <HAL_GPIO_Init+0x2c0>
      {
        /* Enable SYSCFG Clock */
        __HAL_RCC_SYSCFG_CLK_ENABLE();
 8001f28:	4b5b      	ldr	r3, [pc, #364]	; (8002098 <HAL_GPIO_Init+0x2e4>)
 8001f2a:	6e1b      	ldr	r3, [r3, #96]	; 0x60
 8001f2c:	4a5a      	ldr	r2, [pc, #360]	; (8002098 <HAL_GPIO_Init+0x2e4>)
 8001f2e:	f043 0301 	orr.w	r3, r3, #1
 8001f32:	6613      	str	r3, [r2, #96]	; 0x60
 8001f34:	4b58      	ldr	r3, [pc, #352]	; (8002098 <HAL_GPIO_Init+0x2e4>)
 8001f36:	6e1b      	ldr	r3, [r3, #96]	; 0x60
 8001f38:	f003 0301 	and.w	r3, r3, #1
 8001f3c:	60bb      	str	r3, [r7, #8]
 8001f3e:	68bb      	ldr	r3, [r7, #8]

        temp = SYSCFG->EXTICR[position >> 2U];
 8001f40:	4a56      	ldr	r2, [pc, #344]	; (800209c <HAL_GPIO_Init+0x2e8>)
 8001f42:	697b      	ldr	r3, [r7, #20]
 8001f44:	089b      	lsrs	r3, r3, #2
 8001f46:	3302      	adds	r3, #2
 8001f48:	f852 3023 	ldr.w	r3, [r2, r3, lsl #2]
 8001f4c:	613b      	str	r3, [r7, #16]
        temp &= ~(0x0FUL << (4U * (position & 0x03U)));
 8001f4e:	697b      	ldr	r3, [r7, #20]
 8001f50:	f003 0303 	and.w	r3, r3, #3
 8001f54:	009b      	lsls	r3, r3, #2
 8001f56:	220f      	movs	r2, #15
 8001f58:	fa02 f303 	lsl.w	r3, r2, r3
 8001f5c:	43db      	mvns	r3, r3
 8001f5e:	693a      	ldr	r2, [r7, #16]
 8001f60:	4013      	ands	r3, r2
 8001f62:	613b      	str	r3, [r7, #16]
        temp |= (GPIO_GET_INDEX(GPIOx) << (4U * (position & 0x03U)));
 8001f64:	687b      	ldr	r3, [r7, #4]
 8001f66:	f1b3 4f90 	cmp.w	r3, #1207959552	; 0x48000000
 8001f6a:	d01f      	beq.n	8001fac <HAL_GPIO_Init+0x1f8>
 8001f6c:	687b      	ldr	r3, [r7, #4]
 8001f6e:	4a4c      	ldr	r2, [pc, #304]	; (80020a0 <HAL_GPIO_Init+0x2ec>)
 8001f70:	4293      	cmp	r3, r2
 8001f72:	d019      	beq.n	8001fa8 <HAL_GPIO_Init+0x1f4>
 8001f74:	687b      	ldr	r3, [r7, #4]
 8001f76:	4a4b      	ldr	r2, [pc, #300]	; (80020a4 <HAL_GPIO_Init+0x2f0>)
 8001f78:	4293      	cmp	r3, r2
 8001f7a:	d013      	beq.n	8001fa4 <HAL_GPIO_Init+0x1f0>
 8001f7c:	687b      	ldr	r3, [r7, #4]
 8001f7e:	4a4a      	ldr	r2, [pc, #296]	; (80020a8 <HAL_GPIO_Init+0x2f4>)
 8001f80:	4293      	cmp	r3, r2
 8001f82:	d00d      	beq.n	8001fa0 <HAL_GPIO_Init+0x1ec>
 8001f84:	687b      	ldr	r3, [r7, #4]
 8001f86:	4a49      	ldr	r2, [pc, #292]	; (80020ac <HAL_GPIO_Init+0x2f8>)
 8001f88:	4293      	cmp	r3, r2
 8001f8a:	d007      	beq.n	8001f9c <HAL_GPIO_Init+0x1e8>
 8001f8c:	687b      	ldr	r3, [r7, #4]
 8001f8e:	4a48      	ldr	r2, [pc, #288]	; (80020b0 <HAL_GPIO_Init+0x2fc>)
 8001f90:	4293      	cmp	r3, r2
 8001f92:	d101      	bne.n	8001f98 <HAL_GPIO_Init+0x1e4>
 8001f94:	2305      	movs	r3, #5
 8001f96:	e00a      	b.n	8001fae <HAL_GPIO_Init+0x1fa>
 8001f98:	2306      	movs	r3, #6
 8001f9a:	e008      	b.n	8001fae <HAL_GPIO_Init+0x1fa>
 8001f9c:	2304      	movs	r3, #4
 8001f9e:	e006      	b.n	8001fae <HAL_GPIO_Init+0x1fa>
 8001fa0:	2303      	movs	r3, #3
 8001fa2:	e004      	b.n	8001fae <HAL_GPIO_Init+0x1fa>
 8001fa4:	2302      	movs	r3, #2
 8001fa6:	e002      	b.n	8001fae <HAL_GPIO_Init+0x1fa>
 8001fa8:	2301      	movs	r3, #1
 8001faa:	e000      	b.n	8001fae <HAL_GPIO_Init+0x1fa>
 8001fac:	2300      	movs	r3, #0
 8001fae:	697a      	ldr	r2, [r7, #20]
 8001fb0:	f002 0203 	and.w	r2, r2, #3
 8001fb4:	0092      	lsls	r2, r2, #2
 8001fb6:	4093      	lsls	r3, r2
 8001fb8:	693a      	ldr	r2, [r7, #16]
 8001fba:	4313      	orrs	r3, r2
 8001fbc:	613b      	str	r3, [r7, #16]
        SYSCFG->EXTICR[position >> 2U] = temp;
 8001fbe:	4937      	ldr	r1, [pc, #220]	; (800209c <HAL_GPIO_Init+0x2e8>)
 8001fc0:	697b      	ldr	r3, [r7, #20]
 8001fc2:	089b      	lsrs	r3, r3, #2
 8001fc4:	3302      	adds	r3, #2
 8001fc6:	693a      	ldr	r2, [r7, #16]
 8001fc8:	f841 2023 	str.w	r2, [r1, r3, lsl #2]

        /* Clear Rising Falling edge configuration */
        temp = EXTI->RTSR1;
 8001fcc:	4b39      	ldr	r3, [pc, #228]	; (80020b4 <HAL_GPIO_Init+0x300>)
 8001fce:	689b      	ldr	r3, [r3, #8]
 8001fd0:	613b      	str	r3, [r7, #16]
        temp &= ~(iocurrent);
 8001fd2:	68fb      	ldr	r3, [r7, #12]
 8001fd4:	43db      	mvns	r3, r3
 8001fd6:	693a      	ldr	r2, [r7, #16]
 8001fd8:	4013      	ands	r3, r2
 8001fda:	613b      	str	r3, [r7, #16]
        if ((GPIO_Init->Mode & TRIGGER_RISING) != 0x00U)
 8001fdc:	683b      	ldr	r3, [r7, #0]
 8001fde:	685b      	ldr	r3, [r3, #4]
 8001fe0:	f403 1380 	and.w	r3, r3, #1048576	; 0x100000
 8001fe4:	2b00      	cmp	r3, #0
 8001fe6:	d003      	beq.n	8001ff0 <HAL_GPIO_Init+0x23c>
        {
          temp |= iocurrent;
 8001fe8:	693a      	ldr	r2, [r7, #16]
 8001fea:	68fb      	ldr	r3, [r7, #12]
 8001fec:	4313      	orrs	r3, r2
 8001fee:	613b      	str	r3, [r7, #16]
        }
        EXTI->RTSR1 = temp;
 8001ff0:	4a30      	ldr	r2, [pc, #192]	; (80020b4 <HAL_GPIO_Init+0x300>)
 8001ff2:	693b      	ldr	r3, [r7, #16]
 8001ff4:	6093      	str	r3, [r2, #8]

        temp = EXTI->FTSR1;
 8001ff6:	4b2f      	ldr	r3, [pc, #188]	; (80020b4 <HAL_GPIO_Init+0x300>)
 8001ff8:	68db      	ldr	r3, [r3, #12]
 8001ffa:	613b      	str	r3, [r7, #16]
        temp &= ~(iocurrent);
 8001ffc:	68fb      	ldr	r3, [r7, #12]
 8001ffe:	43db      	mvns	r3, r3
 8002000:	693a      	ldr	r2, [r7, #16]
 8002002:	4013      	ands	r3, r2
 8002004:	613b      	str	r3, [r7, #16]
        if ((GPIO_Init->Mode & TRIGGER_FALLING) != 0x00U)
 8002006:	683b      	ldr	r3, [r7, #0]
 8002008:	685b      	ldr	r3, [r3, #4]
 800200a:	f403 1300 	and.w	r3, r3, #2097152	; 0x200000
 800200e:	2b00      	cmp	r3, #0
 8002010:	d003      	beq.n	800201a <HAL_GPIO_Init+0x266>
        {
          temp |= iocurrent;
 8002012:	693a      	ldr	r2, [r7, #16]
 8002014:	68fb      	ldr	r3, [r7, #12]
 8002016:	4313      	orrs	r3, r2
 8002018:	613b      	str	r3, [r7, #16]
        }
        EXTI->FTSR1 = temp;
 800201a:	4a26      	ldr	r2, [pc, #152]	; (80020b4 <HAL_GPIO_Init+0x300>)
 800201c:	693b      	ldr	r3, [r7, #16]
 800201e:	60d3      	str	r3, [r2, #12]

        temp = EXTI->EMR1;
 8002020:	4b24      	ldr	r3, [pc, #144]	; (80020b4 <HAL_GPIO_Init+0x300>)
 8002022:	685b      	ldr	r3, [r3, #4]
 8002024:	613b      	str	r3, [r7, #16]
        temp &= ~(iocurrent);
 8002026:	68fb      	ldr	r3, [r7, #12]
 8002028:	43db      	mvns	r3, r3
 800202a:	693a      	ldr	r2, [r7, #16]
 800202c:	4013      	ands	r3, r2
 800202e:	613b      	str	r3, [r7, #16]
        if ((GPIO_Init->Mode & EXTI_EVT) != 0x00U)
 8002030:	683b      	ldr	r3, [r7, #0]
 8002032:	685b      	ldr	r3, [r3, #4]
 8002034:	f403 3300 	and.w	r3, r3, #131072	; 0x20000
 8002038:	2b00      	cmp	r3, #0
 800203a:	d003      	beq.n	8002044 <HAL_GPIO_Init+0x290>
        {
          temp |= iocurrent;
 800203c:	693a      	ldr	r2, [r7, #16]
 800203e:	68fb      	ldr	r3, [r7, #12]
 8002040:	4313      	orrs	r3, r2
 8002042:	613b      	str	r3, [r7, #16]
        }
        EXTI->EMR1 = temp;
 8002044:	4a1b      	ldr	r2, [pc, #108]	; (80020b4 <HAL_GPIO_Init+0x300>)
 8002046:	693b      	ldr	r3, [r7, #16]
 8002048:	6053      	str	r3, [r2, #4]

        /* Clear EXTI line configuration */
        temp = EXTI->IMR1;
 800204a:	4b1a      	ldr	r3, [pc, #104]	; (80020b4 <HAL_GPIO_Init+0x300>)
 800204c:	681b      	ldr	r3, [r3, #0]
 800204e:	613b      	str	r3, [r7, #16]
        temp &= ~(iocurrent);
 8002050:	68fb      	ldr	r3, [r7, #12]
 8002052:	43db      	mvns	r3, r3
 8002054:	693a      	ldr	r2, [r7, #16]
 8002056:	4013      	ands	r3, r2
 8002058:	613b      	str	r3, [r7, #16]
        if ((GPIO_Init->Mode & EXTI_IT) != 0x00U)
 800205a:	683b      	ldr	r3, [r7, #0]
 800205c:	685b      	ldr	r3, [r3, #4]
 800205e:	f403 3380 	and.w	r3, r3, #65536	; 0x10000
 8002062:	2b00      	cmp	r3, #0
 8002064:	d003      	beq.n	800206e <HAL_GPIO_Init+0x2ba>
        {
          temp |= iocurrent;
 8002066:	693a      	ldr	r2, [r7, #16]
 8002068:	68fb      	ldr	r3, [r7, #12]
 800206a:	4313      	orrs	r3, r2
 800206c:	613b      	str	r3, [r7, #16]
        }
        EXTI->IMR1 = temp;
 800206e:	4a11      	ldr	r2, [pc, #68]	; (80020b4 <HAL_GPIO_Init+0x300>)
 8002070:	693b      	ldr	r3, [r7, #16]
 8002072:	6013      	str	r3, [r2, #0]
      }
    }

    position++;
 8002074:	697b      	ldr	r3, [r7, #20]
 8002076:	3301      	adds	r3, #1
 8002078:	617b      	str	r3, [r7, #20]
  while (((GPIO_Init->Pin) >> position) != 0U)
 800207a:	683b      	ldr	r3, [r7, #0]
 800207c:	681a      	ldr	r2, [r3, #0]
 800207e:	697b      	ldr	r3, [r7, #20]
 8002080:	fa22 f303 	lsr.w	r3, r2, r3
 8002084:	2b00      	cmp	r3, #0
 8002086:	f47f ae9d 	bne.w	8001dc4 <HAL_GPIO_Init+0x10>
  }
}
 800208a:	bf00      	nop
 800208c:	bf00      	nop
 800208e:	371c      	adds	r7, #28
 8002090:	46bd      	mov	sp, r7
 8002092:	f85d 7b04 	ldr.w	r7, [sp], #4
 8002096:	4770      	bx	lr
 8002098:	40021000 	.word	0x40021000
 800209c:	40010000 	.word	0x40010000
 80020a0:	48000400 	.word	0x48000400
 80020a4:	48000800 	.word	0x48000800
 80020a8:	48000c00 	.word	0x48000c00
 80020ac:	48001000 	.word	0x48001000
 80020b0:	48001400 	.word	0x48001400
 80020b4:	40010400 	.word	0x40010400

080020b8 <HAL_GPIO_ReadPin>:
  * @param  GPIO_Pin specifies the port bit to read.
  *         This parameter can be any combination of GPIO_PIN_x where x can be (0..15).
  * @retval The input port pin value.
  */
GPIO_PinState HAL_GPIO_ReadPin(GPIO_TypeDef *GPIOx, uint16_t GPIO_Pin)
{
 80020b8:	b480      	push	{r7}
 80020ba:	b085      	sub	sp, #20
 80020bc:	af00      	add	r7, sp, #0
 80020be:	6078      	str	r0, [r7, #4]
 80020c0:	460b      	mov	r3, r1
 80020c2:	807b      	strh	r3, [r7, #2]
  GPIO_PinState bitstatus;

  /* Check the parameters */
  assert_param(IS_GPIO_PIN(GPIO_Pin));

  if ((GPIOx->IDR & GPIO_Pin) != 0x00U)
 80020c4:	687b      	ldr	r3, [r7, #4]
 80020c6:	691a      	ldr	r2, [r3, #16]
 80020c8:	887b      	ldrh	r3, [r7, #2]
 80020ca:	4013      	ands	r3, r2
 80020cc:	2b00      	cmp	r3, #0
 80020ce:	d002      	beq.n	80020d6 <HAL_GPIO_ReadPin+0x1e>
  {
    bitstatus = GPIO_PIN_SET;
 80020d0:	2301      	movs	r3, #1
 80020d2:	73fb      	strb	r3, [r7, #15]
 80020d4:	e001      	b.n	80020da <HAL_GPIO_ReadPin+0x22>
  }
  else
  {
    bitstatus = GPIO_PIN_RESET;
 80020d6:	2300      	movs	r3, #0
 80020d8:	73fb      	strb	r3, [r7, #15]
  }
  return bitstatus;
 80020da:	7bfb      	ldrb	r3, [r7, #15]
}
 80020dc:	4618      	mov	r0, r3
 80020de:	3714      	adds	r7, #20
 80020e0:	46bd      	mov	sp, r7
 80020e2:	f85d 7b04 	ldr.w	r7, [sp], #4
 80020e6:	4770      	bx	lr

080020e8 <HAL_GPIO_WritePin>:
  *            @arg GPIO_PIN_RESET: to clear the port pin
  *            @arg GPIO_PIN_SET: to set the port pin
  * @retval None
  */
void HAL_GPIO_WritePin(GPIO_TypeDef *GPIOx, uint16_t GPIO_Pin, GPIO_PinState PinState)
{
 80020e8:	b480      	push	{r7}
 80020ea:	b083      	sub	sp, #12
 80020ec:	af00      	add	r7, sp, #0
 80020ee:	6078      	str	r0, [r7, #4]
 80020f0:	460b      	mov	r3, r1
 80020f2:	807b      	strh	r3, [r7, #2]
 80020f4:	4613      	mov	r3, r2
 80020f6:	707b      	strb	r3, [r7, #1]
  /* Check the parameters */
  assert_param(IS_GPIO_PIN(GPIO_Pin));
  assert_param(IS_GPIO_PIN_ACTION(PinState));

  if (PinState != GPIO_PIN_RESET)
 80020f8:	787b      	ldrb	r3, [r7, #1]
 80020fa:	2b00      	cmp	r3, #0
 80020fc:	d003      	beq.n	8002106 <HAL_GPIO_WritePin+0x1e>
  {
    GPIOx->BSRR = (uint32_t)GPIO_Pin;
 80020fe:	887a      	ldrh	r2, [r7, #2]
 8002100:	687b      	ldr	r3, [r7, #4]
 8002102:	619a      	str	r2, [r3, #24]
  }
  else
  {
    GPIOx->BRR = (uint32_t)GPIO_Pin;
  }
}
 8002104:	e002      	b.n	800210c <HAL_GPIO_WritePin+0x24>
    GPIOx->BRR = (uint32_t)GPIO_Pin;
 8002106:	887a      	ldrh	r2, [r7, #2]
 8002108:	687b      	ldr	r3, [r7, #4]
 800210a:	629a      	str	r2, [r3, #40]	; 0x28
}
 800210c:	bf00      	nop
 800210e:	370c      	adds	r7, #12
 8002110:	46bd      	mov	sp, r7
 8002112:	f85d 7b04 	ldr.w	r7, [sp], #4
 8002116:	4770      	bx	lr

08002118 <HAL_GPIO_EXTI_IRQHandler>:
  * @brief  Handle EXTI interrupt request.
  * @param  GPIO_Pin Specifies the port pin connected to corresponding EXTI line.
  * @retval None
  */
void HAL_GPIO_EXTI_IRQHandler(uint16_t GPIO_Pin)
{
 8002118:	b580      	push	{r7, lr}
 800211a:	b082      	sub	sp, #8
 800211c:	af00      	add	r7, sp, #0
 800211e:	4603      	mov	r3, r0
 8002120:	80fb      	strh	r3, [r7, #6]
  /* EXTI line interrupt detected */
  if (__HAL_GPIO_EXTI_GET_IT(GPIO_Pin) != 0x00u)
 8002122:	4b08      	ldr	r3, [pc, #32]	; (8002144 <HAL_GPIO_EXTI_IRQHandler+0x2c>)
 8002124:	695a      	ldr	r2, [r3, #20]
 8002126:	88fb      	ldrh	r3, [r7, #6]
 8002128:	4013      	ands	r3, r2
 800212a:	2b00      	cmp	r3, #0
 800212c:	d006      	beq.n	800213c <HAL_GPIO_EXTI_IRQHandler+0x24>
  {
    __HAL_GPIO_EXTI_CLEAR_IT(GPIO_Pin);
 800212e:	4a05      	ldr	r2, [pc, #20]	; (8002144 <HAL_GPIO_EXTI_IRQHandler+0x2c>)
 8002130:	88fb      	ldrh	r3, [r7, #6]
 8002132:	6153      	str	r3, [r2, #20]
    HAL_GPIO_EXTI_Callback(GPIO_Pin);
 8002134:	88fb      	ldrh	r3, [r7, #6]
 8002136:	4618      	mov	r0, r3
 8002138:	f000 f806 	bl	8002148 <HAL_GPIO_EXTI_Callback>
  }
}
 800213c:	bf00      	nop
 800213e:	3708      	adds	r7, #8
 8002140:	46bd      	mov	sp, r7
 8002142:	bd80      	pop	{r7, pc}
 8002144:	40010400 	.word	0x40010400

08002148 <HAL_GPIO_EXTI_Callback>:
  * @brief  EXTI line detection callback.
  * @param  GPIO_Pin: Specifies the port pin connected to corresponding EXTI line.
  * @retval None
  */
__weak void HAL_GPIO_EXTI_Callback(uint16_t GPIO_Pin)
{
 8002148:	b480      	push	{r7}
 800214a:	b083      	sub	sp, #12
 800214c:	af00      	add	r7, sp, #0
 800214e:	4603      	mov	r3, r0
 8002150:	80fb      	strh	r3, [r7, #6]
  UNUSED(GPIO_Pin);

  /* NOTE: This function should not be modified, when the callback is needed,
           the HAL_GPIO_EXTI_Callback could be implemented in the user file
   */
}
 8002152:	bf00      	nop
 8002154:	370c      	adds	r7, #12
 8002156:	46bd      	mov	sp, r7
 8002158:	f85d 7b04 	ldr.w	r7, [sp], #4
 800215c:	4770      	bx	lr

0800215e <HAL_I2C_Init>:
  * @param  hi2c Pointer to a I2C_HandleTypeDef structure that contains
  *                the configuration information for the specified I2C.
  * @retval HAL status
  */
HAL_StatusTypeDef HAL_I2C_Init(I2C_HandleTypeDef *hi2c)
{
 800215e:	b580      	push	{r7, lr}
 8002160:	b082      	sub	sp, #8
 8002162:	af00      	add	r7, sp, #0
 8002164:	6078      	str	r0, [r7, #4]
  /* Check the I2C handle allocation */
  if (hi2c == NULL)
 8002166:	687b      	ldr	r3, [r7, #4]
 8002168:	2b00      	cmp	r3, #0
 800216a:	d101      	bne.n	8002170 <HAL_I2C_Init+0x12>
  {
    return HAL_ERROR;
 800216c:	2301      	movs	r3, #1
 800216e:	e08d      	b.n	800228c <HAL_I2C_Init+0x12e>
  assert_param(IS_I2C_OWN_ADDRESS2(hi2c->Init.OwnAddress2));
  assert_param(IS_I2C_OWN_ADDRESS2_MASK(hi2c->Init.OwnAddress2Masks));
  assert_param(IS_I2C_GENERAL_CALL(hi2c->Init.GeneralCallMode));
  assert_param(IS_I2C_NO_STRETCH(hi2c->Init.NoStretchMode));

  if (hi2c->State == HAL_I2C_STATE_RESET)
 8002170:	687b      	ldr	r3, [r7, #4]
 8002172:	f893 3041 	ldrb.w	r3, [r3, #65]	; 0x41
 8002176:	b2db      	uxtb	r3, r3
 8002178:	2b00      	cmp	r3, #0
 800217a:	d106      	bne.n	800218a <HAL_I2C_Init+0x2c>
  {
    /* Allocate lock resource and initialize it */
    hi2c->Lock = HAL_UNLOCKED;
 800217c:	687b      	ldr	r3, [r7, #4]
 800217e:	2200      	movs	r2, #0
 8002180:	f883 2040 	strb.w	r2, [r3, #64]	; 0x40

    /* Init the low level hardware : GPIO, CLOCK, CORTEX...etc */
    hi2c->MspInitCallback(hi2c);
#else
    /* Init the low level hardware : GPIO, CLOCK, CORTEX...etc */
    HAL_I2C_MspInit(hi2c);
 8002184:	6878      	ldr	r0, [r7, #4]
 8002186:	f7fe ff59 	bl	800103c <HAL_I2C_MspInit>
#endif /* USE_HAL_I2C_REGISTER_CALLBACKS */
  }

  hi2c->State = HAL_I2C_STATE_BUSY;
 800218a:	687b      	ldr	r3, [r7, #4]
 800218c:	2224      	movs	r2, #36	; 0x24
 800218e:	f883 2041 	strb.w	r2, [r3, #65]	; 0x41

  /* Disable the selected I2C peripheral */
  __HAL_I2C_DISABLE(hi2c);
 8002192:	687b      	ldr	r3, [r7, #4]
 8002194:	681b      	ldr	r3, [r3, #0]
 8002196:	681a      	ldr	r2, [r3, #0]
 8002198:	687b      	ldr	r3, [r7, #4]
 800219a:	681b      	ldr	r3, [r3, #0]
 800219c:	f022 0201 	bic.w	r2, r2, #1
 80021a0:	601a      	str	r2, [r3, #0]

  /*---------------------------- I2Cx TIMINGR Configuration ------------------*/
  /* Configure I2Cx: Frequency range */
  hi2c->Instance->TIMINGR = hi2c->Init.Timing & TIMING_CLEAR_MASK;
 80021a2:	687b      	ldr	r3, [r7, #4]
 80021a4:	685a      	ldr	r2, [r3, #4]
 80021a6:	687b      	ldr	r3, [r7, #4]
 80021a8:	681b      	ldr	r3, [r3, #0]
 80021aa:	f022 6270 	bic.w	r2, r2, #251658240	; 0xf000000
 80021ae:	611a      	str	r2, [r3, #16]

  /*---------------------------- I2Cx OAR1 Configuration ---------------------*/
  /* Disable Own Address1 before set the Own Address1 configuration */
  hi2c->Instance->OAR1 &= ~I2C_OAR1_OA1EN;
 80021b0:	687b      	ldr	r3, [r7, #4]
 80021b2:	681b      	ldr	r3, [r3, #0]
 80021b4:	689a      	ldr	r2, [r3, #8]
 80021b6:	687b      	ldr	r3, [r7, #4]
 80021b8:	681b      	ldr	r3, [r3, #0]
 80021ba:	f422 4200 	bic.w	r2, r2, #32768	; 0x8000
 80021be:	609a      	str	r2, [r3, #8]

  /* Configure I2Cx: Own Address1 and ack own address1 mode */
  if (hi2c->Init.AddressingMode == I2C_ADDRESSINGMODE_7BIT)
 80021c0:	687b      	ldr	r3, [r7, #4]
 80021c2:	68db      	ldr	r3, [r3, #12]
 80021c4:	2b01      	cmp	r3, #1
 80021c6:	d107      	bne.n	80021d8 <HAL_I2C_Init+0x7a>
  {
    hi2c->Instance->OAR1 = (I2C_OAR1_OA1EN | hi2c->Init.OwnAddress1);
 80021c8:	687b      	ldr	r3, [r7, #4]
 80021ca:	689a      	ldr	r2, [r3, #8]
 80021cc:	687b      	ldr	r3, [r7, #4]
 80021ce:	681b      	ldr	r3, [r3, #0]
 80021d0:	f442 4200 	orr.w	r2, r2, #32768	; 0x8000
 80021d4:	609a      	str	r2, [r3, #8]
 80021d6:	e006      	b.n	80021e6 <HAL_I2C_Init+0x88>
  }
  else /* I2C_ADDRESSINGMODE_10BIT */
  {
    hi2c->Instance->OAR1 = (I2C_OAR1_OA1EN | I2C_OAR1_OA1MODE | hi2c->Init.OwnAddress1);
 80021d8:	687b      	ldr	r3, [r7, #4]
 80021da:	689a      	ldr	r2, [r3, #8]
 80021dc:	687b      	ldr	r3, [r7, #4]
 80021de:	681b      	ldr	r3, [r3, #0]
 80021e0:	f442 4204 	orr.w	r2, r2, #33792	; 0x8400
 80021e4:	609a      	str	r2, [r3, #8]
  }

  /*---------------------------- I2Cx CR2 Configuration ----------------------*/
  /* Configure I2Cx: Addressing Master mode */
  if (hi2c->Init.AddressingMode == I2C_ADDRESSINGMODE_10BIT)
 80021e6:	687b      	ldr	r3, [r7, #4]
 80021e8:	68db      	ldr	r3, [r3, #12]
 80021ea:	2b02      	cmp	r3, #2
 80021ec:	d108      	bne.n	8002200 <HAL_I2C_Init+0xa2>
  {
    SET_BIT(hi2c->Instance->CR2, I2C_CR2_ADD10);
 80021ee:	687b      	ldr	r3, [r7, #4]
 80021f0:	681b      	ldr	r3, [r3, #0]
 80021f2:	685a      	ldr	r2, [r3, #4]
 80021f4:	687b      	ldr	r3, [r7, #4]
 80021f6:	681b      	ldr	r3, [r3, #0]
 80021f8:	f442 6200 	orr.w	r2, r2, #2048	; 0x800
 80021fc:	605a      	str	r2, [r3, #4]
 80021fe:	e007      	b.n	8002210 <HAL_I2C_Init+0xb2>
  }
  else
  {
    /* Clear the I2C ADD10 bit */
    CLEAR_BIT(hi2c->Instance->CR2, I2C_CR2_ADD10);
 8002200:	687b      	ldr	r3, [r7, #4]
 8002202:	681b      	ldr	r3, [r3, #0]
 8002204:	685a      	ldr	r2, [r3, #4]
 8002206:	687b      	ldr	r3, [r7, #4]
 8002208:	681b      	ldr	r3, [r3, #0]
 800220a:	f422 6200 	bic.w	r2, r2, #2048	; 0x800
 800220e:	605a      	str	r2, [r3, #4]
  }
  /* Enable the AUTOEND by default, and enable NACK (should be disable only during Slave process */
  hi2c->Instance->CR2 |= (I2C_CR2_AUTOEND | I2C_CR2_NACK);
 8002210:	687b      	ldr	r3, [r7, #4]
 8002212:	681b      	ldr	r3, [r3, #0]
 8002214:	685b      	ldr	r3, [r3, #4]
 8002216:	687a      	ldr	r2, [r7, #4]
 8002218:	6812      	ldr	r2, [r2, #0]
 800221a:	f043 7300 	orr.w	r3, r3, #33554432	; 0x2000000
 800221e:	f443 4300 	orr.w	r3, r3, #32768	; 0x8000
 8002222:	6053      	str	r3, [r2, #4]

  /*---------------------------- I2Cx OAR2 Configuration ---------------------*/
  /* Disable Own Address2 before set the Own Address2 configuration */
  hi2c->Instance->OAR2 &= ~I2C_DUALADDRESS_ENABLE;
 8002224:	687b      	ldr	r3, [r7, #4]
 8002226:	681b      	ldr	r3, [r3, #0]
 8002228:	68da      	ldr	r2, [r3, #12]
 800222a:	687b      	ldr	r3, [r7, #4]
 800222c:	681b      	ldr	r3, [r3, #0]
 800222e:	f422 4200 	bic.w	r2, r2, #32768	; 0x8000
 8002232:	60da      	str	r2, [r3, #12]

  /* Configure I2Cx: Dual mode and Own Address2 */
  hi2c->Instance->OAR2 = (hi2c->Init.DualAddressMode | hi2c->Init.OwnAddress2 | \
 8002234:	687b      	ldr	r3, [r7, #4]
 8002236:	691a      	ldr	r2, [r3, #16]
 8002238:	687b      	ldr	r3, [r7, #4]
 800223a:	695b      	ldr	r3, [r3, #20]
 800223c:	ea42 0103 	orr.w	r1, r2, r3
                          (hi2c->Init.OwnAddress2Masks << 8));
 8002240:	687b      	ldr	r3, [r7, #4]
 8002242:	699b      	ldr	r3, [r3, #24]
 8002244:	021a      	lsls	r2, r3, #8
  hi2c->Instance->OAR2 = (hi2c->Init.DualAddressMode | hi2c->Init.OwnAddress2 | \
 8002246:	687b      	ldr	r3, [r7, #4]
 8002248:	681b      	ldr	r3, [r3, #0]
 800224a:	430a      	orrs	r2, r1
 800224c:	60da      	str	r2, [r3, #12]

  /*---------------------------- I2Cx CR1 Configuration ----------------------*/
  /* Configure I2Cx: Generalcall and NoStretch mode */
  hi2c->Instance->CR1 = (hi2c->Init.GeneralCallMode | hi2c->Init.NoStretchMode);
 800224e:	687b      	ldr	r3, [r7, #4]
 8002250:	69d9      	ldr	r1, [r3, #28]
 8002252:	687b      	ldr	r3, [r7, #4]
 8002254:	6a1a      	ldr	r2, [r3, #32]
 8002256:	687b      	ldr	r3, [r7, #4]
 8002258:	681b      	ldr	r3, [r3, #0]
 800225a:	430a      	orrs	r2, r1
 800225c:	601a      	str	r2, [r3, #0]

  /* Enable the selected I2C peripheral */
  __HAL_I2C_ENABLE(hi2c);
 800225e:	687b      	ldr	r3, [r7, #4]
 8002260:	681b      	ldr	r3, [r3, #0]
 8002262:	681a      	ldr	r2, [r3, #0]
 8002264:	687b      	ldr	r3, [r7, #4]
 8002266:	681b      	ldr	r3, [r3, #0]
 8002268:	f042 0201 	orr.w	r2, r2, #1
 800226c:	601a      	str	r2, [r3, #0]

  hi2c->ErrorCode = HAL_I2C_ERROR_NONE;
 800226e:	687b      	ldr	r3, [r7, #4]
 8002270:	2200      	movs	r2, #0
 8002272:	645a      	str	r2, [r3, #68]	; 0x44
  hi2c->State = HAL_I2C_STATE_READY;
 8002274:	687b      	ldr	r3, [r7, #4]
 8002276:	2220      	movs	r2, #32
 8002278:	f883 2041 	strb.w	r2, [r3, #65]	; 0x41
  hi2c->PreviousState = I2C_STATE_NONE;
 800227c:	687b      	ldr	r3, [r7, #4]
 800227e:	2200      	movs	r2, #0
 8002280:	631a      	str	r2, [r3, #48]	; 0x30
  hi2c->Mode = HAL_I2C_MODE_NONE;
 8002282:	687b      	ldr	r3, [r7, #4]
 8002284:	2200      	movs	r2, #0
 8002286:	f883 2042 	strb.w	r2, [r3, #66]	; 0x42

  return HAL_OK;
 800228a:	2300      	movs	r3, #0
}
 800228c:	4618      	mov	r0, r3
 800228e:	3708      	adds	r7, #8
 8002290:	46bd      	mov	sp, r7
 8002292:	bd80      	pop	{r7, pc}

08002294 <HAL_I2C_Mem_Write_IT>:
  * @param  Size Amount of data to be sent
  * @retval HAL status
  */
HAL_StatusTypeDef HAL_I2C_Mem_Write_IT(I2C_HandleTypeDef *hi2c, uint16_t DevAddress, uint16_t MemAddress,
                                       uint16_t MemAddSize, uint8_t *pData, uint16_t Size)
{
 8002294:	b580      	push	{r7, lr}
 8002296:	b086      	sub	sp, #24
 8002298:	af02      	add	r7, sp, #8
 800229a:	60f8      	str	r0, [r7, #12]
 800229c:	4608      	mov	r0, r1
 800229e:	4611      	mov	r1, r2
 80022a0:	461a      	mov	r2, r3
 80022a2:	4603      	mov	r3, r0
 80022a4:	817b      	strh	r3, [r7, #10]
 80022a6:	460b      	mov	r3, r1
 80022a8:	813b      	strh	r3, [r7, #8]
 80022aa:	4613      	mov	r3, r2
 80022ac:	80fb      	strh	r3, [r7, #6]
  /* Check the parameters */
  assert_param(IS_I2C_MEMADD_SIZE(MemAddSize));

  if (hi2c->State == HAL_I2C_STATE_READY)
 80022ae:	68fb      	ldr	r3, [r7, #12]
 80022b0:	f893 3041 	ldrb.w	r3, [r3, #65]	; 0x41
 80022b4:	b2db      	uxtb	r3, r3
 80022b6:	2b20      	cmp	r3, #32
 80022b8:	d16a      	bne.n	8002390 <HAL_I2C_Mem_Write_IT+0xfc>
  {
    if ((pData == NULL) || (Size == 0U))
 80022ba:	69bb      	ldr	r3, [r7, #24]
 80022bc:	2b00      	cmp	r3, #0
 80022be:	d002      	beq.n	80022c6 <HAL_I2C_Mem_Write_IT+0x32>
 80022c0:	8bbb      	ldrh	r3, [r7, #28]
 80022c2:	2b00      	cmp	r3, #0
 80022c4:	d105      	bne.n	80022d2 <HAL_I2C_Mem_Write_IT+0x3e>
    {
      hi2c->ErrorCode = HAL_I2C_ERROR_INVALID_PARAM;
 80022c6:	68fb      	ldr	r3, [r7, #12]
 80022c8:	f44f 7200 	mov.w	r2, #512	; 0x200
 80022cc:	645a      	str	r2, [r3, #68]	; 0x44
      return  HAL_ERROR;
 80022ce:	2301      	movs	r3, #1
 80022d0:	e05f      	b.n	8002392 <HAL_I2C_Mem_Write_IT+0xfe>
    }

    if (__HAL_I2C_GET_FLAG(hi2c, I2C_FLAG_BUSY) == SET)
 80022d2:	68fb      	ldr	r3, [r7, #12]
 80022d4:	681b      	ldr	r3, [r3, #0]
 80022d6:	699b      	ldr	r3, [r3, #24]
 80022d8:	f403 4300 	and.w	r3, r3, #32768	; 0x8000
 80022dc:	f5b3 4f00 	cmp.w	r3, #32768	; 0x8000
 80022e0:	d101      	bne.n	80022e6 <HAL_I2C_Mem_Write_IT+0x52>
    {
      return HAL_BUSY;
 80022e2:	2302      	movs	r3, #2
 80022e4:	e055      	b.n	8002392 <HAL_I2C_Mem_Write_IT+0xfe>
    }

    /* Process Locked */
    __HAL_LOCK(hi2c);
 80022e6:	68fb      	ldr	r3, [r7, #12]
 80022e8:	f893 3040 	ldrb.w	r3, [r3, #64]	; 0x40
 80022ec:	2b01      	cmp	r3, #1
 80022ee:	d101      	bne.n	80022f4 <HAL_I2C_Mem_Write_IT+0x60>
 80022f0:	2302      	movs	r3, #2
 80022f2:	e04e      	b.n	8002392 <HAL_I2C_Mem_Write_IT+0xfe>
 80022f4:	68fb      	ldr	r3, [r7, #12]
 80022f6:	2201      	movs	r2, #1
 80022f8:	f883 2040 	strb.w	r2, [r3, #64]	; 0x40

    hi2c->State       = HAL_I2C_STATE_BUSY_TX;
 80022fc:	68fb      	ldr	r3, [r7, #12]
 80022fe:	2221      	movs	r2, #33	; 0x21
 8002300:	f883 2041 	strb.w	r2, [r3, #65]	; 0x41
    hi2c->Mode        = HAL_I2C_MODE_MEM;
 8002304:	68fb      	ldr	r3, [r7, #12]
 8002306:	2240      	movs	r2, #64	; 0x40
 8002308:	f883 2042 	strb.w	r2, [r3, #66]	; 0x42
    hi2c->ErrorCode   = HAL_I2C_ERROR_NONE;
 800230c:	68fb      	ldr	r3, [r7, #12]
 800230e:	2200      	movs	r2, #0
 8002310:	645a      	str	r2, [r3, #68]	; 0x44

    /* Prepare transfer parameters */
    hi2c->XferSize    = 0U;
 8002312:	68fb      	ldr	r3, [r7, #12]
 8002314:	2200      	movs	r2, #0
 8002316:	851a      	strh	r2, [r3, #40]	; 0x28
    hi2c->pBuffPtr    = pData;
 8002318:	68fb      	ldr	r3, [r7, #12]
 800231a:	69ba      	ldr	r2, [r7, #24]
 800231c:	625a      	str	r2, [r3, #36]	; 0x24
    hi2c->XferCount   = Size;
 800231e:	68fb      	ldr	r3, [r7, #12]
 8002320:	8bba      	ldrh	r2, [r7, #28]
 8002322:	855a      	strh	r2, [r3, #42]	; 0x2a
    hi2c->XferOptions = I2C_NO_OPTION_FRAME;
 8002324:	68fb      	ldr	r3, [r7, #12]
 8002326:	4a1d      	ldr	r2, [pc, #116]	; (800239c <HAL_I2C_Mem_Write_IT+0x108>)
 8002328:	62da      	str	r2, [r3, #44]	; 0x2c
    hi2c->XferISR     = I2C_Mem_ISR_IT;
 800232a:	68fb      	ldr	r3, [r7, #12]
 800232c:	4a1c      	ldr	r2, [pc, #112]	; (80023a0 <HAL_I2C_Mem_Write_IT+0x10c>)
 800232e:	635a      	str	r2, [r3, #52]	; 0x34
    hi2c->Devaddress  = DevAddress;
 8002330:	897a      	ldrh	r2, [r7, #10]
 8002332:	68fb      	ldr	r3, [r7, #12]
 8002334:	64da      	str	r2, [r3, #76]	; 0x4c

    /* If Memory address size is 8Bit */
    if (MemAddSize == I2C_MEMADD_SIZE_8BIT)
 8002336:	88fb      	ldrh	r3, [r7, #6]
 8002338:	2b01      	cmp	r3, #1
 800233a:	d109      	bne.n	8002350 <HAL_I2C_Mem_Write_IT+0xbc>
    {
      /* Prefetch Memory Address */
      hi2c->Instance->TXDR = I2C_MEM_ADD_LSB(MemAddress);
 800233c:	893b      	ldrh	r3, [r7, #8]
 800233e:	b2da      	uxtb	r2, r3
 8002340:	68fb      	ldr	r3, [r7, #12]
 8002342:	681b      	ldr	r3, [r3, #0]
 8002344:	629a      	str	r2, [r3, #40]	; 0x28

      /* Reset Memaddress content */
      hi2c->Memaddress = 0xFFFFFFFFU;
 8002346:	68fb      	ldr	r3, [r7, #12]
 8002348:	f04f 32ff 	mov.w	r2, #4294967295
 800234c:	651a      	str	r2, [r3, #80]	; 0x50
 800234e:	e00b      	b.n	8002368 <HAL_I2C_Mem_Write_IT+0xd4>
    }
    /* If Memory address size is 16Bit */
    else
    {
      /* Prefetch Memory Address (MSB part, LSB will be manage through interrupt) */
      hi2c->Instance->TXDR = I2C_MEM_ADD_MSB(MemAddress);
 8002350:	893b      	ldrh	r3, [r7, #8]
 8002352:	0a1b      	lsrs	r3, r3, #8
 8002354:	b29b      	uxth	r3, r3
 8002356:	b2da      	uxtb	r2, r3
 8002358:	68fb      	ldr	r3, [r7, #12]
 800235a:	681b      	ldr	r3, [r3, #0]
 800235c:	629a      	str	r2, [r3, #40]	; 0x28

      /* Prepare Memaddress buffer for LSB part */
      hi2c->Memaddress = I2C_MEM_ADD_LSB(MemAddress);
 800235e:	893b      	ldrh	r3, [r7, #8]
 8002360:	b2db      	uxtb	r3, r3
 8002362:	461a      	mov	r2, r3
 8002364:	68fb      	ldr	r3, [r7, #12]
 8002366:	651a      	str	r2, [r3, #80]	; 0x50
    }
    /* Send Slave Address and Memory Address */
    I2C_TransferConfig(hi2c, DevAddress, (uint8_t)MemAddSize, I2C_RELOAD_MODE, I2C_GENERATE_START_WRITE);
 8002368:	88fb      	ldrh	r3, [r7, #6]
 800236a:	b2da      	uxtb	r2, r3
 800236c:	8979      	ldrh	r1, [r7, #10]
 800236e:	4b0d      	ldr	r3, [pc, #52]	; (80023a4 <HAL_I2C_Mem_Write_IT+0x110>)
 8002370:	9300      	str	r3, [sp, #0]
 8002372:	f04f 7380 	mov.w	r3, #16777216	; 0x1000000
 8002376:	68f8      	ldr	r0, [r7, #12]
 8002378:	f001 fb78 	bl	8003a6c <I2C_TransferConfig>

    /* Process Unlocked */
    __HAL_UNLOCK(hi2c);
 800237c:	68fb      	ldr	r3, [r7, #12]
 800237e:	2200      	movs	r2, #0
 8002380:	f883 2040 	strb.w	r2, [r3, #64]	; 0x40

    /* Enable ERR, TC, STOP, NACK, TXI interrupt */
    /* possible to enable all of these */
    /* I2C_IT_ERRI | I2C_IT_TCI | I2C_IT_STOPI | I2C_IT_NACKI |
      I2C_IT_ADDRI | I2C_IT_RXI | I2C_IT_TXI */
    I2C_Enable_IRQ(hi2c, I2C_XFER_TX_IT);
 8002384:	2101      	movs	r1, #1
 8002386:	68f8      	ldr	r0, [r7, #12]
 8002388:	f001 fba2 	bl	8003ad0 <I2C_Enable_IRQ>

    return HAL_OK;
 800238c:	2300      	movs	r3, #0
 800238e:	e000      	b.n	8002392 <HAL_I2C_Mem_Write_IT+0xfe>
  }
  else
  {
    return HAL_BUSY;
 8002390:	2302      	movs	r3, #2
  }
}
 8002392:	4618      	mov	r0, r3
 8002394:	3710      	adds	r7, #16
 8002396:	46bd      	mov	sp, r7
 8002398:	bd80      	pop	{r7, pc}
 800239a:	bf00      	nop
 800239c:	ffff0000 	.word	0xffff0000
 80023a0:	08002671 	.word	0x08002671
 80023a4:	80002000 	.word	0x80002000

080023a8 <HAL_I2C_Mem_Read_IT>:
  * @param  Size Amount of data to be sent
  * @retval HAL status
  */
HAL_StatusTypeDef HAL_I2C_Mem_Read_IT(I2C_HandleTypeDef *hi2c, uint16_t DevAddress, uint16_t MemAddress,
                                      uint16_t MemAddSize, uint8_t *pData, uint16_t Size)
{
 80023a8:	b580      	push	{r7, lr}
 80023aa:	b086      	sub	sp, #24
 80023ac:	af02      	add	r7, sp, #8
 80023ae:	60f8      	str	r0, [r7, #12]
 80023b0:	4608      	mov	r0, r1
 80023b2:	4611      	mov	r1, r2
 80023b4:	461a      	mov	r2, r3
 80023b6:	4603      	mov	r3, r0
 80023b8:	817b      	strh	r3, [r7, #10]
 80023ba:	460b      	mov	r3, r1
 80023bc:	813b      	strh	r3, [r7, #8]
 80023be:	4613      	mov	r3, r2
 80023c0:	80fb      	strh	r3, [r7, #6]
  /* Check the parameters */
  assert_param(IS_I2C_MEMADD_SIZE(MemAddSize));

  if (hi2c->State == HAL_I2C_STATE_READY)
 80023c2:	68fb      	ldr	r3, [r7, #12]
 80023c4:	f893 3041 	ldrb.w	r3, [r3, #65]	; 0x41
 80023c8:	b2db      	uxtb	r3, r3
 80023ca:	2b20      	cmp	r3, #32
 80023cc:	d166      	bne.n	800249c <HAL_I2C_Mem_Read_IT+0xf4>
  {
    if ((pData == NULL) || (Size == 0U))
 80023ce:	69bb      	ldr	r3, [r7, #24]
 80023d0:	2b00      	cmp	r3, #0
 80023d2:	d002      	beq.n	80023da <HAL_I2C_Mem_Read_IT+0x32>
 80023d4:	8bbb      	ldrh	r3, [r7, #28]
 80023d6:	2b00      	cmp	r3, #0
 80023d8:	d105      	bne.n	80023e6 <HAL_I2C_Mem_Read_IT+0x3e>
    {
      hi2c->ErrorCode = HAL_I2C_ERROR_INVALID_PARAM;
 80023da:	68fb      	ldr	r3, [r7, #12]
 80023dc:	f44f 7200 	mov.w	r2, #512	; 0x200
 80023e0:	645a      	str	r2, [r3, #68]	; 0x44
      return  HAL_ERROR;
 80023e2:	2301      	movs	r3, #1
 80023e4:	e05b      	b.n	800249e <HAL_I2C_Mem_Read_IT+0xf6>
    }

    if (__HAL_I2C_GET_FLAG(hi2c, I2C_FLAG_BUSY) == SET)
 80023e6:	68fb      	ldr	r3, [r7, #12]
 80023e8:	681b      	ldr	r3, [r3, #0]
 80023ea:	699b      	ldr	r3, [r3, #24]
 80023ec:	f403 4300 	and.w	r3, r3, #32768	; 0x8000
 80023f0:	f5b3 4f00 	cmp.w	r3, #32768	; 0x8000
 80023f4:	d101      	bne.n	80023fa <HAL_I2C_Mem_Read_IT+0x52>
    {
      return HAL_BUSY;
 80023f6:	2302      	movs	r3, #2
 80023f8:	e051      	b.n	800249e <HAL_I2C_Mem_Read_IT+0xf6>
    }

    /* Process Locked */
    __HAL_LOCK(hi2c);
 80023fa:	68fb      	ldr	r3, [r7, #12]
 80023fc:	f893 3040 	ldrb.w	r3, [r3, #64]	; 0x40
 8002400:	2b01      	cmp	r3, #1
 8002402:	d101      	bne.n	8002408 <HAL_I2C_Mem_Read_IT+0x60>
 8002404:	2302      	movs	r3, #2
 8002406:	e04a      	b.n	800249e <HAL_I2C_Mem_Read_IT+0xf6>
 8002408:	68fb      	ldr	r3, [r7, #12]
 800240a:	2201      	movs	r2, #1
 800240c:	f883 2040 	strb.w	r2, [r3, #64]	; 0x40

    hi2c->State       = HAL_I2C_STATE_BUSY_RX;
 8002410:	68fb      	ldr	r3, [r7, #12]
 8002412:	2222      	movs	r2, #34	; 0x22
 8002414:	f883 2041 	strb.w	r2, [r3, #65]	; 0x41
    hi2c->Mode        = HAL_I2C_MODE_MEM;
 8002418:	68fb      	ldr	r3, [r7, #12]
 800241a:	2240      	movs	r2, #64	; 0x40
 800241c:	f883 2042 	strb.w	r2, [r3, #66]	; 0x42
    hi2c->ErrorCode   = HAL_I2C_ERROR_NONE;
 8002420:	68fb      	ldr	r3, [r7, #12]
 8002422:	2200      	movs	r2, #0
 8002424:	645a      	str	r2, [r3, #68]	; 0x44

    /* Prepare transfer parameters */
    hi2c->pBuffPtr    = pData;
 8002426:	68fb      	ldr	r3, [r7, #12]
 8002428:	69ba      	ldr	r2, [r7, #24]
 800242a:	625a      	str	r2, [r3, #36]	; 0x24
    hi2c->XferCount   = Size;
 800242c:	68fb      	ldr	r3, [r7, #12]
 800242e:	8bba      	ldrh	r2, [r7, #28]
 8002430:	855a      	strh	r2, [r3, #42]	; 0x2a
    hi2c->XferOptions = I2C_NO_OPTION_FRAME;
 8002432:	68fb      	ldr	r3, [r7, #12]
 8002434:	4a1c      	ldr	r2, [pc, #112]	; (80024a8 <HAL_I2C_Mem_Read_IT+0x100>)
 8002436:	62da      	str	r2, [r3, #44]	; 0x2c
    hi2c->XferISR     = I2C_Mem_ISR_IT;
 8002438:	68fb      	ldr	r3, [r7, #12]
 800243a:	4a1c      	ldr	r2, [pc, #112]	; (80024ac <HAL_I2C_Mem_Read_IT+0x104>)
 800243c:	635a      	str	r2, [r3, #52]	; 0x34
    hi2c->Devaddress  = DevAddress;
 800243e:	897a      	ldrh	r2, [r7, #10]
 8002440:	68fb      	ldr	r3, [r7, #12]
 8002442:	64da      	str	r2, [r3, #76]	; 0x4c

    /* If Memory address size is 8Bit */
    if (MemAddSize == I2C_MEMADD_SIZE_8BIT)
 8002444:	88fb      	ldrh	r3, [r7, #6]
 8002446:	2b01      	cmp	r3, #1
 8002448:	d109      	bne.n	800245e <HAL_I2C_Mem_Read_IT+0xb6>
    {
      /* Prefetch Memory Address */
      hi2c->Instance->TXDR = I2C_MEM_ADD_LSB(MemAddress);
 800244a:	893b      	ldrh	r3, [r7, #8]
 800244c:	b2da      	uxtb	r2, r3
 800244e:	68fb      	ldr	r3, [r7, #12]
 8002450:	681b      	ldr	r3, [r3, #0]
 8002452:	629a      	str	r2, [r3, #40]	; 0x28

      /* Reset Memaddress content */
      hi2c->Memaddress = 0xFFFFFFFFU;
 8002454:	68fb      	ldr	r3, [r7, #12]
 8002456:	f04f 32ff 	mov.w	r2, #4294967295
 800245a:	651a      	str	r2, [r3, #80]	; 0x50
 800245c:	e00b      	b.n	8002476 <HAL_I2C_Mem_Read_IT+0xce>
    }
    /* If Memory address size is 16Bit */
    else
    {
      /* Prefetch Memory Address (MSB part, LSB will be manage through interrupt) */
      hi2c->Instance->TXDR = I2C_MEM_ADD_MSB(MemAddress);
 800245e:	893b      	ldrh	r3, [r7, #8]
 8002460:	0a1b      	lsrs	r3, r3, #8
 8002462:	b29b      	uxth	r3, r3
 8002464:	b2da      	uxtb	r2, r3
 8002466:	68fb      	ldr	r3, [r7, #12]
 8002468:	681b      	ldr	r3, [r3, #0]
 800246a:	629a      	str	r2, [r3, #40]	; 0x28

      /* Prepare Memaddress buffer for LSB part */
      hi2c->Memaddress = I2C_MEM_ADD_LSB(MemAddress);
 800246c:	893b      	ldrh	r3, [r7, #8]
 800246e:	b2db      	uxtb	r3, r3
 8002470:	461a      	mov	r2, r3
 8002472:	68fb      	ldr	r3, [r7, #12]
 8002474:	651a      	str	r2, [r3, #80]	; 0x50
    }
    /* Send Slave Address and Memory Address */
    I2C_TransferConfig(hi2c, DevAddress, (uint8_t)MemAddSize, I2C_SOFTEND_MODE, I2C_GENERATE_START_WRITE);
 8002476:	88fb      	ldrh	r3, [r7, #6]
 8002478:	b2da      	uxtb	r2, r3
 800247a:	8979      	ldrh	r1, [r7, #10]
 800247c:	4b0c      	ldr	r3, [pc, #48]	; (80024b0 <HAL_I2C_Mem_Read_IT+0x108>)
 800247e:	9300      	str	r3, [sp, #0]
 8002480:	2300      	movs	r3, #0
 8002482:	68f8      	ldr	r0, [r7, #12]
 8002484:	f001 faf2 	bl	8003a6c <I2C_TransferConfig>

    /* Process Unlocked */
    __HAL_UNLOCK(hi2c);
 8002488:	68fb      	ldr	r3, [r7, #12]
 800248a:	2200      	movs	r2, #0
 800248c:	f883 2040 	strb.w	r2, [r3, #64]	; 0x40

    /* Enable ERR, TC, STOP, NACK, TXI interrupt */
    /* possible to enable all of these */
    /* I2C_IT_ERRI | I2C_IT_TCI | I2C_IT_STOPI | I2C_IT_NACKI |
      I2C_IT_ADDRI | I2C_IT_RXI | I2C_IT_TXI */
    I2C_Enable_IRQ(hi2c, I2C_XFER_TX_IT);
 8002490:	2101      	movs	r1, #1
 8002492:	68f8      	ldr	r0, [r7, #12]
 8002494:	f001 fb1c 	bl	8003ad0 <I2C_Enable_IRQ>

    return HAL_OK;
 8002498:	2300      	movs	r3, #0
 800249a:	e000      	b.n	800249e <HAL_I2C_Mem_Read_IT+0xf6>
  }
  else
  {
    return HAL_BUSY;
 800249c:	2302      	movs	r3, #2
  }
}
 800249e:	4618      	mov	r0, r3
 80024a0:	3710      	adds	r7, #16
 80024a2:	46bd      	mov	sp, r7
 80024a4:	bd80      	pop	{r7, pc}
 80024a6:	bf00      	nop
 80024a8:	ffff0000 	.word	0xffff0000
 80024ac:	08002671 	.word	0x08002671
 80024b0:	80002000 	.word	0x80002000

080024b4 <HAL_I2C_EV_IRQHandler>:
  * @param  hi2c Pointer to a I2C_HandleTypeDef structure that contains
  *                the configuration information for the specified I2C.
  * @retval None
  */
void HAL_I2C_EV_IRQHandler(I2C_HandleTypeDef *hi2c) /* Derogation MISRAC2012-Rule-8.13 */
{
 80024b4:	b580      	push	{r7, lr}
 80024b6:	b084      	sub	sp, #16
 80024b8:	af00      	add	r7, sp, #0
 80024ba:	6078      	str	r0, [r7, #4]
  /* Get current IT Flags and IT sources value */
  uint32_t itflags   = READ_REG(hi2c->Instance->ISR);
 80024bc:	687b      	ldr	r3, [r7, #4]
 80024be:	681b      	ldr	r3, [r3, #0]
 80024c0:	699b      	ldr	r3, [r3, #24]
 80024c2:	60fb      	str	r3, [r7, #12]
  uint32_t itsources = READ_REG(hi2c->Instance->CR1);
 80024c4:	687b      	ldr	r3, [r7, #4]
 80024c6:	681b      	ldr	r3, [r3, #0]
 80024c8:	681b      	ldr	r3, [r3, #0]
 80024ca:	60bb      	str	r3, [r7, #8]

  /* I2C events treatment -------------------------------------*/
  if (hi2c->XferISR != NULL)
 80024cc:	687b      	ldr	r3, [r7, #4]
 80024ce:	6b5b      	ldr	r3, [r3, #52]	; 0x34
 80024d0:	2b00      	cmp	r3, #0
 80024d2:	d005      	beq.n	80024e0 <HAL_I2C_EV_IRQHandler+0x2c>
  {
    hi2c->XferISR(hi2c, itflags, itsources);
 80024d4:	687b      	ldr	r3, [r7, #4]
 80024d6:	6b5b      	ldr	r3, [r3, #52]	; 0x34
 80024d8:	68ba      	ldr	r2, [r7, #8]
 80024da:	68f9      	ldr	r1, [r7, #12]
 80024dc:	6878      	ldr	r0, [r7, #4]
 80024de:	4798      	blx	r3
  }
}
 80024e0:	bf00      	nop
 80024e2:	3710      	adds	r7, #16
 80024e4:	46bd      	mov	sp, r7
 80024e6:	bd80      	pop	{r7, pc}

080024e8 <HAL_I2C_ER_IRQHandler>:
  * @param  hi2c Pointer to a I2C_HandleTypeDef structure that contains
  *                the configuration information for the specified I2C.
  * @retval None
  */
void HAL_I2C_ER_IRQHandler(I2C_HandleTypeDef *hi2c)
{
 80024e8:	b580      	push	{r7, lr}
 80024ea:	b086      	sub	sp, #24
 80024ec:	af00      	add	r7, sp, #0
 80024ee:	6078      	str	r0, [r7, #4]
  uint32_t itflags   = READ_REG(hi2c->Instance->ISR);
 80024f0:	687b      	ldr	r3, [r7, #4]
 80024f2:	681b      	ldr	r3, [r3, #0]
 80024f4:	699b      	ldr	r3, [r3, #24]
 80024f6:	617b      	str	r3, [r7, #20]
  uint32_t itsources = READ_REG(hi2c->Instance->CR1);
 80024f8:	687b      	ldr	r3, [r7, #4]
 80024fa:	681b      	ldr	r3, [r3, #0]
 80024fc:	681b      	ldr	r3, [r3, #0]
 80024fe:	613b      	str	r3, [r7, #16]
  uint32_t tmperror;

  /* I2C Bus error interrupt occurred ------------------------------------*/
  if ((I2C_CHECK_FLAG(itflags, I2C_FLAG_BERR) != RESET) && \
 8002500:	697b      	ldr	r3, [r7, #20]
 8002502:	f403 7380 	and.w	r3, r3, #256	; 0x100
 8002506:	2b00      	cmp	r3, #0
 8002508:	d00f      	beq.n	800252a <HAL_I2C_ER_IRQHandler+0x42>
      (I2C_CHECK_IT_SOURCE(itsources, I2C_IT_ERRI) != RESET))
 800250a:	693b      	ldr	r3, [r7, #16]
 800250c:	f003 0380 	and.w	r3, r3, #128	; 0x80
  if ((I2C_CHECK_FLAG(itflags, I2C_FLAG_BERR) != RESET) && \
 8002510:	2b00      	cmp	r3, #0
 8002512:	d00a      	beq.n	800252a <HAL_I2C_ER_IRQHandler+0x42>
  {
    hi2c->ErrorCode |= HAL_I2C_ERROR_BERR;
 8002514:	687b      	ldr	r3, [r7, #4]
 8002516:	6c5b      	ldr	r3, [r3, #68]	; 0x44
 8002518:	f043 0201 	orr.w	r2, r3, #1
 800251c:	687b      	ldr	r3, [r7, #4]
 800251e:	645a      	str	r2, [r3, #68]	; 0x44

    /* Clear BERR flag */
    __HAL_I2C_CLEAR_FLAG(hi2c, I2C_FLAG_BERR);
 8002520:	687b      	ldr	r3, [r7, #4]
 8002522:	681b      	ldr	r3, [r3, #0]
 8002524:	f44f 7280 	mov.w	r2, #256	; 0x100
 8002528:	61da      	str	r2, [r3, #28]
  }

  /* I2C Over-Run/Under-Run interrupt occurred ----------------------------------------*/
  if ((I2C_CHECK_FLAG(itflags, I2C_FLAG_OVR) != RESET) && \
 800252a:	697b      	ldr	r3, [r7, #20]
 800252c:	f403 6380 	and.w	r3, r3, #1024	; 0x400
 8002530:	2b00      	cmp	r3, #0
 8002532:	d00f      	beq.n	8002554 <HAL_I2C_ER_IRQHandler+0x6c>
      (I2C_CHECK_IT_SOURCE(itsources, I2C_IT_ERRI) != RESET))
 8002534:	693b      	ldr	r3, [r7, #16]
 8002536:	f003 0380 	and.w	r3, r3, #128	; 0x80
  if ((I2C_CHECK_FLAG(itflags, I2C_FLAG_OVR) != RESET) && \
 800253a:	2b00      	cmp	r3, #0
 800253c:	d00a      	beq.n	8002554 <HAL_I2C_ER_IRQHandler+0x6c>
  {
    hi2c->ErrorCode |= HAL_I2C_ERROR_OVR;
 800253e:	687b      	ldr	r3, [r7, #4]
 8002540:	6c5b      	ldr	r3, [r3, #68]	; 0x44
 8002542:	f043 0208 	orr.w	r2, r3, #8
 8002546:	687b      	ldr	r3, [r7, #4]
 8002548:	645a      	str	r2, [r3, #68]	; 0x44

    /* Clear OVR flag */
    __HAL_I2C_CLEAR_FLAG(hi2c, I2C_FLAG_OVR);
 800254a:	687b      	ldr	r3, [r7, #4]
 800254c:	681b      	ldr	r3, [r3, #0]
 800254e:	f44f 6280 	mov.w	r2, #1024	; 0x400
 8002552:	61da      	str	r2, [r3, #28]
  }

  /* I2C Arbitration Loss error interrupt occurred -------------------------------------*/
  if ((I2C_CHECK_FLAG(itflags, I2C_FLAG_ARLO) != RESET) && \
 8002554:	697b      	ldr	r3, [r7, #20]
 8002556:	f403 7300 	and.w	r3, r3, #512	; 0x200
 800255a:	2b00      	cmp	r3, #0
 800255c:	d00f      	beq.n	800257e <HAL_I2C_ER_IRQHandler+0x96>
      (I2C_CHECK_IT_SOURCE(itsources, I2C_IT_ERRI) != RESET))
 800255e:	693b      	ldr	r3, [r7, #16]
 8002560:	f003 0380 	and.w	r3, r3, #128	; 0x80
  if ((I2C_CHECK_FLAG(itflags, I2C_FLAG_ARLO) != RESET) && \
 8002564:	2b00      	cmp	r3, #0
 8002566:	d00a      	beq.n	800257e <HAL_I2C_ER_IRQHandler+0x96>
  {
    hi2c->ErrorCode |= HAL_I2C_ERROR_ARLO;
 8002568:	687b      	ldr	r3, [r7, #4]
 800256a:	6c5b      	ldr	r3, [r3, #68]	; 0x44
 800256c:	f043 0202 	orr.w	r2, r3, #2
 8002570:	687b      	ldr	r3, [r7, #4]
 8002572:	645a      	str	r2, [r3, #68]	; 0x44

    /* Clear ARLO flag */
    __HAL_I2C_CLEAR_FLAG(hi2c, I2C_FLAG_ARLO);
 8002574:	687b      	ldr	r3, [r7, #4]
 8002576:	681b      	ldr	r3, [r3, #0]
 8002578:	f44f 7200 	mov.w	r2, #512	; 0x200
 800257c:	61da      	str	r2, [r3, #28]
  }

  /* Store current volatile hi2c->ErrorCode, misra rule */
  tmperror = hi2c->ErrorCode;
 800257e:	687b      	ldr	r3, [r7, #4]
 8002580:	6c5b      	ldr	r3, [r3, #68]	; 0x44
 8002582:	60fb      	str	r3, [r7, #12]

  /* Call the Error Callback in case of Error detected */
  if ((tmperror & (HAL_I2C_ERROR_BERR | HAL_I2C_ERROR_OVR | HAL_I2C_ERROR_ARLO)) !=  HAL_I2C_ERROR_NONE)
 8002584:	68fb      	ldr	r3, [r7, #12]
 8002586:	f003 030b 	and.w	r3, r3, #11
 800258a:	2b00      	cmp	r3, #0
 800258c:	d003      	beq.n	8002596 <HAL_I2C_ER_IRQHandler+0xae>
  {
    I2C_ITError(hi2c, tmperror);
 800258e:	68f9      	ldr	r1, [r7, #12]
 8002590:	6878      	ldr	r0, [r7, #4]
 8002592:	f001 f911 	bl	80037b8 <I2C_ITError>
  }
}
 8002596:	bf00      	nop
 8002598:	3718      	adds	r7, #24
 800259a:	46bd      	mov	sp, r7
 800259c:	bd80      	pop	{r7, pc}

0800259e <HAL_I2C_MasterTxCpltCallback>:
  * @param  hi2c Pointer to a I2C_HandleTypeDef structure that contains
  *                the configuration information for the specified I2C.
  * @retval None
  */
__weak void HAL_I2C_MasterTxCpltCallback(I2C_HandleTypeDef *hi2c)
{
 800259e:	b480      	push	{r7}
 80025a0:	b083      	sub	sp, #12
 80025a2:	af00      	add	r7, sp, #0
 80025a4:	6078      	str	r0, [r7, #4]
  UNUSED(hi2c);

  /* NOTE : This function should not be modified, when the callback is needed,
            the HAL_I2C_MasterTxCpltCallback could be implemented in the user file
   */
}
 80025a6:	bf00      	nop
 80025a8:	370c      	adds	r7, #12
 80025aa:	46bd      	mov	sp, r7
 80025ac:	f85d 7b04 	ldr.w	r7, [sp], #4
 80025b0:	4770      	bx	lr

080025b2 <HAL_I2C_MasterRxCpltCallback>:
  * @param  hi2c Pointer to a I2C_HandleTypeDef structure that contains
  *                the configuration information for the specified I2C.
  * @retval None
  */
__weak void HAL_I2C_MasterRxCpltCallback(I2C_HandleTypeDef *hi2c)
{
 80025b2:	b480      	push	{r7}
 80025b4:	b083      	sub	sp, #12
 80025b6:	af00      	add	r7, sp, #0
 80025b8:	6078      	str	r0, [r7, #4]
  UNUSED(hi2c);

  /* NOTE : This function should not be modified, when the callback is needed,
            the HAL_I2C_MasterRxCpltCallback could be implemented in the user file
   */
}
 80025ba:	bf00      	nop
 80025bc:	370c      	adds	r7, #12
 80025be:	46bd      	mov	sp, r7
 80025c0:	f85d 7b04 	ldr.w	r7, [sp], #4
 80025c4:	4770      	bx	lr

080025c6 <HAL_I2C_SlaveTxCpltCallback>:
  * @param  hi2c Pointer to a I2C_HandleTypeDef structure that contains
  *                the configuration information for the specified I2C.
  * @retval None
  */
__weak void HAL_I2C_SlaveTxCpltCallback(I2C_HandleTypeDef *hi2c)
{
 80025c6:	b480      	push	{r7}
 80025c8:	b083      	sub	sp, #12
 80025ca:	af00      	add	r7, sp, #0
 80025cc:	6078      	str	r0, [r7, #4]
  UNUSED(hi2c);

  /* NOTE : This function should not be modified, when the callback is needed,
            the HAL_I2C_SlaveTxCpltCallback could be implemented in the user file
   */
}
 80025ce:	bf00      	nop
 80025d0:	370c      	adds	r7, #12
 80025d2:	46bd      	mov	sp, r7
 80025d4:	f85d 7b04 	ldr.w	r7, [sp], #4
 80025d8:	4770      	bx	lr

080025da <HAL_I2C_SlaveRxCpltCallback>:
  * @param  hi2c Pointer to a I2C_HandleTypeDef structure that contains
  *                the configuration information for the specified I2C.
  * @retval None
  */
__weak void HAL_I2C_SlaveRxCpltCallback(I2C_HandleTypeDef *hi2c)
{
 80025da:	b480      	push	{r7}
 80025dc:	b083      	sub	sp, #12
 80025de:	af00      	add	r7, sp, #0
 80025e0:	6078      	str	r0, [r7, #4]
  UNUSED(hi2c);

  /* NOTE : This function should not be modified, when the callback is needed,
            the HAL_I2C_SlaveRxCpltCallback could be implemented in the user file
   */
}
 80025e2:	bf00      	nop
 80025e4:	370c      	adds	r7, #12
 80025e6:	46bd      	mov	sp, r7
 80025e8:	f85d 7b04 	ldr.w	r7, [sp], #4
 80025ec:	4770      	bx	lr

080025ee <HAL_I2C_AddrCallback>:
  * @param  TransferDirection Master request Transfer Direction (Write/Read), value of @ref I2C_XFERDIRECTION
  * @param  AddrMatchCode Address Match Code
  * @retval None
  */
__weak void HAL_I2C_AddrCallback(I2C_HandleTypeDef *hi2c, uint8_t TransferDirection, uint16_t AddrMatchCode)
{
 80025ee:	b480      	push	{r7}
 80025f0:	b083      	sub	sp, #12
 80025f2:	af00      	add	r7, sp, #0
 80025f4:	6078      	str	r0, [r7, #4]
 80025f6:	460b      	mov	r3, r1
 80025f8:	70fb      	strb	r3, [r7, #3]
 80025fa:	4613      	mov	r3, r2
 80025fc:	803b      	strh	r3, [r7, #0]
  UNUSED(AddrMatchCode);

  /* NOTE : This function should not be modified, when the callback is needed,
            the HAL_I2C_AddrCallback() could be implemented in the user file
   */
}
 80025fe:	bf00      	nop
 8002600:	370c      	adds	r7, #12
 8002602:	46bd      	mov	sp, r7
 8002604:	f85d 7b04 	ldr.w	r7, [sp], #4
 8002608:	4770      	bx	lr

0800260a <HAL_I2C_ListenCpltCallback>:
  * @param  hi2c Pointer to a I2C_HandleTypeDef structure that contains
  *                the configuration information for the specified I2C.
  * @retval None
  */
__weak void HAL_I2C_ListenCpltCallback(I2C_HandleTypeDef *hi2c)
{
 800260a:	b480      	push	{r7}
 800260c:	b083      	sub	sp, #12
 800260e:	af00      	add	r7, sp, #0
 8002610:	6078      	str	r0, [r7, #4]
  UNUSED(hi2c);

  /* NOTE : This function should not be modified, when the callback is needed,
            the HAL_I2C_ListenCpltCallback() could be implemented in the user file
   */
}
 8002612:	bf00      	nop
 8002614:	370c      	adds	r7, #12
 8002616:	46bd      	mov	sp, r7
 8002618:	f85d 7b04 	ldr.w	r7, [sp], #4
 800261c:	4770      	bx	lr

0800261e <HAL_I2C_MemTxCpltCallback>:
  * @param  hi2c Pointer to a I2C_HandleTypeDef structure that contains
  *                the configuration information for the specified I2C.
  * @retval None
  */
__weak void HAL_I2C_MemTxCpltCallback(I2C_HandleTypeDef *hi2c)
{
 800261e:	b480      	push	{r7}
 8002620:	b083      	sub	sp, #12
 8002622:	af00      	add	r7, sp, #0
 8002624:	6078      	str	r0, [r7, #4]
  UNUSED(hi2c);

  /* NOTE : This function should not be modified, when the callback is needed,
            the HAL_I2C_MemTxCpltCallback could be implemented in the user file
   */
}
 8002626:	bf00      	nop
 8002628:	370c      	adds	r7, #12
 800262a:	46bd      	mov	sp, r7
 800262c:	f85d 7b04 	ldr.w	r7, [sp], #4
 8002630:	4770      	bx	lr

08002632 <HAL_I2C_MemRxCpltCallback>:
  * @param  hi2c Pointer to a I2C_HandleTypeDef structure that contains
  *                the configuration information for the specified I2C.
  * @retval None
  */
__weak void HAL_I2C_MemRxCpltCallback(I2C_HandleTypeDef *hi2c)
{
 8002632:	b480      	push	{r7}
 8002634:	b083      	sub	sp, #12
 8002636:	af00      	add	r7, sp, #0
 8002638:	6078      	str	r0, [r7, #4]
  UNUSED(hi2c);

  /* NOTE : This function should not be modified, when the callback is needed,
            the HAL_I2C_MemRxCpltCallback could be implemented in the user file
   */
}
 800263a:	bf00      	nop
 800263c:	370c      	adds	r7, #12
 800263e:	46bd      	mov	sp, r7
 8002640:	f85d 7b04 	ldr.w	r7, [sp], #4
 8002644:	4770      	bx	lr

08002646 <HAL_I2C_ErrorCallback>:
  * @param  hi2c Pointer to a I2C_HandleTypeDef structure that contains
  *                the configuration information for the specified I2C.
  * @retval None
  */
__weak void HAL_I2C_ErrorCallback(I2C_HandleTypeDef *hi2c)
{
 8002646:	b480      	push	{r7}
 8002648:	b083      	sub	sp, #12
 800264a:	af00      	add	r7, sp, #0
 800264c:	6078      	str	r0, [r7, #4]
  UNUSED(hi2c);

  /* NOTE : This function should not be modified, when the callback is needed,
            the HAL_I2C_ErrorCallback could be implemented in the user file
   */
}
 800264e:	bf00      	nop
 8002650:	370c      	adds	r7, #12
 8002652:	46bd      	mov	sp, r7
 8002654:	f85d 7b04 	ldr.w	r7, [sp], #4
 8002658:	4770      	bx	lr

0800265a <HAL_I2C_AbortCpltCallback>:
  * @param  hi2c Pointer to a I2C_HandleTypeDef structure that contains
  *                the configuration information for the specified I2C.
  * @retval None
  */
__weak void HAL_I2C_AbortCpltCallback(I2C_HandleTypeDef *hi2c)
{
 800265a:	b480      	push	{r7}
 800265c:	b083      	sub	sp, #12
 800265e:	af00      	add	r7, sp, #0
 8002660:	6078      	str	r0, [r7, #4]
  UNUSED(hi2c);

  /* NOTE : This function should not be modified, when the callback is needed,
            the HAL_I2C_AbortCpltCallback could be implemented in the user file
   */
}
 8002662:	bf00      	nop
 8002664:	370c      	adds	r7, #12
 8002666:	46bd      	mov	sp, r7
 8002668:	f85d 7b04 	ldr.w	r7, [sp], #4
 800266c:	4770      	bx	lr
	...

08002670 <I2C_Mem_ISR_IT>:
  * @param  ITSources Interrupt sources enabled.
  * @retval HAL status
  */
static HAL_StatusTypeDef I2C_Mem_ISR_IT(struct __I2C_HandleTypeDef *hi2c, uint32_t ITFlags,
                                        uint32_t ITSources)
{
 8002670:	b580      	push	{r7, lr}
 8002672:	b088      	sub	sp, #32
 8002674:	af02      	add	r7, sp, #8
 8002676:	60f8      	str	r0, [r7, #12]
 8002678:	60b9      	str	r1, [r7, #8]
 800267a:	607a      	str	r2, [r7, #4]
  uint32_t direction = I2C_GENERATE_START_WRITE;
 800267c:	4b8d      	ldr	r3, [pc, #564]	; (80028b4 <I2C_Mem_ISR_IT+0x244>)
 800267e:	617b      	str	r3, [r7, #20]
  uint32_t tmpITFlags = ITFlags;
 8002680:	68bb      	ldr	r3, [r7, #8]
 8002682:	613b      	str	r3, [r7, #16]

  /* Process Locked */
  __HAL_LOCK(hi2c);
 8002684:	68fb      	ldr	r3, [r7, #12]
 8002686:	f893 3040 	ldrb.w	r3, [r3, #64]	; 0x40
 800268a:	2b01      	cmp	r3, #1
 800268c:	d101      	bne.n	8002692 <I2C_Mem_ISR_IT+0x22>
 800268e:	2302      	movs	r3, #2
 8002690:	e10c      	b.n	80028ac <I2C_Mem_ISR_IT+0x23c>
 8002692:	68fb      	ldr	r3, [r7, #12]
 8002694:	2201      	movs	r2, #1
 8002696:	f883 2040 	strb.w	r2, [r3, #64]	; 0x40

  if ((I2C_CHECK_FLAG(tmpITFlags, I2C_FLAG_AF) != RESET) && \
 800269a:	693b      	ldr	r3, [r7, #16]
 800269c:	f003 0310 	and.w	r3, r3, #16
 80026a0:	2b00      	cmp	r3, #0
 80026a2:	d012      	beq.n	80026ca <I2C_Mem_ISR_IT+0x5a>
      (I2C_CHECK_IT_SOURCE(ITSources, I2C_IT_NACKI) != RESET))
 80026a4:	687b      	ldr	r3, [r7, #4]
 80026a6:	f003 0310 	and.w	r3, r3, #16
  if ((I2C_CHECK_FLAG(tmpITFlags, I2C_FLAG_AF) != RESET) && \
 80026aa:	2b00      	cmp	r3, #0
 80026ac:	d00d      	beq.n	80026ca <I2C_Mem_ISR_IT+0x5a>
  {
    /* Clear NACK Flag */
    __HAL_I2C_CLEAR_FLAG(hi2c, I2C_FLAG_AF);
 80026ae:	68fb      	ldr	r3, [r7, #12]
 80026b0:	681b      	ldr	r3, [r3, #0]
 80026b2:	2210      	movs	r2, #16
 80026b4:	61da      	str	r2, [r3, #28]

    /* Set corresponding Error Code */
    /* No need to generate STOP, it is automatically done */
    /* Error callback will be send during stop flag treatment */
    hi2c->ErrorCode |= HAL_I2C_ERROR_AF;
 80026b6:	68fb      	ldr	r3, [r7, #12]
 80026b8:	6c5b      	ldr	r3, [r3, #68]	; 0x44
 80026ba:	f043 0204 	orr.w	r2, r3, #4
 80026be:	68fb      	ldr	r3, [r7, #12]
 80026c0:	645a      	str	r2, [r3, #68]	; 0x44

    /* Flush TX register */
    I2C_Flush_TXDR(hi2c);
 80026c2:	68f8      	ldr	r0, [r7, #12]
 80026c4:	f001 f98f 	bl	80039e6 <I2C_Flush_TXDR>
 80026c8:	e0dd      	b.n	8002886 <I2C_Mem_ISR_IT+0x216>
  }
  else if ((I2C_CHECK_FLAG(tmpITFlags, I2C_FLAG_RXNE) != RESET) && \
 80026ca:	693b      	ldr	r3, [r7, #16]
 80026cc:	f003 0304 	and.w	r3, r3, #4
 80026d0:	2b00      	cmp	r3, #0
 80026d2:	d022      	beq.n	800271a <I2C_Mem_ISR_IT+0xaa>
           (I2C_CHECK_IT_SOURCE(ITSources, I2C_IT_RXI) != RESET))
 80026d4:	687b      	ldr	r3, [r7, #4]
 80026d6:	f003 0304 	and.w	r3, r3, #4
  else if ((I2C_CHECK_FLAG(tmpITFlags, I2C_FLAG_RXNE) != RESET) && \
 80026da:	2b00      	cmp	r3, #0
 80026dc:	d01d      	beq.n	800271a <I2C_Mem_ISR_IT+0xaa>
  {
    /* Remove RXNE flag on temporary variable as read done */
    tmpITFlags &= ~I2C_FLAG_RXNE;
 80026de:	693b      	ldr	r3, [r7, #16]
 80026e0:	f023 0304 	bic.w	r3, r3, #4
 80026e4:	613b      	str	r3, [r7, #16]

    /* Read data from RXDR */
    *hi2c->pBuffPtr = (uint8_t)hi2c->Instance->RXDR;
 80026e6:	68fb      	ldr	r3, [r7, #12]
 80026e8:	681b      	ldr	r3, [r3, #0]
 80026ea:	6a5a      	ldr	r2, [r3, #36]	; 0x24
 80026ec:	68fb      	ldr	r3, [r7, #12]
 80026ee:	6a5b      	ldr	r3, [r3, #36]	; 0x24
 80026f0:	b2d2      	uxtb	r2, r2
 80026f2:	701a      	strb	r2, [r3, #0]

    /* Increment Buffer pointer */
    hi2c->pBuffPtr++;
 80026f4:	68fb      	ldr	r3, [r7, #12]
 80026f6:	6a5b      	ldr	r3, [r3, #36]	; 0x24
 80026f8:	1c5a      	adds	r2, r3, #1
 80026fa:	68fb      	ldr	r3, [r7, #12]
 80026fc:	625a      	str	r2, [r3, #36]	; 0x24

    hi2c->XferSize--;
 80026fe:	68fb      	ldr	r3, [r7, #12]
 8002700:	8d1b      	ldrh	r3, [r3, #40]	; 0x28
 8002702:	3b01      	subs	r3, #1
 8002704:	b29a      	uxth	r2, r3
 8002706:	68fb      	ldr	r3, [r7, #12]
 8002708:	851a      	strh	r2, [r3, #40]	; 0x28
    hi2c->XferCount--;
 800270a:	68fb      	ldr	r3, [r7, #12]
 800270c:	8d5b      	ldrh	r3, [r3, #42]	; 0x2a
 800270e:	b29b      	uxth	r3, r3
 8002710:	3b01      	subs	r3, #1
 8002712:	b29a      	uxth	r2, r3
 8002714:	68fb      	ldr	r3, [r7, #12]
 8002716:	855a      	strh	r2, [r3, #42]	; 0x2a
 8002718:	e0b5      	b.n	8002886 <I2C_Mem_ISR_IT+0x216>
  }
  else if ((I2C_CHECK_FLAG(tmpITFlags, I2C_FLAG_TXIS) != RESET) && \
 800271a:	693b      	ldr	r3, [r7, #16]
 800271c:	f003 0302 	and.w	r3, r3, #2
 8002720:	2b00      	cmp	r3, #0
 8002722:	d02c      	beq.n	800277e <I2C_Mem_ISR_IT+0x10e>
           (I2C_CHECK_IT_SOURCE(ITSources, I2C_IT_TXI) != RESET))
 8002724:	687b      	ldr	r3, [r7, #4]
 8002726:	f003 0302 	and.w	r3, r3, #2
  else if ((I2C_CHECK_FLAG(tmpITFlags, I2C_FLAG_TXIS) != RESET) && \
 800272a:	2b00      	cmp	r3, #0
 800272c:	d027      	beq.n	800277e <I2C_Mem_ISR_IT+0x10e>
  {
    if (hi2c->Memaddress == 0xFFFFFFFFU)
 800272e:	68fb      	ldr	r3, [r7, #12]
 8002730:	6d1b      	ldr	r3, [r3, #80]	; 0x50
 8002732:	f1b3 3fff 	cmp.w	r3, #4294967295
 8002736:	d118      	bne.n	800276a <I2C_Mem_ISR_IT+0xfa>
    {
      /* Write data to TXDR */
      hi2c->Instance->TXDR = *hi2c->pBuffPtr;
 8002738:	68fb      	ldr	r3, [r7, #12]
 800273a:	6a5b      	ldr	r3, [r3, #36]	; 0x24
 800273c:	781a      	ldrb	r2, [r3, #0]
 800273e:	68fb      	ldr	r3, [r7, #12]
 8002740:	681b      	ldr	r3, [r3, #0]
 8002742:	629a      	str	r2, [r3, #40]	; 0x28

      /* Increment Buffer pointer */
      hi2c->pBuffPtr++;
 8002744:	68fb      	ldr	r3, [r7, #12]
 8002746:	6a5b      	ldr	r3, [r3, #36]	; 0x24
 8002748:	1c5a      	adds	r2, r3, #1
 800274a:	68fb      	ldr	r3, [r7, #12]
 800274c:	625a      	str	r2, [r3, #36]	; 0x24

      hi2c->XferSize--;
 800274e:	68fb      	ldr	r3, [r7, #12]
 8002750:	8d1b      	ldrh	r3, [r3, #40]	; 0x28
 8002752:	3b01      	subs	r3, #1
 8002754:	b29a      	uxth	r2, r3
 8002756:	68fb      	ldr	r3, [r7, #12]
 8002758:	851a      	strh	r2, [r3, #40]	; 0x28
      hi2c->XferCount--;
 800275a:	68fb      	ldr	r3, [r7, #12]
 800275c:	8d5b      	ldrh	r3, [r3, #42]	; 0x2a
 800275e:	b29b      	uxth	r3, r3
 8002760:	3b01      	subs	r3, #1
 8002762:	b29a      	uxth	r2, r3
 8002764:	68fb      	ldr	r3, [r7, #12]
 8002766:	855a      	strh	r2, [r3, #42]	; 0x2a
    if (hi2c->Memaddress == 0xFFFFFFFFU)
 8002768:	e08d      	b.n	8002886 <I2C_Mem_ISR_IT+0x216>
    }
    else
    {
      /* Write LSB part of Memory Address */
      hi2c->Instance->TXDR = hi2c->Memaddress;
 800276a:	68fb      	ldr	r3, [r7, #12]
 800276c:	681b      	ldr	r3, [r3, #0]
 800276e:	68fa      	ldr	r2, [r7, #12]
 8002770:	6d12      	ldr	r2, [r2, #80]	; 0x50
 8002772:	629a      	str	r2, [r3, #40]	; 0x28

      /* Reset Memaddress content */
      hi2c->Memaddress = 0xFFFFFFFFU;
 8002774:	68fb      	ldr	r3, [r7, #12]
 8002776:	f04f 32ff 	mov.w	r2, #4294967295
 800277a:	651a      	str	r2, [r3, #80]	; 0x50
    if (hi2c->Memaddress == 0xFFFFFFFFU)
 800277c:	e083      	b.n	8002886 <I2C_Mem_ISR_IT+0x216>
    }
  }
  else if ((I2C_CHECK_FLAG(tmpITFlags, I2C_FLAG_TCR) != RESET) && \
 800277e:	693b      	ldr	r3, [r7, #16]
 8002780:	f003 0380 	and.w	r3, r3, #128	; 0x80
 8002784:	2b00      	cmp	r3, #0
 8002786:	d03c      	beq.n	8002802 <I2C_Mem_ISR_IT+0x192>
           (I2C_CHECK_IT_SOURCE(ITSources, I2C_IT_TCI) != RESET))
 8002788:	687b      	ldr	r3, [r7, #4]
 800278a:	f003 0340 	and.w	r3, r3, #64	; 0x40
  else if ((I2C_CHECK_FLAG(tmpITFlags, I2C_FLAG_TCR) != RESET) && \
 800278e:	2b00      	cmp	r3, #0
 8002790:	d037      	beq.n	8002802 <I2C_Mem_ISR_IT+0x192>
  {
    if ((hi2c->XferCount != 0U) && (hi2c->XferSize == 0U))
 8002792:	68fb      	ldr	r3, [r7, #12]
 8002794:	8d5b      	ldrh	r3, [r3, #42]	; 0x2a
 8002796:	b29b      	uxth	r3, r3
 8002798:	2b00      	cmp	r3, #0
 800279a:	d02c      	beq.n	80027f6 <I2C_Mem_ISR_IT+0x186>
 800279c:	68fb      	ldr	r3, [r7, #12]
 800279e:	8d1b      	ldrh	r3, [r3, #40]	; 0x28
 80027a0:	2b00      	cmp	r3, #0
 80027a2:	d128      	bne.n	80027f6 <I2C_Mem_ISR_IT+0x186>
    {
      if (hi2c->XferCount > MAX_NBYTE_SIZE)
 80027a4:	68fb      	ldr	r3, [r7, #12]
 80027a6:	8d5b      	ldrh	r3, [r3, #42]	; 0x2a
 80027a8:	b29b      	uxth	r3, r3
 80027aa:	2bff      	cmp	r3, #255	; 0xff
 80027ac:	d910      	bls.n	80027d0 <I2C_Mem_ISR_IT+0x160>
      {
        hi2c->XferSize = MAX_NBYTE_SIZE;
 80027ae:	68fb      	ldr	r3, [r7, #12]
 80027b0:	22ff      	movs	r2, #255	; 0xff
 80027b2:	851a      	strh	r2, [r3, #40]	; 0x28
        I2C_TransferConfig(hi2c, (uint16_t)hi2c->Devaddress, (uint8_t)hi2c->XferSize,
 80027b4:	68fb      	ldr	r3, [r7, #12]
 80027b6:	6cdb      	ldr	r3, [r3, #76]	; 0x4c
 80027b8:	b299      	uxth	r1, r3
 80027ba:	68fb      	ldr	r3, [r7, #12]
 80027bc:	8d1b      	ldrh	r3, [r3, #40]	; 0x28
 80027be:	b2da      	uxtb	r2, r3
 80027c0:	2300      	movs	r3, #0
 80027c2:	9300      	str	r3, [sp, #0]
 80027c4:	f04f 7380 	mov.w	r3, #16777216	; 0x1000000
 80027c8:	68f8      	ldr	r0, [r7, #12]
 80027ca:	f001 f94f 	bl	8003a6c <I2C_TransferConfig>
      if (hi2c->XferCount > MAX_NBYTE_SIZE)
 80027ce:	e017      	b.n	8002800 <I2C_Mem_ISR_IT+0x190>
                           I2C_RELOAD_MODE, I2C_NO_STARTSTOP);
      }
      else
      {
        hi2c->XferSize = hi2c->XferCount;
 80027d0:	68fb      	ldr	r3, [r7, #12]
 80027d2:	8d5b      	ldrh	r3, [r3, #42]	; 0x2a
 80027d4:	b29a      	uxth	r2, r3
 80027d6:	68fb      	ldr	r3, [r7, #12]
 80027d8:	851a      	strh	r2, [r3, #40]	; 0x28
        I2C_TransferConfig(hi2c, (uint16_t)hi2c->Devaddress, (uint8_t)hi2c->XferSize,
 80027da:	68fb      	ldr	r3, [r7, #12]
 80027dc:	6cdb      	ldr	r3, [r3, #76]	; 0x4c
 80027de:	b299      	uxth	r1, r3
 80027e0:	68fb      	ldr	r3, [r7, #12]
 80027e2:	8d1b      	ldrh	r3, [r3, #40]	; 0x28
 80027e4:	b2da      	uxtb	r2, r3
 80027e6:	2300      	movs	r3, #0
 80027e8:	9300      	str	r3, [sp, #0]
 80027ea:	f04f 7300 	mov.w	r3, #33554432	; 0x2000000
 80027ee:	68f8      	ldr	r0, [r7, #12]
 80027f0:	f001 f93c 	bl	8003a6c <I2C_TransferConfig>
      if (hi2c->XferCount > MAX_NBYTE_SIZE)
 80027f4:	e004      	b.n	8002800 <I2C_Mem_ISR_IT+0x190>
    }
    else
    {
      /* Wrong size Status regarding TCR flag event */
      /* Call the corresponding callback to inform upper layer of End of Transfer */
      I2C_ITError(hi2c, HAL_I2C_ERROR_SIZE);
 80027f6:	2140      	movs	r1, #64	; 0x40
 80027f8:	68f8      	ldr	r0, [r7, #12]
 80027fa:	f000 ffdd 	bl	80037b8 <I2C_ITError>
    if ((hi2c->XferCount != 0U) && (hi2c->XferSize == 0U))
 80027fe:	e042      	b.n	8002886 <I2C_Mem_ISR_IT+0x216>
 8002800:	e041      	b.n	8002886 <I2C_Mem_ISR_IT+0x216>
    }
  }
  else if ((I2C_CHECK_FLAG(tmpITFlags, I2C_FLAG_TC) != RESET) && \
 8002802:	693b      	ldr	r3, [r7, #16]
 8002804:	f003 0340 	and.w	r3, r3, #64	; 0x40
 8002808:	2b00      	cmp	r3, #0
 800280a:	d03c      	beq.n	8002886 <I2C_Mem_ISR_IT+0x216>
           (I2C_CHECK_IT_SOURCE(ITSources, I2C_IT_TCI) != RESET))
 800280c:	687b      	ldr	r3, [r7, #4]
 800280e:	f003 0340 	and.w	r3, r3, #64	; 0x40
  else if ((I2C_CHECK_FLAG(tmpITFlags, I2C_FLAG_TC) != RESET) && \
 8002812:	2b00      	cmp	r3, #0
 8002814:	d037      	beq.n	8002886 <I2C_Mem_ISR_IT+0x216>
  {
    /* Disable Interrupt related to address step */
    I2C_Disable_IRQ(hi2c, I2C_XFER_TX_IT);
 8002816:	2101      	movs	r1, #1
 8002818:	68f8      	ldr	r0, [r7, #12]
 800281a:	f001 f9dd 	bl	8003bd8 <I2C_Disable_IRQ>

    /* Enable ERR, TC, STOP, NACK and RXI interrupts */
    I2C_Enable_IRQ(hi2c, I2C_XFER_RX_IT);
 800281e:	2102      	movs	r1, #2
 8002820:	68f8      	ldr	r0, [r7, #12]
 8002822:	f001 f955 	bl	8003ad0 <I2C_Enable_IRQ>

    if (hi2c->State == HAL_I2C_STATE_BUSY_RX)
 8002826:	68fb      	ldr	r3, [r7, #12]
 8002828:	f893 3041 	ldrb.w	r3, [r3, #65]	; 0x41
 800282c:	b2db      	uxtb	r3, r3
 800282e:	2b22      	cmp	r3, #34	; 0x22
 8002830:	d101      	bne.n	8002836 <I2C_Mem_ISR_IT+0x1c6>
    {
      direction = I2C_GENERATE_START_READ;
 8002832:	4b21      	ldr	r3, [pc, #132]	; (80028b8 <I2C_Mem_ISR_IT+0x248>)
 8002834:	617b      	str	r3, [r7, #20]
    }

    if (hi2c->XferCount > MAX_NBYTE_SIZE)
 8002836:	68fb      	ldr	r3, [r7, #12]
 8002838:	8d5b      	ldrh	r3, [r3, #42]	; 0x2a
 800283a:	b29b      	uxth	r3, r3
 800283c:	2bff      	cmp	r3, #255	; 0xff
 800283e:	d910      	bls.n	8002862 <I2C_Mem_ISR_IT+0x1f2>
    {
      hi2c->XferSize = MAX_NBYTE_SIZE;
 8002840:	68fb      	ldr	r3, [r7, #12]
 8002842:	22ff      	movs	r2, #255	; 0xff
 8002844:	851a      	strh	r2, [r3, #40]	; 0x28

      /* Set NBYTES to write and reload if hi2c->XferCount > MAX_NBYTE_SIZE and generate RESTART */
      I2C_TransferConfig(hi2c, (uint16_t)hi2c->Devaddress, (uint8_t)hi2c->XferSize,
 8002846:	68fb      	ldr	r3, [r7, #12]
 8002848:	6cdb      	ldr	r3, [r3, #76]	; 0x4c
 800284a:	b299      	uxth	r1, r3
 800284c:	68fb      	ldr	r3, [r7, #12]
 800284e:	8d1b      	ldrh	r3, [r3, #40]	; 0x28
 8002850:	b2da      	uxtb	r2, r3
 8002852:	697b      	ldr	r3, [r7, #20]
 8002854:	9300      	str	r3, [sp, #0]
 8002856:	f04f 7380 	mov.w	r3, #16777216	; 0x1000000
 800285a:	68f8      	ldr	r0, [r7, #12]
 800285c:	f001 f906 	bl	8003a6c <I2C_TransferConfig>
 8002860:	e011      	b.n	8002886 <I2C_Mem_ISR_IT+0x216>
                         I2C_RELOAD_MODE, direction);
    }
    else
    {
      hi2c->XferSize = hi2c->XferCount;
 8002862:	68fb      	ldr	r3, [r7, #12]
 8002864:	8d5b      	ldrh	r3, [r3, #42]	; 0x2a
 8002866:	b29a      	uxth	r2, r3
 8002868:	68fb      	ldr	r3, [r7, #12]
 800286a:	851a      	strh	r2, [r3, #40]	; 0x28

      /* Set NBYTES to write and generate RESTART */
      I2C_TransferConfig(hi2c, (uint16_t)hi2c->Devaddress, (uint8_t)hi2c->XferSize,
 800286c:	68fb      	ldr	r3, [r7, #12]
 800286e:	6cdb      	ldr	r3, [r3, #76]	; 0x4c
 8002870:	b299      	uxth	r1, r3
 8002872:	68fb      	ldr	r3, [r7, #12]
 8002874:	8d1b      	ldrh	r3, [r3, #40]	; 0x28
 8002876:	b2da      	uxtb	r2, r3
 8002878:	697b      	ldr	r3, [r7, #20]
 800287a:	9300      	str	r3, [sp, #0]
 800287c:	f04f 7300 	mov.w	r3, #33554432	; 0x2000000
 8002880:	68f8      	ldr	r0, [r7, #12]
 8002882:	f001 f8f3 	bl	8003a6c <I2C_TransferConfig>
  else
  {
    /* Nothing to do */
  }

  if ((I2C_CHECK_FLAG(tmpITFlags, I2C_FLAG_STOPF) != RESET) && \
 8002886:	693b      	ldr	r3, [r7, #16]
 8002888:	f003 0320 	and.w	r3, r3, #32
 800288c:	2b00      	cmp	r3, #0
 800288e:	d008      	beq.n	80028a2 <I2C_Mem_ISR_IT+0x232>
      (I2C_CHECK_IT_SOURCE(ITSources, I2C_IT_STOPI) != RESET))
 8002890:	687b      	ldr	r3, [r7, #4]
 8002892:	f003 0320 	and.w	r3, r3, #32
  if ((I2C_CHECK_FLAG(tmpITFlags, I2C_FLAG_STOPF) != RESET) && \
 8002896:	2b00      	cmp	r3, #0
 8002898:	d003      	beq.n	80028a2 <I2C_Mem_ISR_IT+0x232>
  {
    /* Call I2C Master complete process */
    I2C_ITMasterCplt(hi2c, tmpITFlags);
 800289a:	6939      	ldr	r1, [r7, #16]
 800289c:	68f8      	ldr	r0, [r7, #12]
 800289e:	f000 fd0b 	bl	80032b8 <I2C_ITMasterCplt>
  }

  /* Process Unlocked */
  __HAL_UNLOCK(hi2c);
 80028a2:	68fb      	ldr	r3, [r7, #12]
 80028a4:	2200      	movs	r2, #0
 80028a6:	f883 2040 	strb.w	r2, [r3, #64]	; 0x40

  return HAL_OK;
 80028aa:	2300      	movs	r3, #0
}
 80028ac:	4618      	mov	r0, r3
 80028ae:	3718      	adds	r7, #24
 80028b0:	46bd      	mov	sp, r7
 80028b2:	bd80      	pop	{r7, pc}
 80028b4:	80002000 	.word	0x80002000
 80028b8:	80002400 	.word	0x80002400

080028bc <I2C_Slave_ISR_IT>:
  * @param  ITSources Interrupt sources enabled.
  * @retval HAL status
  */
static HAL_StatusTypeDef I2C_Slave_ISR_IT(struct __I2C_HandleTypeDef *hi2c, uint32_t ITFlags,
                                          uint32_t ITSources)
{
 80028bc:	b580      	push	{r7, lr}
 80028be:	b086      	sub	sp, #24
 80028c0:	af00      	add	r7, sp, #0
 80028c2:	60f8      	str	r0, [r7, #12]
 80028c4:	60b9      	str	r1, [r7, #8]
 80028c6:	607a      	str	r2, [r7, #4]
  uint32_t tmpoptions = hi2c->XferOptions;
 80028c8:	68fb      	ldr	r3, [r7, #12]
 80028ca:	6adb      	ldr	r3, [r3, #44]	; 0x2c
 80028cc:	617b      	str	r3, [r7, #20]
  uint32_t tmpITFlags = ITFlags;
 80028ce:	68bb      	ldr	r3, [r7, #8]
 80028d0:	613b      	str	r3, [r7, #16]

  /* Process locked */
  __HAL_LOCK(hi2c);
 80028d2:	68fb      	ldr	r3, [r7, #12]
 80028d4:	f893 3040 	ldrb.w	r3, [r3, #64]	; 0x40
 80028d8:	2b01      	cmp	r3, #1
 80028da:	d101      	bne.n	80028e0 <I2C_Slave_ISR_IT+0x24>
 80028dc:	2302      	movs	r3, #2
 80028de:	e0e2      	b.n	8002aa6 <I2C_Slave_ISR_IT+0x1ea>
 80028e0:	68fb      	ldr	r3, [r7, #12]
 80028e2:	2201      	movs	r2, #1
 80028e4:	f883 2040 	strb.w	r2, [r3, #64]	; 0x40

  /* Check if STOPF is set */
  if ((I2C_CHECK_FLAG(tmpITFlags, I2C_FLAG_STOPF) != RESET) && \
 80028e8:	693b      	ldr	r3, [r7, #16]
 80028ea:	f003 0320 	and.w	r3, r3, #32
 80028ee:	2b00      	cmp	r3, #0
 80028f0:	d009      	beq.n	8002906 <I2C_Slave_ISR_IT+0x4a>
      (I2C_CHECK_IT_SOURCE(ITSources, I2C_IT_STOPI) != RESET))
 80028f2:	687b      	ldr	r3, [r7, #4]
 80028f4:	f003 0320 	and.w	r3, r3, #32
  if ((I2C_CHECK_FLAG(tmpITFlags, I2C_FLAG_STOPF) != RESET) && \
 80028f8:	2b00      	cmp	r3, #0
 80028fa:	d004      	beq.n	8002906 <I2C_Slave_ISR_IT+0x4a>
  {
    /* Call I2C Slave complete process */
    I2C_ITSlaveCplt(hi2c, tmpITFlags);
 80028fc:	6939      	ldr	r1, [r7, #16]
 80028fe:	68f8      	ldr	r0, [r7, #12]
 8002900:	f000 fda2 	bl	8003448 <I2C_ITSlaveCplt>
 8002904:	e0ca      	b.n	8002a9c <I2C_Slave_ISR_IT+0x1e0>
  }
  else if ((I2C_CHECK_FLAG(tmpITFlags, I2C_FLAG_AF) != RESET) && \
 8002906:	693b      	ldr	r3, [r7, #16]
 8002908:	f003 0310 	and.w	r3, r3, #16
 800290c:	2b00      	cmp	r3, #0
 800290e:	d04b      	beq.n	80029a8 <I2C_Slave_ISR_IT+0xec>
           (I2C_CHECK_IT_SOURCE(ITSources, I2C_IT_NACKI) != RESET))
 8002910:	687b      	ldr	r3, [r7, #4]
 8002912:	f003 0310 	and.w	r3, r3, #16
  else if ((I2C_CHECK_FLAG(tmpITFlags, I2C_FLAG_AF) != RESET) && \
 8002916:	2b00      	cmp	r3, #0
 8002918:	d046      	beq.n	80029a8 <I2C_Slave_ISR_IT+0xec>
  {
    /* Check that I2C transfer finished */
    /* if yes, normal use case, a NACK is sent by the MASTER when Transfer is finished */
    /* Mean XferCount == 0*/
    /* So clear Flag NACKF only */
    if (hi2c->XferCount == 0U)
 800291a:	68fb      	ldr	r3, [r7, #12]
 800291c:	8d5b      	ldrh	r3, [r3, #42]	; 0x2a
 800291e:	b29b      	uxth	r3, r3
 8002920:	2b00      	cmp	r3, #0
 8002922:	d128      	bne.n	8002976 <I2C_Slave_ISR_IT+0xba>
    {
      if ((hi2c->State == HAL_I2C_STATE_LISTEN) && (tmpoptions == I2C_FIRST_AND_LAST_FRAME))
 8002924:	68fb      	ldr	r3, [r7, #12]
 8002926:	f893 3041 	ldrb.w	r3, [r3, #65]	; 0x41
 800292a:	b2db      	uxtb	r3, r3
 800292c:	2b28      	cmp	r3, #40	; 0x28
 800292e:	d108      	bne.n	8002942 <I2C_Slave_ISR_IT+0x86>
 8002930:	697b      	ldr	r3, [r7, #20]
 8002932:	f1b3 7f00 	cmp.w	r3, #33554432	; 0x2000000
 8002936:	d104      	bne.n	8002942 <I2C_Slave_ISR_IT+0x86>
        /* Same action must be done for (tmpoptions == I2C_LAST_FRAME) which removed for
           Warning[Pa134]: left and right operands are identical */
      {
        /* Call I2C Listen complete process */
        I2C_ITListenCplt(hi2c, tmpITFlags);
 8002938:	6939      	ldr	r1, [r7, #16]
 800293a:	68f8      	ldr	r0, [r7, #12]
 800293c:	f000 fee8 	bl	8003710 <I2C_ITListenCplt>
 8002940:	e031      	b.n	80029a6 <I2C_Slave_ISR_IT+0xea>
      }
      else if ((hi2c->State == HAL_I2C_STATE_BUSY_TX_LISTEN) && (tmpoptions != I2C_NO_OPTION_FRAME))
 8002942:	68fb      	ldr	r3, [r7, #12]
 8002944:	f893 3041 	ldrb.w	r3, [r3, #65]	; 0x41
 8002948:	b2db      	uxtb	r3, r3
 800294a:	2b29      	cmp	r3, #41	; 0x29
 800294c:	d10e      	bne.n	800296c <I2C_Slave_ISR_IT+0xb0>
 800294e:	697b      	ldr	r3, [r7, #20]
 8002950:	f513 3f80 	cmn.w	r3, #65536	; 0x10000
 8002954:	d00a      	beq.n	800296c <I2C_Slave_ISR_IT+0xb0>
      {
        /* Clear NACK Flag */
        __HAL_I2C_CLEAR_FLAG(hi2c, I2C_FLAG_AF);
 8002956:	68fb      	ldr	r3, [r7, #12]
 8002958:	681b      	ldr	r3, [r3, #0]
 800295a:	2210      	movs	r2, #16
 800295c:	61da      	str	r2, [r3, #28]

        /* Flush TX register */
        I2C_Flush_TXDR(hi2c);
 800295e:	68f8      	ldr	r0, [r7, #12]
 8002960:	f001 f841 	bl	80039e6 <I2C_Flush_TXDR>

        /* Last Byte is Transmitted */
        /* Call I2C Slave Sequential complete process */
        I2C_ITSlaveSeqCplt(hi2c);
 8002964:	68f8      	ldr	r0, [r7, #12]
 8002966:	f000 fc4b 	bl	8003200 <I2C_ITSlaveSeqCplt>
 800296a:	e01c      	b.n	80029a6 <I2C_Slave_ISR_IT+0xea>
      }
      else
      {
        /* Clear NACK Flag */
        __HAL_I2C_CLEAR_FLAG(hi2c, I2C_FLAG_AF);
 800296c:	68fb      	ldr	r3, [r7, #12]
 800296e:	681b      	ldr	r3, [r3, #0]
 8002970:	2210      	movs	r2, #16
 8002972:	61da      	str	r2, [r3, #28]
    if (hi2c->XferCount == 0U)
 8002974:	e08f      	b.n	8002a96 <I2C_Slave_ISR_IT+0x1da>
    }
    else
    {
      /* if no, error use case, a Non-Acknowledge of last Data is generated by the MASTER*/
      /* Clear NACK Flag */
      __HAL_I2C_CLEAR_FLAG(hi2c, I2C_FLAG_AF);
 8002976:	68fb      	ldr	r3, [r7, #12]
 8002978:	681b      	ldr	r3, [r3, #0]
 800297a:	2210      	movs	r2, #16
 800297c:	61da      	str	r2, [r3, #28]

      /* Set ErrorCode corresponding to a Non-Acknowledge */
      hi2c->ErrorCode |= HAL_I2C_ERROR_AF;
 800297e:	68fb      	ldr	r3, [r7, #12]
 8002980:	6c5b      	ldr	r3, [r3, #68]	; 0x44
 8002982:	f043 0204 	orr.w	r2, r3, #4
 8002986:	68fb      	ldr	r3, [r7, #12]
 8002988:	645a      	str	r2, [r3, #68]	; 0x44

      if ((tmpoptions == I2C_FIRST_FRAME) || (tmpoptions == I2C_NEXT_FRAME))
 800298a:	697b      	ldr	r3, [r7, #20]
 800298c:	2b00      	cmp	r3, #0
 800298e:	d003      	beq.n	8002998 <I2C_Slave_ISR_IT+0xdc>
 8002990:	697b      	ldr	r3, [r7, #20]
 8002992:	f1b3 7f80 	cmp.w	r3, #16777216	; 0x1000000
 8002996:	d17e      	bne.n	8002a96 <I2C_Slave_ISR_IT+0x1da>
      {
        /* Call the corresponding callback to inform upper layer of End of Transfer */
        I2C_ITError(hi2c, hi2c->ErrorCode);
 8002998:	68fb      	ldr	r3, [r7, #12]
 800299a:	6c5b      	ldr	r3, [r3, #68]	; 0x44
 800299c:	4619      	mov	r1, r3
 800299e:	68f8      	ldr	r0, [r7, #12]
 80029a0:	f000 ff0a 	bl	80037b8 <I2C_ITError>
    if (hi2c->XferCount == 0U)
 80029a4:	e077      	b.n	8002a96 <I2C_Slave_ISR_IT+0x1da>
 80029a6:	e076      	b.n	8002a96 <I2C_Slave_ISR_IT+0x1da>
      }
    }
  }
  else if ((I2C_CHECK_FLAG(tmpITFlags, I2C_FLAG_RXNE) != RESET) && \
 80029a8:	693b      	ldr	r3, [r7, #16]
 80029aa:	f003 0304 	and.w	r3, r3, #4
 80029ae:	2b00      	cmp	r3, #0
 80029b0:	d02f      	beq.n	8002a12 <I2C_Slave_ISR_IT+0x156>
           (I2C_CHECK_IT_SOURCE(ITSources, I2C_IT_RXI) != RESET))
 80029b2:	687b      	ldr	r3, [r7, #4]
 80029b4:	f003 0304 	and.w	r3, r3, #4
  else if ((I2C_CHECK_FLAG(tmpITFlags, I2C_FLAG_RXNE) != RESET) && \
 80029b8:	2b00      	cmp	r3, #0
 80029ba:	d02a      	beq.n	8002a12 <I2C_Slave_ISR_IT+0x156>
  {
    if (hi2c->XferCount > 0U)
 80029bc:	68fb      	ldr	r3, [r7, #12]
 80029be:	8d5b      	ldrh	r3, [r3, #42]	; 0x2a
 80029c0:	b29b      	uxth	r3, r3
 80029c2:	2b00      	cmp	r3, #0
 80029c4:	d018      	beq.n	80029f8 <I2C_Slave_ISR_IT+0x13c>
    {
      /* Read data from RXDR */
      *hi2c->pBuffPtr = (uint8_t)hi2c->Instance->RXDR;
 80029c6:	68fb      	ldr	r3, [r7, #12]
 80029c8:	681b      	ldr	r3, [r3, #0]
 80029ca:	6a5a      	ldr	r2, [r3, #36]	; 0x24
 80029cc:	68fb      	ldr	r3, [r7, #12]
 80029ce:	6a5b      	ldr	r3, [r3, #36]	; 0x24
 80029d0:	b2d2      	uxtb	r2, r2
 80029d2:	701a      	strb	r2, [r3, #0]

      /* Increment Buffer pointer */
      hi2c->pBuffPtr++;
 80029d4:	68fb      	ldr	r3, [r7, #12]
 80029d6:	6a5b      	ldr	r3, [r3, #36]	; 0x24
 80029d8:	1c5a      	adds	r2, r3, #1
 80029da:	68fb      	ldr	r3, [r7, #12]
 80029dc:	625a      	str	r2, [r3, #36]	; 0x24

      hi2c->XferSize--;
 80029de:	68fb      	ldr	r3, [r7, #12]
 80029e0:	8d1b      	ldrh	r3, [r3, #40]	; 0x28
 80029e2:	3b01      	subs	r3, #1
 80029e4:	b29a      	uxth	r2, r3
 80029e6:	68fb      	ldr	r3, [r7, #12]
 80029e8:	851a      	strh	r2, [r3, #40]	; 0x28
      hi2c->XferCount--;
 80029ea:	68fb      	ldr	r3, [r7, #12]
 80029ec:	8d5b      	ldrh	r3, [r3, #42]	; 0x2a
 80029ee:	b29b      	uxth	r3, r3
 80029f0:	3b01      	subs	r3, #1
 80029f2:	b29a      	uxth	r2, r3
 80029f4:	68fb      	ldr	r3, [r7, #12]
 80029f6:	855a      	strh	r2, [r3, #42]	; 0x2a
    }

    if ((hi2c->XferCount == 0U) && \
 80029f8:	68fb      	ldr	r3, [r7, #12]
 80029fa:	8d5b      	ldrh	r3, [r3, #42]	; 0x2a
 80029fc:	b29b      	uxth	r3, r3
 80029fe:	2b00      	cmp	r3, #0
 8002a00:	d14b      	bne.n	8002a9a <I2C_Slave_ISR_IT+0x1de>
 8002a02:	697b      	ldr	r3, [r7, #20]
 8002a04:	f513 3f80 	cmn.w	r3, #65536	; 0x10000
 8002a08:	d047      	beq.n	8002a9a <I2C_Slave_ISR_IT+0x1de>
        (tmpoptions != I2C_NO_OPTION_FRAME))
    {
      /* Call I2C Slave Sequential complete process */
      I2C_ITSlaveSeqCplt(hi2c);
 8002a0a:	68f8      	ldr	r0, [r7, #12]
 8002a0c:	f000 fbf8 	bl	8003200 <I2C_ITSlaveSeqCplt>
    if ((hi2c->XferCount == 0U) && \
 8002a10:	e043      	b.n	8002a9a <I2C_Slave_ISR_IT+0x1de>
    }
  }
  else if ((I2C_CHECK_FLAG(tmpITFlags, I2C_FLAG_ADDR) != RESET) && \
 8002a12:	693b      	ldr	r3, [r7, #16]
 8002a14:	f003 0308 	and.w	r3, r3, #8
 8002a18:	2b00      	cmp	r3, #0
 8002a1a:	d009      	beq.n	8002a30 <I2C_Slave_ISR_IT+0x174>
           (I2C_CHECK_IT_SOURCE(ITSources, I2C_IT_ADDRI) != RESET))
 8002a1c:	687b      	ldr	r3, [r7, #4]
 8002a1e:	f003 0308 	and.w	r3, r3, #8
  else if ((I2C_CHECK_FLAG(tmpITFlags, I2C_FLAG_ADDR) != RESET) && \
 8002a22:	2b00      	cmp	r3, #0
 8002a24:	d004      	beq.n	8002a30 <I2C_Slave_ISR_IT+0x174>
  {
    I2C_ITAddrCplt(hi2c, tmpITFlags);
 8002a26:	6939      	ldr	r1, [r7, #16]
 8002a28:	68f8      	ldr	r0, [r7, #12]
 8002a2a:	f000 fb28 	bl	800307e <I2C_ITAddrCplt>
 8002a2e:	e035      	b.n	8002a9c <I2C_Slave_ISR_IT+0x1e0>
  }
  else if ((I2C_CHECK_FLAG(tmpITFlags, I2C_FLAG_TXIS) != RESET) && \
 8002a30:	693b      	ldr	r3, [r7, #16]
 8002a32:	f003 0302 	and.w	r3, r3, #2
 8002a36:	2b00      	cmp	r3, #0
 8002a38:	d030      	beq.n	8002a9c <I2C_Slave_ISR_IT+0x1e0>
           (I2C_CHECK_IT_SOURCE(ITSources, I2C_IT_TXI) != RESET))
 8002a3a:	687b      	ldr	r3, [r7, #4]
 8002a3c:	f003 0302 	and.w	r3, r3, #2
  else if ((I2C_CHECK_FLAG(tmpITFlags, I2C_FLAG_TXIS) != RESET) && \
 8002a40:	2b00      	cmp	r3, #0
 8002a42:	d02b      	beq.n	8002a9c <I2C_Slave_ISR_IT+0x1e0>
  {
    /* Write data to TXDR only if XferCount not reach "0" */
    /* A TXIS flag can be set, during STOP treatment      */
    /* Check if all Data have already been sent */
    /* If it is the case, this last write in TXDR is not sent, correspond to a dummy TXIS event */
    if (hi2c->XferCount > 0U)
 8002a44:	68fb      	ldr	r3, [r7, #12]
 8002a46:	8d5b      	ldrh	r3, [r3, #42]	; 0x2a
 8002a48:	b29b      	uxth	r3, r3
 8002a4a:	2b00      	cmp	r3, #0
 8002a4c:	d018      	beq.n	8002a80 <I2C_Slave_ISR_IT+0x1c4>
    {
      /* Write data to TXDR */
      hi2c->Instance->TXDR = *hi2c->pBuffPtr;
 8002a4e:	68fb      	ldr	r3, [r7, #12]
 8002a50:	6a5b      	ldr	r3, [r3, #36]	; 0x24
 8002a52:	781a      	ldrb	r2, [r3, #0]
 8002a54:	68fb      	ldr	r3, [r7, #12]
 8002a56:	681b      	ldr	r3, [r3, #0]
 8002a58:	629a      	str	r2, [r3, #40]	; 0x28

      /* Increment Buffer pointer */
      hi2c->pBuffPtr++;
 8002a5a:	68fb      	ldr	r3, [r7, #12]
 8002a5c:	6a5b      	ldr	r3, [r3, #36]	; 0x24
 8002a5e:	1c5a      	adds	r2, r3, #1
 8002a60:	68fb      	ldr	r3, [r7, #12]
 8002a62:	625a      	str	r2, [r3, #36]	; 0x24

      hi2c->XferCount--;
 8002a64:	68fb      	ldr	r3, [r7, #12]
 8002a66:	8d5b      	ldrh	r3, [r3, #42]	; 0x2a
 8002a68:	b29b      	uxth	r3, r3
 8002a6a:	3b01      	subs	r3, #1
 8002a6c:	b29a      	uxth	r2, r3
 8002a6e:	68fb      	ldr	r3, [r7, #12]
 8002a70:	855a      	strh	r2, [r3, #42]	; 0x2a
      hi2c->XferSize--;
 8002a72:	68fb      	ldr	r3, [r7, #12]
 8002a74:	8d1b      	ldrh	r3, [r3, #40]	; 0x28
 8002a76:	3b01      	subs	r3, #1
 8002a78:	b29a      	uxth	r2, r3
 8002a7a:	68fb      	ldr	r3, [r7, #12]
 8002a7c:	851a      	strh	r2, [r3, #40]	; 0x28
 8002a7e:	e00d      	b.n	8002a9c <I2C_Slave_ISR_IT+0x1e0>
    }
    else
    {
      if ((tmpoptions == I2C_NEXT_FRAME) || (tmpoptions == I2C_FIRST_FRAME))
 8002a80:	697b      	ldr	r3, [r7, #20]
 8002a82:	f1b3 7f80 	cmp.w	r3, #16777216	; 0x1000000
 8002a86:	d002      	beq.n	8002a8e <I2C_Slave_ISR_IT+0x1d2>
 8002a88:	697b      	ldr	r3, [r7, #20]
 8002a8a:	2b00      	cmp	r3, #0
 8002a8c:	d106      	bne.n	8002a9c <I2C_Slave_ISR_IT+0x1e0>
      {
        /* Last Byte is Transmitted */
        /* Call I2C Slave Sequential complete process */
        I2C_ITSlaveSeqCplt(hi2c);
 8002a8e:	68f8      	ldr	r0, [r7, #12]
 8002a90:	f000 fbb6 	bl	8003200 <I2C_ITSlaveSeqCplt>
 8002a94:	e002      	b.n	8002a9c <I2C_Slave_ISR_IT+0x1e0>
    if (hi2c->XferCount == 0U)
 8002a96:	bf00      	nop
 8002a98:	e000      	b.n	8002a9c <I2C_Slave_ISR_IT+0x1e0>
    if ((hi2c->XferCount == 0U) && \
 8002a9a:	bf00      	nop
  {
    /* Nothing to do */
  }

  /* Process Unlocked */
  __HAL_UNLOCK(hi2c);
 8002a9c:	68fb      	ldr	r3, [r7, #12]
 8002a9e:	2200      	movs	r2, #0
 8002aa0:	f883 2040 	strb.w	r2, [r3, #64]	; 0x40

  return HAL_OK;
 8002aa4:	2300      	movs	r3, #0
}
 8002aa6:	4618      	mov	r0, r3
 8002aa8:	3718      	adds	r7, #24
 8002aaa:	46bd      	mov	sp, r7
 8002aac:	bd80      	pop	{r7, pc}

08002aae <I2C_Master_ISR_DMA>:
  * @param  ITSources Interrupt sources enabled.
  * @retval HAL status
  */
static HAL_StatusTypeDef I2C_Master_ISR_DMA(struct __I2C_HandleTypeDef *hi2c, uint32_t ITFlags,
                                            uint32_t ITSources)
{
 8002aae:	b580      	push	{r7, lr}
 8002ab0:	b088      	sub	sp, #32
 8002ab2:	af02      	add	r7, sp, #8
 8002ab4:	60f8      	str	r0, [r7, #12]
 8002ab6:	60b9      	str	r1, [r7, #8]
 8002ab8:	607a      	str	r2, [r7, #4]
  uint16_t devaddress;
  uint32_t xfermode;

  /* Process Locked */
  __HAL_LOCK(hi2c);
 8002aba:	68fb      	ldr	r3, [r7, #12]
 8002abc:	f893 3040 	ldrb.w	r3, [r3, #64]	; 0x40
 8002ac0:	2b01      	cmp	r3, #1
 8002ac2:	d101      	bne.n	8002ac8 <I2C_Master_ISR_DMA+0x1a>
 8002ac4:	2302      	movs	r3, #2
 8002ac6:	e0d9      	b.n	8002c7c <I2C_Master_ISR_DMA+0x1ce>
 8002ac8:	68fb      	ldr	r3, [r7, #12]
 8002aca:	2201      	movs	r2, #1
 8002acc:	f883 2040 	strb.w	r2, [r3, #64]	; 0x40

  if ((I2C_CHECK_FLAG(ITFlags, I2C_FLAG_AF) != RESET) && \
 8002ad0:	68bb      	ldr	r3, [r7, #8]
 8002ad2:	f003 0310 	and.w	r3, r3, #16
 8002ad6:	2b00      	cmp	r3, #0
 8002ad8:	d016      	beq.n	8002b08 <I2C_Master_ISR_DMA+0x5a>
      (I2C_CHECK_IT_SOURCE(ITSources, I2C_IT_NACKI) != RESET))
 8002ada:	687b      	ldr	r3, [r7, #4]
 8002adc:	f003 0310 	and.w	r3, r3, #16
  if ((I2C_CHECK_FLAG(ITFlags, I2C_FLAG_AF) != RESET) && \
 8002ae0:	2b00      	cmp	r3, #0
 8002ae2:	d011      	beq.n	8002b08 <I2C_Master_ISR_DMA+0x5a>
  {
    /* Clear NACK Flag */
    __HAL_I2C_CLEAR_FLAG(hi2c, I2C_FLAG_AF);
 8002ae4:	68fb      	ldr	r3, [r7, #12]
 8002ae6:	681b      	ldr	r3, [r3, #0]
 8002ae8:	2210      	movs	r2, #16
 8002aea:	61da      	str	r2, [r3, #28]

    /* Set corresponding Error Code */
    hi2c->ErrorCode |= HAL_I2C_ERROR_AF;
 8002aec:	68fb      	ldr	r3, [r7, #12]
 8002aee:	6c5b      	ldr	r3, [r3, #68]	; 0x44
 8002af0:	f043 0204 	orr.w	r2, r3, #4
 8002af4:	68fb      	ldr	r3, [r7, #12]
 8002af6:	645a      	str	r2, [r3, #68]	; 0x44

    /* No need to generate STOP, it is automatically done */
    /* But enable STOP interrupt, to treat it */
    /* Error callback will be send during stop flag treatment */
    I2C_Enable_IRQ(hi2c, I2C_XFER_CPLT_IT);
 8002af8:	2120      	movs	r1, #32
 8002afa:	68f8      	ldr	r0, [r7, #12]
 8002afc:	f000 ffe8 	bl	8003ad0 <I2C_Enable_IRQ>

    /* Flush TX register */
    I2C_Flush_TXDR(hi2c);
 8002b00:	68f8      	ldr	r0, [r7, #12]
 8002b02:	f000 ff70 	bl	80039e6 <I2C_Flush_TXDR>
 8002b06:	e0b4      	b.n	8002c72 <I2C_Master_ISR_DMA+0x1c4>
  }
  else if ((I2C_CHECK_FLAG(ITFlags, I2C_FLAG_TCR) != RESET) && \
 8002b08:	68bb      	ldr	r3, [r7, #8]
 8002b0a:	f003 0380 	and.w	r3, r3, #128	; 0x80
 8002b0e:	2b00      	cmp	r3, #0
 8002b10:	d071      	beq.n	8002bf6 <I2C_Master_ISR_DMA+0x148>
           (I2C_CHECK_IT_SOURCE(ITSources, I2C_IT_TCI) != RESET))
 8002b12:	687b      	ldr	r3, [r7, #4]
 8002b14:	f003 0340 	and.w	r3, r3, #64	; 0x40
  else if ((I2C_CHECK_FLAG(ITFlags, I2C_FLAG_TCR) != RESET) && \
 8002b18:	2b00      	cmp	r3, #0
 8002b1a:	d06c      	beq.n	8002bf6 <I2C_Master_ISR_DMA+0x148>
  {
    /* Disable TC interrupt */
    __HAL_I2C_DISABLE_IT(hi2c, I2C_IT_TCI);
 8002b1c:	68fb      	ldr	r3, [r7, #12]
 8002b1e:	681b      	ldr	r3, [r3, #0]
 8002b20:	681a      	ldr	r2, [r3, #0]
 8002b22:	68fb      	ldr	r3, [r7, #12]
 8002b24:	681b      	ldr	r3, [r3, #0]
 8002b26:	f022 0240 	bic.w	r2, r2, #64	; 0x40
 8002b2a:	601a      	str	r2, [r3, #0]

    if (hi2c->XferCount != 0U)
 8002b2c:	68fb      	ldr	r3, [r7, #12]
 8002b2e:	8d5b      	ldrh	r3, [r3, #42]	; 0x2a
 8002b30:	b29b      	uxth	r3, r3
 8002b32:	2b00      	cmp	r3, #0
 8002b34:	d04e      	beq.n	8002bd4 <I2C_Master_ISR_DMA+0x126>
    {
      /* Recover Slave address */
      devaddress = (uint16_t)(hi2c->Instance->CR2 & I2C_CR2_SADD);
 8002b36:	68fb      	ldr	r3, [r7, #12]
 8002b38:	681b      	ldr	r3, [r3, #0]
 8002b3a:	685b      	ldr	r3, [r3, #4]
 8002b3c:	b29b      	uxth	r3, r3
 8002b3e:	f3c3 0309 	ubfx	r3, r3, #0, #10
 8002b42:	827b      	strh	r3, [r7, #18]

      /* Prepare the new XferSize to transfer */
      if (hi2c->XferCount > MAX_NBYTE_SIZE)
 8002b44:	68fb      	ldr	r3, [r7, #12]
 8002b46:	8d5b      	ldrh	r3, [r3, #42]	; 0x2a
 8002b48:	b29b      	uxth	r3, r3
 8002b4a:	2bff      	cmp	r3, #255	; 0xff
 8002b4c:	d906      	bls.n	8002b5c <I2C_Master_ISR_DMA+0xae>
      {
        hi2c->XferSize = MAX_NBYTE_SIZE;
 8002b4e:	68fb      	ldr	r3, [r7, #12]
 8002b50:	22ff      	movs	r2, #255	; 0xff
 8002b52:	851a      	strh	r2, [r3, #40]	; 0x28
        xfermode = I2C_RELOAD_MODE;
 8002b54:	f04f 7380 	mov.w	r3, #16777216	; 0x1000000
 8002b58:	617b      	str	r3, [r7, #20]
 8002b5a:	e010      	b.n	8002b7e <I2C_Master_ISR_DMA+0xd0>
      }
      else
      {
        hi2c->XferSize = hi2c->XferCount;
 8002b5c:	68fb      	ldr	r3, [r7, #12]
 8002b5e:	8d5b      	ldrh	r3, [r3, #42]	; 0x2a
 8002b60:	b29a      	uxth	r2, r3
 8002b62:	68fb      	ldr	r3, [r7, #12]
 8002b64:	851a      	strh	r2, [r3, #40]	; 0x28
        if (hi2c->XferOptions != I2C_NO_OPTION_FRAME)
 8002b66:	68fb      	ldr	r3, [r7, #12]
 8002b68:	6adb      	ldr	r3, [r3, #44]	; 0x2c
 8002b6a:	f513 3f80 	cmn.w	r3, #65536	; 0x10000
 8002b6e:	d003      	beq.n	8002b78 <I2C_Master_ISR_DMA+0xca>
        {
          xfermode = hi2c->XferOptions;
 8002b70:	68fb      	ldr	r3, [r7, #12]
 8002b72:	6adb      	ldr	r3, [r3, #44]	; 0x2c
 8002b74:	617b      	str	r3, [r7, #20]
 8002b76:	e002      	b.n	8002b7e <I2C_Master_ISR_DMA+0xd0>
        }
        else
        {
          xfermode = I2C_AUTOEND_MODE;
 8002b78:	f04f 7300 	mov.w	r3, #33554432	; 0x2000000
 8002b7c:	617b      	str	r3, [r7, #20]
        }
      }

      /* Set the new XferSize in Nbytes register */
      I2C_TransferConfig(hi2c, devaddress, (uint8_t)hi2c->XferSize, xfermode, I2C_NO_STARTSTOP);
 8002b7e:	68fb      	ldr	r3, [r7, #12]
 8002b80:	8d1b      	ldrh	r3, [r3, #40]	; 0x28
 8002b82:	b2da      	uxtb	r2, r3
 8002b84:	8a79      	ldrh	r1, [r7, #18]
 8002b86:	2300      	movs	r3, #0
 8002b88:	9300      	str	r3, [sp, #0]
 8002b8a:	697b      	ldr	r3, [r7, #20]
 8002b8c:	68f8      	ldr	r0, [r7, #12]
 8002b8e:	f000 ff6d 	bl	8003a6c <I2C_TransferConfig>

      /* Update XferCount value */
      hi2c->XferCount -= hi2c->XferSize;
 8002b92:	68fb      	ldr	r3, [r7, #12]
 8002b94:	8d5b      	ldrh	r3, [r3, #42]	; 0x2a
 8002b96:	b29a      	uxth	r2, r3
 8002b98:	68fb      	ldr	r3, [r7, #12]
 8002b9a:	8d1b      	ldrh	r3, [r3, #40]	; 0x28
 8002b9c:	1ad3      	subs	r3, r2, r3
 8002b9e:	b29a      	uxth	r2, r3
 8002ba0:	68fb      	ldr	r3, [r7, #12]
 8002ba2:	855a      	strh	r2, [r3, #42]	; 0x2a

      /* Enable DMA Request */
      if (hi2c->State == HAL_I2C_STATE_BUSY_RX)
 8002ba4:	68fb      	ldr	r3, [r7, #12]
 8002ba6:	f893 3041 	ldrb.w	r3, [r3, #65]	; 0x41
 8002baa:	b2db      	uxtb	r3, r3
 8002bac:	2b22      	cmp	r3, #34	; 0x22
 8002bae:	d108      	bne.n	8002bc2 <I2C_Master_ISR_DMA+0x114>
      {
        hi2c->Instance->CR1 |= I2C_CR1_RXDMAEN;
 8002bb0:	68fb      	ldr	r3, [r7, #12]
 8002bb2:	681b      	ldr	r3, [r3, #0]
 8002bb4:	681a      	ldr	r2, [r3, #0]
 8002bb6:	68fb      	ldr	r3, [r7, #12]
 8002bb8:	681b      	ldr	r3, [r3, #0]
 8002bba:	f442 4200 	orr.w	r2, r2, #32768	; 0x8000
 8002bbe:	601a      	str	r2, [r3, #0]
    if (hi2c->XferCount != 0U)
 8002bc0:	e057      	b.n	8002c72 <I2C_Master_ISR_DMA+0x1c4>
      }
      else
      {
        hi2c->Instance->CR1 |= I2C_CR1_TXDMAEN;
 8002bc2:	68fb      	ldr	r3, [r7, #12]
 8002bc4:	681b      	ldr	r3, [r3, #0]
 8002bc6:	681a      	ldr	r2, [r3, #0]
 8002bc8:	68fb      	ldr	r3, [r7, #12]
 8002bca:	681b      	ldr	r3, [r3, #0]
 8002bcc:	f442 4280 	orr.w	r2, r2, #16384	; 0x4000
 8002bd0:	601a      	str	r2, [r3, #0]
    if (hi2c->XferCount != 0U)
 8002bd2:	e04e      	b.n	8002c72 <I2C_Master_ISR_DMA+0x1c4>
      }
    }
    else
    {
      /* Call TxCpltCallback() if no stop mode is set */
      if (I2C_GET_STOP_MODE(hi2c) != I2C_AUTOEND_MODE)
 8002bd4:	68fb      	ldr	r3, [r7, #12]
 8002bd6:	681b      	ldr	r3, [r3, #0]
 8002bd8:	685b      	ldr	r3, [r3, #4]
 8002bda:	f003 7300 	and.w	r3, r3, #33554432	; 0x2000000
 8002bde:	f1b3 7f00 	cmp.w	r3, #33554432	; 0x2000000
 8002be2:	d003      	beq.n	8002bec <I2C_Master_ISR_DMA+0x13e>
      {
        /* Call I2C Master Sequential complete process */
        I2C_ITMasterSeqCplt(hi2c);
 8002be4:	68f8      	ldr	r0, [r7, #12]
 8002be6:	f000 face 	bl	8003186 <I2C_ITMasterSeqCplt>
    if (hi2c->XferCount != 0U)
 8002bea:	e042      	b.n	8002c72 <I2C_Master_ISR_DMA+0x1c4>
      }
      else
      {
        /* Wrong size Status regarding TCR flag event */
        /* Call the corresponding callback to inform upper layer of End of Transfer */
        I2C_ITError(hi2c, HAL_I2C_ERROR_SIZE);
 8002bec:	2140      	movs	r1, #64	; 0x40
 8002bee:	68f8      	ldr	r0, [r7, #12]
 8002bf0:	f000 fde2 	bl	80037b8 <I2C_ITError>
    if (hi2c->XferCount != 0U)
 8002bf4:	e03d      	b.n	8002c72 <I2C_Master_ISR_DMA+0x1c4>
      }
    }
  }
  else if ((I2C_CHECK_FLAG(ITFlags, I2C_FLAG_TC) != RESET) && \
 8002bf6:	68bb      	ldr	r3, [r7, #8]
 8002bf8:	f003 0340 	and.w	r3, r3, #64	; 0x40
 8002bfc:	2b00      	cmp	r3, #0
 8002bfe:	d028      	beq.n	8002c52 <I2C_Master_ISR_DMA+0x1a4>
           (I2C_CHECK_IT_SOURCE(ITSources, I2C_IT_TCI) != RESET))
 8002c00:	687b      	ldr	r3, [r7, #4]
 8002c02:	f003 0340 	and.w	r3, r3, #64	; 0x40
  else if ((I2C_CHECK_FLAG(ITFlags, I2C_FLAG_TC) != RESET) && \
 8002c06:	2b00      	cmp	r3, #0
 8002c08:	d023      	beq.n	8002c52 <I2C_Master_ISR_DMA+0x1a4>
  {
    if (hi2c->XferCount == 0U)
 8002c0a:	68fb      	ldr	r3, [r7, #12]
 8002c0c:	8d5b      	ldrh	r3, [r3, #42]	; 0x2a
 8002c0e:	b29b      	uxth	r3, r3
 8002c10:	2b00      	cmp	r3, #0
 8002c12:	d119      	bne.n	8002c48 <I2C_Master_ISR_DMA+0x19a>
    {
      if (I2C_GET_STOP_MODE(hi2c) != I2C_AUTOEND_MODE)
 8002c14:	68fb      	ldr	r3, [r7, #12]
 8002c16:	681b      	ldr	r3, [r3, #0]
 8002c18:	685b      	ldr	r3, [r3, #4]
 8002c1a:	f003 7300 	and.w	r3, r3, #33554432	; 0x2000000
 8002c1e:	f1b3 7f00 	cmp.w	r3, #33554432	; 0x2000000
 8002c22:	d025      	beq.n	8002c70 <I2C_Master_ISR_DMA+0x1c2>
      {
        /* Generate a stop condition in case of no transfer option */
        if (hi2c->XferOptions == I2C_NO_OPTION_FRAME)
 8002c24:	68fb      	ldr	r3, [r7, #12]
 8002c26:	6adb      	ldr	r3, [r3, #44]	; 0x2c
 8002c28:	f513 3f80 	cmn.w	r3, #65536	; 0x10000
 8002c2c:	d108      	bne.n	8002c40 <I2C_Master_ISR_DMA+0x192>
        {
          /* Generate Stop */
          hi2c->Instance->CR2 |= I2C_CR2_STOP;
 8002c2e:	68fb      	ldr	r3, [r7, #12]
 8002c30:	681b      	ldr	r3, [r3, #0]
 8002c32:	685a      	ldr	r2, [r3, #4]
 8002c34:	68fb      	ldr	r3, [r7, #12]
 8002c36:	681b      	ldr	r3, [r3, #0]
 8002c38:	f442 4280 	orr.w	r2, r2, #16384	; 0x4000
 8002c3c:	605a      	str	r2, [r3, #4]
    if (hi2c->XferCount == 0U)
 8002c3e:	e017      	b.n	8002c70 <I2C_Master_ISR_DMA+0x1c2>
        }
        else
        {
          /* Call I2C Master Sequential complete process */
          I2C_ITMasterSeqCplt(hi2c);
 8002c40:	68f8      	ldr	r0, [r7, #12]
 8002c42:	f000 faa0 	bl	8003186 <I2C_ITMasterSeqCplt>
    if (hi2c->XferCount == 0U)
 8002c46:	e013      	b.n	8002c70 <I2C_Master_ISR_DMA+0x1c2>
    }
    else
    {
      /* Wrong size Status regarding TC flag event */
      /* Call the corresponding callback to inform upper layer of End of Transfer */
      I2C_ITError(hi2c, HAL_I2C_ERROR_SIZE);
 8002c48:	2140      	movs	r1, #64	; 0x40
 8002c4a:	68f8      	ldr	r0, [r7, #12]
 8002c4c:	f000 fdb4 	bl	80037b8 <I2C_ITError>
    if (hi2c->XferCount == 0U)
 8002c50:	e00e      	b.n	8002c70 <I2C_Master_ISR_DMA+0x1c2>
    }
  }
  else if ((I2C_CHECK_FLAG(ITFlags, I2C_FLAG_STOPF) != RESET) && \
 8002c52:	68bb      	ldr	r3, [r7, #8]
 8002c54:	f003 0320 	and.w	r3, r3, #32
 8002c58:	2b00      	cmp	r3, #0
 8002c5a:	d00a      	beq.n	8002c72 <I2C_Master_ISR_DMA+0x1c4>
           (I2C_CHECK_IT_SOURCE(ITSources, I2C_IT_STOPI) != RESET))
 8002c5c:	687b      	ldr	r3, [r7, #4]
 8002c5e:	f003 0320 	and.w	r3, r3, #32
  else if ((I2C_CHECK_FLAG(ITFlags, I2C_FLAG_STOPF) != RESET) && \
 8002c62:	2b00      	cmp	r3, #0
 8002c64:	d005      	beq.n	8002c72 <I2C_Master_ISR_DMA+0x1c4>
  {
    /* Call I2C Master complete process */
    I2C_ITMasterCplt(hi2c, ITFlags);
 8002c66:	68b9      	ldr	r1, [r7, #8]
 8002c68:	68f8      	ldr	r0, [r7, #12]
 8002c6a:	f000 fb25 	bl	80032b8 <I2C_ITMasterCplt>
 8002c6e:	e000      	b.n	8002c72 <I2C_Master_ISR_DMA+0x1c4>
    if (hi2c->XferCount == 0U)
 8002c70:	bf00      	nop
  {
    /* Nothing to do */
  }

  /* Process Unlocked */
  __HAL_UNLOCK(hi2c);
 8002c72:	68fb      	ldr	r3, [r7, #12]
 8002c74:	2200      	movs	r2, #0
 8002c76:	f883 2040 	strb.w	r2, [r3, #64]	; 0x40

  return HAL_OK;
 8002c7a:	2300      	movs	r3, #0
}
 8002c7c:	4618      	mov	r0, r3
 8002c7e:	3718      	adds	r7, #24
 8002c80:	46bd      	mov	sp, r7
 8002c82:	bd80      	pop	{r7, pc}

08002c84 <I2C_Mem_ISR_DMA>:
  * @param  ITSources Interrupt sources enabled.
  * @retval HAL status
  */
static HAL_StatusTypeDef I2C_Mem_ISR_DMA(struct __I2C_HandleTypeDef *hi2c, uint32_t ITFlags,
                                         uint32_t ITSources)
{
 8002c84:	b580      	push	{r7, lr}
 8002c86:	b088      	sub	sp, #32
 8002c88:	af02      	add	r7, sp, #8
 8002c8a:	60f8      	str	r0, [r7, #12]
 8002c8c:	60b9      	str	r1, [r7, #8]
 8002c8e:	607a      	str	r2, [r7, #4]
  uint32_t direction = I2C_GENERATE_START_WRITE;
 8002c90:	4b8d      	ldr	r3, [pc, #564]	; (8002ec8 <I2C_Mem_ISR_DMA+0x244>)
 8002c92:	617b      	str	r3, [r7, #20]

  /* Process Locked */
  __HAL_LOCK(hi2c);
 8002c94:	68fb      	ldr	r3, [r7, #12]
 8002c96:	f893 3040 	ldrb.w	r3, [r3, #64]	; 0x40
 8002c9a:	2b01      	cmp	r3, #1
 8002c9c:	d101      	bne.n	8002ca2 <I2C_Mem_ISR_DMA+0x1e>
 8002c9e:	2302      	movs	r3, #2
 8002ca0:	e10e      	b.n	8002ec0 <I2C_Mem_ISR_DMA+0x23c>
 8002ca2:	68fb      	ldr	r3, [r7, #12]
 8002ca4:	2201      	movs	r2, #1
 8002ca6:	f883 2040 	strb.w	r2, [r3, #64]	; 0x40

  if ((I2C_CHECK_FLAG(ITFlags, I2C_FLAG_AF) != RESET) && \
 8002caa:	68bb      	ldr	r3, [r7, #8]
 8002cac:	f003 0310 	and.w	r3, r3, #16
 8002cb0:	2b00      	cmp	r3, #0
 8002cb2:	d016      	beq.n	8002ce2 <I2C_Mem_ISR_DMA+0x5e>
      (I2C_CHECK_IT_SOURCE(ITSources, I2C_IT_NACKI) != RESET))
 8002cb4:	687b      	ldr	r3, [r7, #4]
 8002cb6:	f003 0310 	and.w	r3, r3, #16
  if ((I2C_CHECK_FLAG(ITFlags, I2C_FLAG_AF) != RESET) && \
 8002cba:	2b00      	cmp	r3, #0
 8002cbc:	d011      	beq.n	8002ce2 <I2C_Mem_ISR_DMA+0x5e>
  {
    /* Clear NACK Flag */
    __HAL_I2C_CLEAR_FLAG(hi2c, I2C_FLAG_AF);
 8002cbe:	68fb      	ldr	r3, [r7, #12]
 8002cc0:	681b      	ldr	r3, [r3, #0]
 8002cc2:	2210      	movs	r2, #16
 8002cc4:	61da      	str	r2, [r3, #28]

    /* Set corresponding Error Code */
    hi2c->ErrorCode |= HAL_I2C_ERROR_AF;
 8002cc6:	68fb      	ldr	r3, [r7, #12]
 8002cc8:	6c5b      	ldr	r3, [r3, #68]	; 0x44
 8002cca:	f043 0204 	orr.w	r2, r3, #4
 8002cce:	68fb      	ldr	r3, [r7, #12]
 8002cd0:	645a      	str	r2, [r3, #68]	; 0x44

    /* No need to generate STOP, it is automatically done */
    /* But enable STOP interrupt, to treat it */
    /* Error callback will be send during stop flag treatment */
    I2C_Enable_IRQ(hi2c, I2C_XFER_CPLT_IT);
 8002cd2:	2120      	movs	r1, #32
 8002cd4:	68f8      	ldr	r0, [r7, #12]
 8002cd6:	f000 fefb 	bl	8003ad0 <I2C_Enable_IRQ>

    /* Flush TX register */
    I2C_Flush_TXDR(hi2c);
 8002cda:	68f8      	ldr	r0, [r7, #12]
 8002cdc:	f000 fe83 	bl	80039e6 <I2C_Flush_TXDR>
 8002ce0:	e0e9      	b.n	8002eb6 <I2C_Mem_ISR_DMA+0x232>
  }
  else if ((I2C_CHECK_FLAG(ITFlags, I2C_FLAG_TXIS) != RESET) && \
 8002ce2:	68bb      	ldr	r3, [r7, #8]
 8002ce4:	f003 0302 	and.w	r3, r3, #2
 8002ce8:	2b00      	cmp	r3, #0
 8002cea:	d00e      	beq.n	8002d0a <I2C_Mem_ISR_DMA+0x86>
           (I2C_CHECK_IT_SOURCE(ITSources, I2C_IT_TXI) != RESET))
 8002cec:	687b      	ldr	r3, [r7, #4]
 8002cee:	f003 0302 	and.w	r3, r3, #2
  else if ((I2C_CHECK_FLAG(ITFlags, I2C_FLAG_TXIS) != RESET) && \
 8002cf2:	2b00      	cmp	r3, #0
 8002cf4:	d009      	beq.n	8002d0a <I2C_Mem_ISR_DMA+0x86>
  {
    /* Write LSB part of Memory Address */
    hi2c->Instance->TXDR = hi2c->Memaddress;
 8002cf6:	68fb      	ldr	r3, [r7, #12]
 8002cf8:	681b      	ldr	r3, [r3, #0]
 8002cfa:	68fa      	ldr	r2, [r7, #12]
 8002cfc:	6d12      	ldr	r2, [r2, #80]	; 0x50
 8002cfe:	629a      	str	r2, [r3, #40]	; 0x28

    /* Reset Memaddress content */
    hi2c->Memaddress = 0xFFFFFFFFU;
 8002d00:	68fb      	ldr	r3, [r7, #12]
 8002d02:	f04f 32ff 	mov.w	r2, #4294967295
 8002d06:	651a      	str	r2, [r3, #80]	; 0x50
 8002d08:	e0d5      	b.n	8002eb6 <I2C_Mem_ISR_DMA+0x232>
  }
  else if ((I2C_CHECK_FLAG(ITFlags, I2C_FLAG_TCR) != RESET) && \
 8002d0a:	68bb      	ldr	r3, [r7, #8]
 8002d0c:	f003 0380 	and.w	r3, r3, #128	; 0x80
 8002d10:	2b00      	cmp	r3, #0
 8002d12:	d05f      	beq.n	8002dd4 <I2C_Mem_ISR_DMA+0x150>
           (I2C_CHECK_IT_SOURCE(ITSources, I2C_IT_TCI) != RESET))
 8002d14:	687b      	ldr	r3, [r7, #4]
 8002d16:	f003 0340 	and.w	r3, r3, #64	; 0x40
  else if ((I2C_CHECK_FLAG(ITFlags, I2C_FLAG_TCR) != RESET) && \
 8002d1a:	2b00      	cmp	r3, #0
 8002d1c:	d05a      	beq.n	8002dd4 <I2C_Mem_ISR_DMA+0x150>
  {
    /* Disable Interrupt related to address step */
    I2C_Disable_IRQ(hi2c, I2C_XFER_TX_IT);
 8002d1e:	2101      	movs	r1, #1
 8002d20:	68f8      	ldr	r0, [r7, #12]
 8002d22:	f000 ff59 	bl	8003bd8 <I2C_Disable_IRQ>

    /* Enable only Error interrupt */
    I2C_Enable_IRQ(hi2c, I2C_XFER_ERROR_IT);
 8002d26:	2110      	movs	r1, #16
 8002d28:	68f8      	ldr	r0, [r7, #12]
 8002d2a:	f000 fed1 	bl	8003ad0 <I2C_Enable_IRQ>

    if (hi2c->XferCount != 0U)
 8002d2e:	68fb      	ldr	r3, [r7, #12]
 8002d30:	8d5b      	ldrh	r3, [r3, #42]	; 0x2a
 8002d32:	b29b      	uxth	r3, r3
 8002d34:	2b00      	cmp	r3, #0
 8002d36:	d048      	beq.n	8002dca <I2C_Mem_ISR_DMA+0x146>
    {
      /* Prepare the new XferSize to transfer */
      if (hi2c->XferCount > MAX_NBYTE_SIZE)
 8002d38:	68fb      	ldr	r3, [r7, #12]
 8002d3a:	8d5b      	ldrh	r3, [r3, #42]	; 0x2a
 8002d3c:	b29b      	uxth	r3, r3
 8002d3e:	2bff      	cmp	r3, #255	; 0xff
 8002d40:	d910      	bls.n	8002d64 <I2C_Mem_ISR_DMA+0xe0>
      {
        hi2c->XferSize = MAX_NBYTE_SIZE;
 8002d42:	68fb      	ldr	r3, [r7, #12]
 8002d44:	22ff      	movs	r2, #255	; 0xff
 8002d46:	851a      	strh	r2, [r3, #40]	; 0x28
        I2C_TransferConfig(hi2c, (uint16_t)hi2c->Devaddress, (uint8_t)hi2c->XferSize,
 8002d48:	68fb      	ldr	r3, [r7, #12]
 8002d4a:	6cdb      	ldr	r3, [r3, #76]	; 0x4c
 8002d4c:	b299      	uxth	r1, r3
 8002d4e:	68fb      	ldr	r3, [r7, #12]
 8002d50:	8d1b      	ldrh	r3, [r3, #40]	; 0x28
 8002d52:	b2da      	uxtb	r2, r3
 8002d54:	2300      	movs	r3, #0
 8002d56:	9300      	str	r3, [sp, #0]
 8002d58:	f04f 7380 	mov.w	r3, #16777216	; 0x1000000
 8002d5c:	68f8      	ldr	r0, [r7, #12]
 8002d5e:	f000 fe85 	bl	8003a6c <I2C_TransferConfig>
 8002d62:	e011      	b.n	8002d88 <I2C_Mem_ISR_DMA+0x104>
                           I2C_RELOAD_MODE, I2C_NO_STARTSTOP);
      }
      else
      {
        hi2c->XferSize = hi2c->XferCount;
 8002d64:	68fb      	ldr	r3, [r7, #12]
 8002d66:	8d5b      	ldrh	r3, [r3, #42]	; 0x2a
 8002d68:	b29a      	uxth	r2, r3
 8002d6a:	68fb      	ldr	r3, [r7, #12]
 8002d6c:	851a      	strh	r2, [r3, #40]	; 0x28
        I2C_TransferConfig(hi2c, (uint16_t)hi2c->Devaddress, (uint8_t)hi2c->XferSize,
 8002d6e:	68fb      	ldr	r3, [r7, #12]
 8002d70:	6cdb      	ldr	r3, [r3, #76]	; 0x4c
 8002d72:	b299      	uxth	r1, r3
 8002d74:	68fb      	ldr	r3, [r7, #12]
 8002d76:	8d1b      	ldrh	r3, [r3, #40]	; 0x28
 8002d78:	b2da      	uxtb	r2, r3
 8002d7a:	2300      	movs	r3, #0
 8002d7c:	9300      	str	r3, [sp, #0]
 8002d7e:	f04f 7300 	mov.w	r3, #33554432	; 0x2000000
 8002d82:	68f8      	ldr	r0, [r7, #12]
 8002d84:	f000 fe72 	bl	8003a6c <I2C_TransferConfig>
                           I2C_AUTOEND_MODE, I2C_NO_STARTSTOP);
      }

      /* Update XferCount value */
      hi2c->XferCount -= hi2c->XferSize;
 8002d88:	68fb      	ldr	r3, [r7, #12]
 8002d8a:	8d5b      	ldrh	r3, [r3, #42]	; 0x2a
 8002d8c:	b29a      	uxth	r2, r3
 8002d8e:	68fb      	ldr	r3, [r7, #12]
 8002d90:	8d1b      	ldrh	r3, [r3, #40]	; 0x28
 8002d92:	1ad3      	subs	r3, r2, r3
 8002d94:	b29a      	uxth	r2, r3
 8002d96:	68fb      	ldr	r3, [r7, #12]
 8002d98:	855a      	strh	r2, [r3, #42]	; 0x2a

      /* Enable DMA Request */
      if (hi2c->State == HAL_I2C_STATE_BUSY_RX)
 8002d9a:	68fb      	ldr	r3, [r7, #12]
 8002d9c:	f893 3041 	ldrb.w	r3, [r3, #65]	; 0x41
 8002da0:	b2db      	uxtb	r3, r3
 8002da2:	2b22      	cmp	r3, #34	; 0x22
 8002da4:	d108      	bne.n	8002db8 <I2C_Mem_ISR_DMA+0x134>
      {
        hi2c->Instance->CR1 |= I2C_CR1_RXDMAEN;
 8002da6:	68fb      	ldr	r3, [r7, #12]
 8002da8:	681b      	ldr	r3, [r3, #0]
 8002daa:	681a      	ldr	r2, [r3, #0]
 8002dac:	68fb      	ldr	r3, [r7, #12]
 8002dae:	681b      	ldr	r3, [r3, #0]
 8002db0:	f442 4200 	orr.w	r2, r2, #32768	; 0x8000
 8002db4:	601a      	str	r2, [r3, #0]
    if (hi2c->XferCount != 0U)
 8002db6:	e07e      	b.n	8002eb6 <I2C_Mem_ISR_DMA+0x232>
      }
      else
      {
        hi2c->Instance->CR1 |= I2C_CR1_TXDMAEN;
 8002db8:	68fb      	ldr	r3, [r7, #12]
 8002dba:	681b      	ldr	r3, [r3, #0]
 8002dbc:	681a      	ldr	r2, [r3, #0]
 8002dbe:	68fb      	ldr	r3, [r7, #12]
 8002dc0:	681b      	ldr	r3, [r3, #0]
 8002dc2:	f442 4280 	orr.w	r2, r2, #16384	; 0x4000
 8002dc6:	601a      	str	r2, [r3, #0]
    if (hi2c->XferCount != 0U)
 8002dc8:	e075      	b.n	8002eb6 <I2C_Mem_ISR_DMA+0x232>
    }
    else
    {
      /* Wrong size Status regarding TCR flag event */
      /* Call the corresponding callback to inform upper layer of End of Transfer */
      I2C_ITError(hi2c, HAL_I2C_ERROR_SIZE);
 8002dca:	2140      	movs	r1, #64	; 0x40
 8002dcc:	68f8      	ldr	r0, [r7, #12]
 8002dce:	f000 fcf3 	bl	80037b8 <I2C_ITError>
    if (hi2c->XferCount != 0U)
 8002dd2:	e070      	b.n	8002eb6 <I2C_Mem_ISR_DMA+0x232>
    }
  }
  else if ((I2C_CHECK_FLAG(ITFlags, I2C_FLAG_TC) != RESET) && \
 8002dd4:	68bb      	ldr	r3, [r7, #8]
 8002dd6:	f003 0340 	and.w	r3, r3, #64	; 0x40
 8002dda:	2b00      	cmp	r3, #0
 8002ddc:	d05d      	beq.n	8002e9a <I2C_Mem_ISR_DMA+0x216>
           (I2C_CHECK_IT_SOURCE(ITSources, I2C_IT_TCI) != RESET))
 8002dde:	687b      	ldr	r3, [r7, #4]
 8002de0:	f003 0340 	and.w	r3, r3, #64	; 0x40
  else if ((I2C_CHECK_FLAG(ITFlags, I2C_FLAG_TC) != RESET) && \
 8002de4:	2b00      	cmp	r3, #0
 8002de6:	d058      	beq.n	8002e9a <I2C_Mem_ISR_DMA+0x216>
  {
    /* Disable Interrupt related to address step */
    I2C_Disable_IRQ(hi2c, I2C_XFER_TX_IT);
 8002de8:	2101      	movs	r1, #1
 8002dea:	68f8      	ldr	r0, [r7, #12]
 8002dec:	f000 fef4 	bl	8003bd8 <I2C_Disable_IRQ>

    /* Enable only Error and NACK interrupt for data transfer */
    I2C_Enable_IRQ(hi2c, I2C_XFER_ERROR_IT);
 8002df0:	2110      	movs	r1, #16
 8002df2:	68f8      	ldr	r0, [r7, #12]
 8002df4:	f000 fe6c 	bl	8003ad0 <I2C_Enable_IRQ>

    if (hi2c->State == HAL_I2C_STATE_BUSY_RX)
 8002df8:	68fb      	ldr	r3, [r7, #12]
 8002dfa:	f893 3041 	ldrb.w	r3, [r3, #65]	; 0x41
 8002dfe:	b2db      	uxtb	r3, r3
 8002e00:	2b22      	cmp	r3, #34	; 0x22
 8002e02:	d101      	bne.n	8002e08 <I2C_Mem_ISR_DMA+0x184>
    {
      direction = I2C_GENERATE_START_READ;
 8002e04:	4b31      	ldr	r3, [pc, #196]	; (8002ecc <I2C_Mem_ISR_DMA+0x248>)
 8002e06:	617b      	str	r3, [r7, #20]
    }

    if (hi2c->XferCount > MAX_NBYTE_SIZE)
 8002e08:	68fb      	ldr	r3, [r7, #12]
 8002e0a:	8d5b      	ldrh	r3, [r3, #42]	; 0x2a
 8002e0c:	b29b      	uxth	r3, r3
 8002e0e:	2bff      	cmp	r3, #255	; 0xff
 8002e10:	d910      	bls.n	8002e34 <I2C_Mem_ISR_DMA+0x1b0>
    {
      hi2c->XferSize = MAX_NBYTE_SIZE;
 8002e12:	68fb      	ldr	r3, [r7, #12]
 8002e14:	22ff      	movs	r2, #255	; 0xff
 8002e16:	851a      	strh	r2, [r3, #40]	; 0x28

      /* Set NBYTES to write and reload if hi2c->XferCount > MAX_NBYTE_SIZE and generate RESTART */
      I2C_TransferConfig(hi2c, (uint16_t)hi2c->Devaddress, (uint8_t)hi2c->XferSize,
 8002e18:	68fb      	ldr	r3, [r7, #12]
 8002e1a:	6cdb      	ldr	r3, [r3, #76]	; 0x4c
 8002e1c:	b299      	uxth	r1, r3
 8002e1e:	68fb      	ldr	r3, [r7, #12]
 8002e20:	8d1b      	ldrh	r3, [r3, #40]	; 0x28
 8002e22:	b2da      	uxtb	r2, r3
 8002e24:	697b      	ldr	r3, [r7, #20]
 8002e26:	9300      	str	r3, [sp, #0]
 8002e28:	f04f 7380 	mov.w	r3, #16777216	; 0x1000000
 8002e2c:	68f8      	ldr	r0, [r7, #12]
 8002e2e:	f000 fe1d 	bl	8003a6c <I2C_TransferConfig>
 8002e32:	e011      	b.n	8002e58 <I2C_Mem_ISR_DMA+0x1d4>
                         I2C_RELOAD_MODE, direction);
    }
    else
    {
      hi2c->XferSize = hi2c->XferCount;
 8002e34:	68fb      	ldr	r3, [r7, #12]
 8002e36:	8d5b      	ldrh	r3, [r3, #42]	; 0x2a
 8002e38:	b29a      	uxth	r2, r3
 8002e3a:	68fb      	ldr	r3, [r7, #12]
 8002e3c:	851a      	strh	r2, [r3, #40]	; 0x28

      /* Set NBYTES to write and generate RESTART */
      I2C_TransferConfig(hi2c, (uint16_t)hi2c->Devaddress, (uint8_t)hi2c->XferSize,
 8002e3e:	68fb      	ldr	r3, [r7, #12]
 8002e40:	6cdb      	ldr	r3, [r3, #76]	; 0x4c
 8002e42:	b299      	uxth	r1, r3
 8002e44:	68fb      	ldr	r3, [r7, #12]
 8002e46:	8d1b      	ldrh	r3, [r3, #40]	; 0x28
 8002e48:	b2da      	uxtb	r2, r3
 8002e4a:	697b      	ldr	r3, [r7, #20]
 8002e4c:	9300      	str	r3, [sp, #0]
 8002e4e:	f04f 7300 	mov.w	r3, #33554432	; 0x2000000
 8002e52:	68f8      	ldr	r0, [r7, #12]
 8002e54:	f000 fe0a 	bl	8003a6c <I2C_TransferConfig>
                         I2C_AUTOEND_MODE, direction);
    }

    /* Update XferCount value */
    hi2c->XferCount -= hi2c->XferSize;
 8002e58:	68fb      	ldr	r3, [r7, #12]
 8002e5a:	8d5b      	ldrh	r3, [r3, #42]	; 0x2a
 8002e5c:	b29a      	uxth	r2, r3
 8002e5e:	68fb      	ldr	r3, [r7, #12]
 8002e60:	8d1b      	ldrh	r3, [r3, #40]	; 0x28
 8002e62:	1ad3      	subs	r3, r2, r3
 8002e64:	b29a      	uxth	r2, r3
 8002e66:	68fb      	ldr	r3, [r7, #12]
 8002e68:	855a      	strh	r2, [r3, #42]	; 0x2a

    /* Enable DMA Request */
    if (hi2c->State == HAL_I2C_STATE_BUSY_RX)
 8002e6a:	68fb      	ldr	r3, [r7, #12]
 8002e6c:	f893 3041 	ldrb.w	r3, [r3, #65]	; 0x41
 8002e70:	b2db      	uxtb	r3, r3
 8002e72:	2b22      	cmp	r3, #34	; 0x22
 8002e74:	d108      	bne.n	8002e88 <I2C_Mem_ISR_DMA+0x204>
    {
      hi2c->Instance->CR1 |= I2C_CR1_RXDMAEN;
 8002e76:	68fb      	ldr	r3, [r7, #12]
 8002e78:	681b      	ldr	r3, [r3, #0]
 8002e7a:	681a      	ldr	r2, [r3, #0]
 8002e7c:	68fb      	ldr	r3, [r7, #12]
 8002e7e:	681b      	ldr	r3, [r3, #0]
 8002e80:	f442 4200 	orr.w	r2, r2, #32768	; 0x8000
 8002e84:	601a      	str	r2, [r3, #0]
    if (hi2c->State == HAL_I2C_STATE_BUSY_RX)
 8002e86:	e016      	b.n	8002eb6 <I2C_Mem_ISR_DMA+0x232>
    }
    else
    {
      hi2c->Instance->CR1 |= I2C_CR1_TXDMAEN;
 8002e88:	68fb      	ldr	r3, [r7, #12]
 8002e8a:	681b      	ldr	r3, [r3, #0]
 8002e8c:	681a      	ldr	r2, [r3, #0]
 8002e8e:	68fb      	ldr	r3, [r7, #12]
 8002e90:	681b      	ldr	r3, [r3, #0]
 8002e92:	f442 4280 	orr.w	r2, r2, #16384	; 0x4000
 8002e96:	601a      	str	r2, [r3, #0]
    if (hi2c->State == HAL_I2C_STATE_BUSY_RX)
 8002e98:	e00d      	b.n	8002eb6 <I2C_Mem_ISR_DMA+0x232>
    }
  }
  else if ((I2C_CHECK_FLAG(ITFlags, I2C_FLAG_STOPF) != RESET) && \
 8002e9a:	68bb      	ldr	r3, [r7, #8]
 8002e9c:	f003 0320 	and.w	r3, r3, #32
 8002ea0:	2b00      	cmp	r3, #0
 8002ea2:	d008      	beq.n	8002eb6 <I2C_Mem_ISR_DMA+0x232>
           (I2C_CHECK_IT_SOURCE(ITSources, I2C_IT_STOPI) != RESET))
 8002ea4:	687b      	ldr	r3, [r7, #4]
 8002ea6:	f003 0320 	and.w	r3, r3, #32
  else if ((I2C_CHECK_FLAG(ITFlags, I2C_FLAG_STOPF) != RESET) && \
 8002eaa:	2b00      	cmp	r3, #0
 8002eac:	d003      	beq.n	8002eb6 <I2C_Mem_ISR_DMA+0x232>
  {
    /* Call I2C Master complete process */
    I2C_ITMasterCplt(hi2c, ITFlags);
 8002eae:	68b9      	ldr	r1, [r7, #8]
 8002eb0:	68f8      	ldr	r0, [r7, #12]
 8002eb2:	f000 fa01 	bl	80032b8 <I2C_ITMasterCplt>
  {
    /* Nothing to do */
  }

  /* Process Unlocked */
  __HAL_UNLOCK(hi2c);
 8002eb6:	68fb      	ldr	r3, [r7, #12]
 8002eb8:	2200      	movs	r2, #0
 8002eba:	f883 2040 	strb.w	r2, [r3, #64]	; 0x40

  return HAL_OK;
 8002ebe:	2300      	movs	r3, #0
}
 8002ec0:	4618      	mov	r0, r3
 8002ec2:	3718      	adds	r7, #24
 8002ec4:	46bd      	mov	sp, r7
 8002ec6:	bd80      	pop	{r7, pc}
 8002ec8:	80002000 	.word	0x80002000
 8002ecc:	80002400 	.word	0x80002400

08002ed0 <I2C_Slave_ISR_DMA>:
  * @param  ITSources Interrupt sources enabled.
  * @retval HAL status
  */
static HAL_StatusTypeDef I2C_Slave_ISR_DMA(struct __I2C_HandleTypeDef *hi2c, uint32_t ITFlags,
                                           uint32_t ITSources)
{
 8002ed0:	b580      	push	{r7, lr}
 8002ed2:	b088      	sub	sp, #32
 8002ed4:	af00      	add	r7, sp, #0
 8002ed6:	60f8      	str	r0, [r7, #12]
 8002ed8:	60b9      	str	r1, [r7, #8]
 8002eda:	607a      	str	r2, [r7, #4]
  uint32_t tmpoptions = hi2c->XferOptions;
 8002edc:	68fb      	ldr	r3, [r7, #12]
 8002ede:	6adb      	ldr	r3, [r3, #44]	; 0x2c
 8002ee0:	61bb      	str	r3, [r7, #24]
  uint32_t treatdmanack = 0U;
 8002ee2:	2300      	movs	r3, #0
 8002ee4:	61fb      	str	r3, [r7, #28]
  HAL_I2C_StateTypeDef tmpstate;

  /* Process locked */
  __HAL_LOCK(hi2c);
 8002ee6:	68fb      	ldr	r3, [r7, #12]
 8002ee8:	f893 3040 	ldrb.w	r3, [r3, #64]	; 0x40
 8002eec:	2b01      	cmp	r3, #1
 8002eee:	d101      	bne.n	8002ef4 <I2C_Slave_ISR_DMA+0x24>
 8002ef0:	2302      	movs	r3, #2
 8002ef2:	e0c0      	b.n	8003076 <I2C_Slave_ISR_DMA+0x1a6>
 8002ef4:	68fb      	ldr	r3, [r7, #12]
 8002ef6:	2201      	movs	r2, #1
 8002ef8:	f883 2040 	strb.w	r2, [r3, #64]	; 0x40

  /* Check if STOPF is set */
  if ((I2C_CHECK_FLAG(ITFlags, I2C_FLAG_STOPF) != RESET) && \
 8002efc:	68bb      	ldr	r3, [r7, #8]
 8002efe:	f003 0320 	and.w	r3, r3, #32
 8002f02:	2b00      	cmp	r3, #0
 8002f04:	d009      	beq.n	8002f1a <I2C_Slave_ISR_DMA+0x4a>
      (I2C_CHECK_IT_SOURCE(ITSources, I2C_IT_STOPI) != RESET))
 8002f06:	687b      	ldr	r3, [r7, #4]
 8002f08:	f003 0320 	and.w	r3, r3, #32
  if ((I2C_CHECK_FLAG(ITFlags, I2C_FLAG_STOPF) != RESET) && \
 8002f0c:	2b00      	cmp	r3, #0
 8002f0e:	d004      	beq.n	8002f1a <I2C_Slave_ISR_DMA+0x4a>
  {
    /* Call I2C Slave complete process */
    I2C_ITSlaveCplt(hi2c, ITFlags);
 8002f10:	68b9      	ldr	r1, [r7, #8]
 8002f12:	68f8      	ldr	r0, [r7, #12]
 8002f14:	f000 fa98 	bl	8003448 <I2C_ITSlaveCplt>
 8002f18:	e0a8      	b.n	800306c <I2C_Slave_ISR_DMA+0x19c>
  }
  else if ((I2C_CHECK_FLAG(ITFlags, I2C_FLAG_AF) != RESET) && \
 8002f1a:	68bb      	ldr	r3, [r7, #8]
 8002f1c:	f003 0310 	and.w	r3, r3, #16
 8002f20:	2b00      	cmp	r3, #0
 8002f22:	f000 8095 	beq.w	8003050 <I2C_Slave_ISR_DMA+0x180>
           (I2C_CHECK_IT_SOURCE(ITSources, I2C_IT_NACKI) != RESET))
 8002f26:	687b      	ldr	r3, [r7, #4]
 8002f28:	f003 0310 	and.w	r3, r3, #16
  else if ((I2C_CHECK_FLAG(ITFlags, I2C_FLAG_AF) != RESET) && \
 8002f2c:	2b00      	cmp	r3, #0
 8002f2e:	f000 808f 	beq.w	8003050 <I2C_Slave_ISR_DMA+0x180>
  {
    /* Check that I2C transfer finished */
    /* if yes, normal use case, a NACK is sent by the MASTER when Transfer is finished */
    /* Mean XferCount == 0 */
    /* So clear Flag NACKF only */
    if ((I2C_CHECK_IT_SOURCE(ITSources, I2C_CR1_TXDMAEN) != RESET) ||
 8002f32:	687b      	ldr	r3, [r7, #4]
 8002f34:	f403 4380 	and.w	r3, r3, #16384	; 0x4000
 8002f38:	2b00      	cmp	r3, #0
 8002f3a:	d104      	bne.n	8002f46 <I2C_Slave_ISR_DMA+0x76>
        (I2C_CHECK_IT_SOURCE(ITSources, I2C_CR1_RXDMAEN) != RESET))
 8002f3c:	687b      	ldr	r3, [r7, #4]
 8002f3e:	f403 4300 	and.w	r3, r3, #32768	; 0x8000
    if ((I2C_CHECK_IT_SOURCE(ITSources, I2C_CR1_TXDMAEN) != RESET) ||
 8002f42:	2b00      	cmp	r3, #0
 8002f44:	d07d      	beq.n	8003042 <I2C_Slave_ISR_DMA+0x172>
    {
      /* Split check of hdmarx, for MISRA compliance */
      if (hi2c->hdmarx != NULL)
 8002f46:	68fb      	ldr	r3, [r7, #12]
 8002f48:	6bdb      	ldr	r3, [r3, #60]	; 0x3c
 8002f4a:	2b00      	cmp	r3, #0
 8002f4c:	d00c      	beq.n	8002f68 <I2C_Slave_ISR_DMA+0x98>
      {
        if (I2C_CHECK_IT_SOURCE(ITSources, I2C_CR1_RXDMAEN) != RESET)
 8002f4e:	687b      	ldr	r3, [r7, #4]
 8002f50:	f403 4300 	and.w	r3, r3, #32768	; 0x8000
 8002f54:	2b00      	cmp	r3, #0
 8002f56:	d007      	beq.n	8002f68 <I2C_Slave_ISR_DMA+0x98>
        {
          if (I2C_GET_DMA_REMAIN_DATA(hi2c->hdmarx) == 0U)
 8002f58:	68fb      	ldr	r3, [r7, #12]
 8002f5a:	6bdb      	ldr	r3, [r3, #60]	; 0x3c
 8002f5c:	681b      	ldr	r3, [r3, #0]
 8002f5e:	685b      	ldr	r3, [r3, #4]
 8002f60:	2b00      	cmp	r3, #0
 8002f62:	d101      	bne.n	8002f68 <I2C_Slave_ISR_DMA+0x98>
          {
            treatdmanack = 1U;
 8002f64:	2301      	movs	r3, #1
 8002f66:	61fb      	str	r3, [r7, #28]
          }
        }
      }

      /* Split check of hdmatx, for MISRA compliance  */
      if (hi2c->hdmatx != NULL)
 8002f68:	68fb      	ldr	r3, [r7, #12]
 8002f6a:	6b9b      	ldr	r3, [r3, #56]	; 0x38
 8002f6c:	2b00      	cmp	r3, #0
 8002f6e:	d00c      	beq.n	8002f8a <I2C_Slave_ISR_DMA+0xba>
      {
        if (I2C_CHECK_IT_SOURCE(ITSources, I2C_CR1_TXDMAEN) != RESET)
 8002f70:	687b      	ldr	r3, [r7, #4]
 8002f72:	f403 4380 	and.w	r3, r3, #16384	; 0x4000
 8002f76:	2b00      	cmp	r3, #0
 8002f78:	d007      	beq.n	8002f8a <I2C_Slave_ISR_DMA+0xba>
        {
          if (I2C_GET_DMA_REMAIN_DATA(hi2c->hdmatx) == 0U)
 8002f7a:	68fb      	ldr	r3, [r7, #12]
 8002f7c:	6b9b      	ldr	r3, [r3, #56]	; 0x38
 8002f7e:	681b      	ldr	r3, [r3, #0]
 8002f80:	685b      	ldr	r3, [r3, #4]
 8002f82:	2b00      	cmp	r3, #0
 8002f84:	d101      	bne.n	8002f8a <I2C_Slave_ISR_DMA+0xba>
          {
            treatdmanack = 1U;
 8002f86:	2301      	movs	r3, #1
 8002f88:	61fb      	str	r3, [r7, #28]
          }
        }
      }

      if (treatdmanack == 1U)
 8002f8a:	69fb      	ldr	r3, [r7, #28]
 8002f8c:	2b01      	cmp	r3, #1
 8002f8e:	d128      	bne.n	8002fe2 <I2C_Slave_ISR_DMA+0x112>
      {
        if ((hi2c->State == HAL_I2C_STATE_LISTEN) && (tmpoptions == I2C_FIRST_AND_LAST_FRAME))
 8002f90:	68fb      	ldr	r3, [r7, #12]
 8002f92:	f893 3041 	ldrb.w	r3, [r3, #65]	; 0x41
 8002f96:	b2db      	uxtb	r3, r3
 8002f98:	2b28      	cmp	r3, #40	; 0x28
 8002f9a:	d108      	bne.n	8002fae <I2C_Slave_ISR_DMA+0xde>
 8002f9c:	69bb      	ldr	r3, [r7, #24]
 8002f9e:	f1b3 7f00 	cmp.w	r3, #33554432	; 0x2000000
 8002fa2:	d104      	bne.n	8002fae <I2C_Slave_ISR_DMA+0xde>
          /* Same action must be done for (tmpoptions == I2C_LAST_FRAME) which removed for
             Warning[Pa134]: left and right operands are identical */
        {
          /* Call I2C Listen complete process */
          I2C_ITListenCplt(hi2c, ITFlags);
 8002fa4:	68b9      	ldr	r1, [r7, #8]
 8002fa6:	68f8      	ldr	r0, [r7, #12]
 8002fa8:	f000 fbb2 	bl	8003710 <I2C_ITListenCplt>
 8002fac:	e048      	b.n	8003040 <I2C_Slave_ISR_DMA+0x170>
        }
        else if ((hi2c->State == HAL_I2C_STATE_BUSY_TX_LISTEN) && (tmpoptions != I2C_NO_OPTION_FRAME))
 8002fae:	68fb      	ldr	r3, [r7, #12]
 8002fb0:	f893 3041 	ldrb.w	r3, [r3, #65]	; 0x41
 8002fb4:	b2db      	uxtb	r3, r3
 8002fb6:	2b29      	cmp	r3, #41	; 0x29
 8002fb8:	d10e      	bne.n	8002fd8 <I2C_Slave_ISR_DMA+0x108>
 8002fba:	69bb      	ldr	r3, [r7, #24]
 8002fbc:	f513 3f80 	cmn.w	r3, #65536	; 0x10000
 8002fc0:	d00a      	beq.n	8002fd8 <I2C_Slave_ISR_DMA+0x108>
        {
          /* Clear NACK Flag */
          __HAL_I2C_CLEAR_FLAG(hi2c, I2C_FLAG_AF);
 8002fc2:	68fb      	ldr	r3, [r7, #12]
 8002fc4:	681b      	ldr	r3, [r3, #0]
 8002fc6:	2210      	movs	r2, #16
 8002fc8:	61da      	str	r2, [r3, #28]

          /* Flush TX register */
          I2C_Flush_TXDR(hi2c);
 8002fca:	68f8      	ldr	r0, [r7, #12]
 8002fcc:	f000 fd0b 	bl	80039e6 <I2C_Flush_TXDR>

          /* Last Byte is Transmitted */
          /* Call I2C Slave Sequential complete process */
          I2C_ITSlaveSeqCplt(hi2c);
 8002fd0:	68f8      	ldr	r0, [r7, #12]
 8002fd2:	f000 f915 	bl	8003200 <I2C_ITSlaveSeqCplt>
 8002fd6:	e033      	b.n	8003040 <I2C_Slave_ISR_DMA+0x170>
        }
        else
        {
          /* Clear NACK Flag */
          __HAL_I2C_CLEAR_FLAG(hi2c, I2C_FLAG_AF);
 8002fd8:	68fb      	ldr	r3, [r7, #12]
 8002fda:	681b      	ldr	r3, [r3, #0]
 8002fdc:	2210      	movs	r2, #16
 8002fde:	61da      	str	r2, [r3, #28]
      if (treatdmanack == 1U)
 8002fe0:	e034      	b.n	800304c <I2C_Slave_ISR_DMA+0x17c>
      }
      else
      {
        /* if no, error use case, a Non-Acknowledge of last Data is generated by the MASTER*/
        /* Clear NACK Flag */
        __HAL_I2C_CLEAR_FLAG(hi2c, I2C_FLAG_AF);
 8002fe2:	68fb      	ldr	r3, [r7, #12]
 8002fe4:	681b      	ldr	r3, [r3, #0]
 8002fe6:	2210      	movs	r2, #16
 8002fe8:	61da      	str	r2, [r3, #28]

        /* Set ErrorCode corresponding to a Non-Acknowledge */
        hi2c->ErrorCode |= HAL_I2C_ERROR_AF;
 8002fea:	68fb      	ldr	r3, [r7, #12]
 8002fec:	6c5b      	ldr	r3, [r3, #68]	; 0x44
 8002fee:	f043 0204 	orr.w	r2, r3, #4
 8002ff2:	68fb      	ldr	r3, [r7, #12]
 8002ff4:	645a      	str	r2, [r3, #68]	; 0x44

        /* Store current hi2c->State, solve MISRA2012-Rule-13.5 */
        tmpstate = hi2c->State;
 8002ff6:	68fb      	ldr	r3, [r7, #12]
 8002ff8:	f893 3041 	ldrb.w	r3, [r3, #65]	; 0x41
 8002ffc:	75fb      	strb	r3, [r7, #23]

        if ((tmpoptions == I2C_FIRST_FRAME) || (tmpoptions == I2C_NEXT_FRAME))
 8002ffe:	69bb      	ldr	r3, [r7, #24]
 8003000:	2b00      	cmp	r3, #0
 8003002:	d003      	beq.n	800300c <I2C_Slave_ISR_DMA+0x13c>
 8003004:	69bb      	ldr	r3, [r7, #24]
 8003006:	f1b3 7f80 	cmp.w	r3, #16777216	; 0x1000000
 800300a:	d11f      	bne.n	800304c <I2C_Slave_ISR_DMA+0x17c>
        {
          if ((tmpstate == HAL_I2C_STATE_BUSY_TX) || (tmpstate == HAL_I2C_STATE_BUSY_TX_LISTEN))
 800300c:	7dfb      	ldrb	r3, [r7, #23]
 800300e:	2b21      	cmp	r3, #33	; 0x21
 8003010:	d002      	beq.n	8003018 <I2C_Slave_ISR_DMA+0x148>
 8003012:	7dfb      	ldrb	r3, [r7, #23]
 8003014:	2b29      	cmp	r3, #41	; 0x29
 8003016:	d103      	bne.n	8003020 <I2C_Slave_ISR_DMA+0x150>
          {
            hi2c->PreviousState = I2C_STATE_SLAVE_BUSY_TX;
 8003018:	68fb      	ldr	r3, [r7, #12]
 800301a:	2221      	movs	r2, #33	; 0x21
 800301c:	631a      	str	r2, [r3, #48]	; 0x30
 800301e:	e008      	b.n	8003032 <I2C_Slave_ISR_DMA+0x162>
          }
          else if ((tmpstate == HAL_I2C_STATE_BUSY_RX) || (tmpstate == HAL_I2C_STATE_BUSY_RX_LISTEN))
 8003020:	7dfb      	ldrb	r3, [r7, #23]
 8003022:	2b22      	cmp	r3, #34	; 0x22
 8003024:	d002      	beq.n	800302c <I2C_Slave_ISR_DMA+0x15c>
 8003026:	7dfb      	ldrb	r3, [r7, #23]
 8003028:	2b2a      	cmp	r3, #42	; 0x2a
 800302a:	d102      	bne.n	8003032 <I2C_Slave_ISR_DMA+0x162>
          {
            hi2c->PreviousState = I2C_STATE_SLAVE_BUSY_RX;
 800302c:	68fb      	ldr	r3, [r7, #12]
 800302e:	2222      	movs	r2, #34	; 0x22
 8003030:	631a      	str	r2, [r3, #48]	; 0x30
          {
            /* Do nothing */
          }

          /* Call the corresponding callback to inform upper layer of End of Transfer */
          I2C_ITError(hi2c, hi2c->ErrorCode);
 8003032:	68fb      	ldr	r3, [r7, #12]
 8003034:	6c5b      	ldr	r3, [r3, #68]	; 0x44
 8003036:	4619      	mov	r1, r3
 8003038:	68f8      	ldr	r0, [r7, #12]
 800303a:	f000 fbbd 	bl	80037b8 <I2C_ITError>
      if (treatdmanack == 1U)
 800303e:	e005      	b.n	800304c <I2C_Slave_ISR_DMA+0x17c>
 8003040:	e004      	b.n	800304c <I2C_Slave_ISR_DMA+0x17c>
      }
    }
    else
    {
      /* Only Clear NACK Flag, no DMA treatment is pending */
      __HAL_I2C_CLEAR_FLAG(hi2c, I2C_FLAG_AF);
 8003042:	68fb      	ldr	r3, [r7, #12]
 8003044:	681b      	ldr	r3, [r3, #0]
 8003046:	2210      	movs	r2, #16
 8003048:	61da      	str	r2, [r3, #28]
    if ((I2C_CHECK_IT_SOURCE(ITSources, I2C_CR1_TXDMAEN) != RESET) ||
 800304a:	e00f      	b.n	800306c <I2C_Slave_ISR_DMA+0x19c>
      if (treatdmanack == 1U)
 800304c:	bf00      	nop
    if ((I2C_CHECK_IT_SOURCE(ITSources, I2C_CR1_TXDMAEN) != RESET) ||
 800304e:	e00d      	b.n	800306c <I2C_Slave_ISR_DMA+0x19c>
    }
  }
  else if ((I2C_CHECK_FLAG(ITFlags, I2C_FLAG_ADDR) != RESET) && \
 8003050:	68bb      	ldr	r3, [r7, #8]
 8003052:	f003 0308 	and.w	r3, r3, #8
 8003056:	2b00      	cmp	r3, #0
 8003058:	d008      	beq.n	800306c <I2C_Slave_ISR_DMA+0x19c>
           (I2C_CHECK_IT_SOURCE(ITSources, I2C_IT_ADDRI) != RESET))
 800305a:	687b      	ldr	r3, [r7, #4]
 800305c:	f003 0308 	and.w	r3, r3, #8
  else if ((I2C_CHECK_FLAG(ITFlags, I2C_FLAG_ADDR) != RESET) && \
 8003060:	2b00      	cmp	r3, #0
 8003062:	d003      	beq.n	800306c <I2C_Slave_ISR_DMA+0x19c>
  {
    I2C_ITAddrCplt(hi2c, ITFlags);
 8003064:	68b9      	ldr	r1, [r7, #8]
 8003066:	68f8      	ldr	r0, [r7, #12]
 8003068:	f000 f809 	bl	800307e <I2C_ITAddrCplt>
  {
    /* Nothing to do */
  }

  /* Process Unlocked */
  __HAL_UNLOCK(hi2c);
 800306c:	68fb      	ldr	r3, [r7, #12]
 800306e:	2200      	movs	r2, #0
 8003070:	f883 2040 	strb.w	r2, [r3, #64]	; 0x40

  return HAL_OK;
 8003074:	2300      	movs	r3, #0
}
 8003076:	4618      	mov	r0, r3
 8003078:	3720      	adds	r7, #32
 800307a:	46bd      	mov	sp, r7
 800307c:	bd80      	pop	{r7, pc}

0800307e <I2C_ITAddrCplt>:
  * @param  hi2c I2C handle.
  * @param  ITFlags Interrupt flags to handle.
  * @retval None
  */
static void I2C_ITAddrCplt(I2C_HandleTypeDef *hi2c, uint32_t ITFlags)
{
 800307e:	b580      	push	{r7, lr}
 8003080:	b084      	sub	sp, #16
 8003082:	af00      	add	r7, sp, #0
 8003084:	6078      	str	r0, [r7, #4]
 8003086:	6039      	str	r1, [r7, #0]

  /* Prevent unused argument(s) compilation warning */
  UNUSED(ITFlags);

  /* In case of Listen state, need to inform upper layer of address match code event */
  if (((uint32_t)hi2c->State & (uint32_t)HAL_I2C_STATE_LISTEN) == (uint32_t)HAL_I2C_STATE_LISTEN)
 8003088:	687b      	ldr	r3, [r7, #4]
 800308a:	f893 3041 	ldrb.w	r3, [r3, #65]	; 0x41
 800308e:	b2db      	uxtb	r3, r3
 8003090:	f003 0328 	and.w	r3, r3, #40	; 0x28
 8003094:	2b28      	cmp	r3, #40	; 0x28
 8003096:	d16a      	bne.n	800316e <I2C_ITAddrCplt+0xf0>
  {
    transferdirection = I2C_GET_DIR(hi2c);
 8003098:	687b      	ldr	r3, [r7, #4]
 800309a:	681b      	ldr	r3, [r3, #0]
 800309c:	699b      	ldr	r3, [r3, #24]
 800309e:	0c1b      	lsrs	r3, r3, #16
 80030a0:	b2db      	uxtb	r3, r3
 80030a2:	f003 0301 	and.w	r3, r3, #1
 80030a6:	73fb      	strb	r3, [r7, #15]
    slaveaddrcode     = I2C_GET_ADDR_MATCH(hi2c);
 80030a8:	687b      	ldr	r3, [r7, #4]
 80030aa:	681b      	ldr	r3, [r3, #0]
 80030ac:	699b      	ldr	r3, [r3, #24]
 80030ae:	0c1b      	lsrs	r3, r3, #16
 80030b0:	b29b      	uxth	r3, r3
 80030b2:	f003 03fe 	and.w	r3, r3, #254	; 0xfe
 80030b6:	81bb      	strh	r3, [r7, #12]
    ownadd1code       = I2C_GET_OWN_ADDRESS1(hi2c);
 80030b8:	687b      	ldr	r3, [r7, #4]
 80030ba:	681b      	ldr	r3, [r3, #0]
 80030bc:	689b      	ldr	r3, [r3, #8]
 80030be:	b29b      	uxth	r3, r3
 80030c0:	f3c3 0309 	ubfx	r3, r3, #0, #10
 80030c4:	817b      	strh	r3, [r7, #10]
    ownadd2code       = I2C_GET_OWN_ADDRESS2(hi2c);
 80030c6:	687b      	ldr	r3, [r7, #4]
 80030c8:	681b      	ldr	r3, [r3, #0]
 80030ca:	68db      	ldr	r3, [r3, #12]
 80030cc:	b29b      	uxth	r3, r3
 80030ce:	f003 03fe 	and.w	r3, r3, #254	; 0xfe
 80030d2:	813b      	strh	r3, [r7, #8]

    /* If 10bits addressing mode is selected */
    if (hi2c->Init.AddressingMode == I2C_ADDRESSINGMODE_10BIT)
 80030d4:	687b      	ldr	r3, [r7, #4]
 80030d6:	68db      	ldr	r3, [r3, #12]
 80030d8:	2b02      	cmp	r3, #2
 80030da:	d138      	bne.n	800314e <I2C_ITAddrCplt+0xd0>
    {
      if ((slaveaddrcode & SLAVE_ADDR_MSK) == ((ownadd1code >> SLAVE_ADDR_SHIFT) & SLAVE_ADDR_MSK))
 80030dc:	897b      	ldrh	r3, [r7, #10]
 80030de:	09db      	lsrs	r3, r3, #7
 80030e0:	b29a      	uxth	r2, r3
 80030e2:	89bb      	ldrh	r3, [r7, #12]
 80030e4:	4053      	eors	r3, r2
 80030e6:	b29b      	uxth	r3, r3
 80030e8:	f003 0306 	and.w	r3, r3, #6
 80030ec:	2b00      	cmp	r3, #0
 80030ee:	d11c      	bne.n	800312a <I2C_ITAddrCplt+0xac>
      {
        slaveaddrcode = ownadd1code;
 80030f0:	897b      	ldrh	r3, [r7, #10]
 80030f2:	81bb      	strh	r3, [r7, #12]
        hi2c->AddrEventCount++;
 80030f4:	687b      	ldr	r3, [r7, #4]
 80030f6:	6c9b      	ldr	r3, [r3, #72]	; 0x48
 80030f8:	1c5a      	adds	r2, r3, #1
 80030fa:	687b      	ldr	r3, [r7, #4]
 80030fc:	649a      	str	r2, [r3, #72]	; 0x48
        if (hi2c->AddrEventCount == 2U)
 80030fe:	687b      	ldr	r3, [r7, #4]
 8003100:	6c9b      	ldr	r3, [r3, #72]	; 0x48
 8003102:	2b02      	cmp	r3, #2
 8003104:	d13b      	bne.n	800317e <I2C_ITAddrCplt+0x100>
        {
          /* Reset Address Event counter */
          hi2c->AddrEventCount = 0U;
 8003106:	687b      	ldr	r3, [r7, #4]
 8003108:	2200      	movs	r2, #0
 800310a:	649a      	str	r2, [r3, #72]	; 0x48

          /* Clear ADDR flag */
          __HAL_I2C_CLEAR_FLAG(hi2c, I2C_FLAG_ADDR);
 800310c:	687b      	ldr	r3, [r7, #4]
 800310e:	681b      	ldr	r3, [r3, #0]
 8003110:	2208      	movs	r2, #8
 8003112:	61da      	str	r2, [r3, #28]

          /* Process Unlocked */
          __HAL_UNLOCK(hi2c);
 8003114:	687b      	ldr	r3, [r7, #4]
 8003116:	2200      	movs	r2, #0
 8003118:	f883 2040 	strb.w	r2, [r3, #64]	; 0x40

          /* Call Slave Addr callback */
#if (USE_HAL_I2C_REGISTER_CALLBACKS == 1)
          hi2c->AddrCallback(hi2c, transferdirection, slaveaddrcode);
#else
          HAL_I2C_AddrCallback(hi2c, transferdirection, slaveaddrcode);
 800311c:	89ba      	ldrh	r2, [r7, #12]
 800311e:	7bfb      	ldrb	r3, [r7, #15]
 8003120:	4619      	mov	r1, r3
 8003122:	6878      	ldr	r0, [r7, #4]
 8003124:	f7ff fa63 	bl	80025ee <HAL_I2C_AddrCallback>
    __HAL_I2C_CLEAR_FLAG(hi2c, I2C_FLAG_ADDR);

    /* Process Unlocked */
    __HAL_UNLOCK(hi2c);
  }
}
 8003128:	e029      	b.n	800317e <I2C_ITAddrCplt+0x100>
        slaveaddrcode = ownadd2code;
 800312a:	893b      	ldrh	r3, [r7, #8]
 800312c:	81bb      	strh	r3, [r7, #12]
        I2C_Disable_IRQ(hi2c, I2C_XFER_LISTEN_IT);
 800312e:	f44f 4100 	mov.w	r1, #32768	; 0x8000
 8003132:	6878      	ldr	r0, [r7, #4]
 8003134:	f000 fd50 	bl	8003bd8 <I2C_Disable_IRQ>
        __HAL_UNLOCK(hi2c);
 8003138:	687b      	ldr	r3, [r7, #4]
 800313a:	2200      	movs	r2, #0
 800313c:	f883 2040 	strb.w	r2, [r3, #64]	; 0x40
        HAL_I2C_AddrCallback(hi2c, transferdirection, slaveaddrcode);
 8003140:	89ba      	ldrh	r2, [r7, #12]
 8003142:	7bfb      	ldrb	r3, [r7, #15]
 8003144:	4619      	mov	r1, r3
 8003146:	6878      	ldr	r0, [r7, #4]
 8003148:	f7ff fa51 	bl	80025ee <HAL_I2C_AddrCallback>
}
 800314c:	e017      	b.n	800317e <I2C_ITAddrCplt+0x100>
      I2C_Disable_IRQ(hi2c, I2C_XFER_LISTEN_IT);
 800314e:	f44f 4100 	mov.w	r1, #32768	; 0x8000
 8003152:	6878      	ldr	r0, [r7, #4]
 8003154:	f000 fd40 	bl	8003bd8 <I2C_Disable_IRQ>
      __HAL_UNLOCK(hi2c);
 8003158:	687b      	ldr	r3, [r7, #4]
 800315a:	2200      	movs	r2, #0
 800315c:	f883 2040 	strb.w	r2, [r3, #64]	; 0x40
      HAL_I2C_AddrCallback(hi2c, transferdirection, slaveaddrcode);
 8003160:	89ba      	ldrh	r2, [r7, #12]
 8003162:	7bfb      	ldrb	r3, [r7, #15]
 8003164:	4619      	mov	r1, r3
 8003166:	6878      	ldr	r0, [r7, #4]
 8003168:	f7ff fa41 	bl	80025ee <HAL_I2C_AddrCallback>
}
 800316c:	e007      	b.n	800317e <I2C_ITAddrCplt+0x100>
    __HAL_I2C_CLEAR_FLAG(hi2c, I2C_FLAG_ADDR);
 800316e:	687b      	ldr	r3, [r7, #4]
 8003170:	681b      	ldr	r3, [r3, #0]
 8003172:	2208      	movs	r2, #8
 8003174:	61da      	str	r2, [r3, #28]
    __HAL_UNLOCK(hi2c);
 8003176:	687b      	ldr	r3, [r7, #4]
 8003178:	2200      	movs	r2, #0
 800317a:	f883 2040 	strb.w	r2, [r3, #64]	; 0x40
}
 800317e:	bf00      	nop
 8003180:	3710      	adds	r7, #16
 8003182:	46bd      	mov	sp, r7
 8003184:	bd80      	pop	{r7, pc}

08003186 <I2C_ITMasterSeqCplt>:
  * @brief  I2C Master sequential complete process.
  * @param  hi2c I2C handle.
  * @retval None
  */
static void I2C_ITMasterSeqCplt(I2C_HandleTypeDef *hi2c)
{
 8003186:	b580      	push	{r7, lr}
 8003188:	b082      	sub	sp, #8
 800318a:	af00      	add	r7, sp, #0
 800318c:	6078      	str	r0, [r7, #4]
  /* Reset I2C handle mode */
  hi2c->Mode = HAL_I2C_MODE_NONE;
 800318e:	687b      	ldr	r3, [r7, #4]
 8003190:	2200      	movs	r2, #0
 8003192:	f883 2042 	strb.w	r2, [r3, #66]	; 0x42

  /* No Generate Stop, to permit restart mode */
  /* The stop will be done at the end of transfer, when I2C_AUTOEND_MODE enable */
  if (hi2c->State == HAL_I2C_STATE_BUSY_TX)
 8003196:	687b      	ldr	r3, [r7, #4]
 8003198:	f893 3041 	ldrb.w	r3, [r3, #65]	; 0x41
 800319c:	b2db      	uxtb	r3, r3
 800319e:	2b21      	cmp	r3, #33	; 0x21
 80031a0:	d115      	bne.n	80031ce <I2C_ITMasterSeqCplt+0x48>
  {
    hi2c->State         = HAL_I2C_STATE_READY;
 80031a2:	687b      	ldr	r3, [r7, #4]
 80031a4:	2220      	movs	r2, #32
 80031a6:	f883 2041 	strb.w	r2, [r3, #65]	; 0x41
    hi2c->PreviousState = I2C_STATE_MASTER_BUSY_TX;
 80031aa:	687b      	ldr	r3, [r7, #4]
 80031ac:	2211      	movs	r2, #17
 80031ae:	631a      	str	r2, [r3, #48]	; 0x30
    hi2c->XferISR       = NULL;
 80031b0:	687b      	ldr	r3, [r7, #4]
 80031b2:	2200      	movs	r2, #0
 80031b4:	635a      	str	r2, [r3, #52]	; 0x34

    /* Disable Interrupts */
    I2C_Disable_IRQ(hi2c, I2C_XFER_TX_IT);
 80031b6:	2101      	movs	r1, #1
 80031b8:	6878      	ldr	r0, [r7, #4]
 80031ba:	f000 fd0d 	bl	8003bd8 <I2C_Disable_IRQ>

    /* Process Unlocked */
    __HAL_UNLOCK(hi2c);
 80031be:	687b      	ldr	r3, [r7, #4]
 80031c0:	2200      	movs	r2, #0
 80031c2:	f883 2040 	strb.w	r2, [r3, #64]	; 0x40

    /* Call the corresponding callback to inform upper layer of End of Transfer */
#if (USE_HAL_I2C_REGISTER_CALLBACKS == 1)
    hi2c->MasterTxCpltCallback(hi2c);
#else
    HAL_I2C_MasterTxCpltCallback(hi2c);
 80031c6:	6878      	ldr	r0, [r7, #4]
 80031c8:	f7ff f9e9 	bl	800259e <HAL_I2C_MasterTxCpltCallback>
    hi2c->MasterRxCpltCallback(hi2c);
#else
    HAL_I2C_MasterRxCpltCallback(hi2c);
#endif /* USE_HAL_I2C_REGISTER_CALLBACKS */
  }
}
 80031cc:	e014      	b.n	80031f8 <I2C_ITMasterSeqCplt+0x72>
    hi2c->State         = HAL_I2C_STATE_READY;
 80031ce:	687b      	ldr	r3, [r7, #4]
 80031d0:	2220      	movs	r2, #32
 80031d2:	f883 2041 	strb.w	r2, [r3, #65]	; 0x41
    hi2c->PreviousState = I2C_STATE_MASTER_BUSY_RX;
 80031d6:	687b      	ldr	r3, [r7, #4]
 80031d8:	2212      	movs	r2, #18
 80031da:	631a      	str	r2, [r3, #48]	; 0x30
    hi2c->XferISR       = NULL;
 80031dc:	687b      	ldr	r3, [r7, #4]
 80031de:	2200      	movs	r2, #0
 80031e0:	635a      	str	r2, [r3, #52]	; 0x34
    I2C_Disable_IRQ(hi2c, I2C_XFER_RX_IT);
 80031e2:	2102      	movs	r1, #2
 80031e4:	6878      	ldr	r0, [r7, #4]
 80031e6:	f000 fcf7 	bl	8003bd8 <I2C_Disable_IRQ>
    __HAL_UNLOCK(hi2c);
 80031ea:	687b      	ldr	r3, [r7, #4]
 80031ec:	2200      	movs	r2, #0
 80031ee:	f883 2040 	strb.w	r2, [r3, #64]	; 0x40
    HAL_I2C_MasterRxCpltCallback(hi2c);
 80031f2:	6878      	ldr	r0, [r7, #4]
 80031f4:	f7ff f9dd 	bl	80025b2 <HAL_I2C_MasterRxCpltCallback>
}
 80031f8:	bf00      	nop
 80031fa:	3708      	adds	r7, #8
 80031fc:	46bd      	mov	sp, r7
 80031fe:	bd80      	pop	{r7, pc}

08003200 <I2C_ITSlaveSeqCplt>:
  * @brief  I2C Slave sequential complete process.
  * @param  hi2c I2C handle.
  * @retval None
  */
static void I2C_ITSlaveSeqCplt(I2C_HandleTypeDef *hi2c)
{
 8003200:	b580      	push	{r7, lr}
 8003202:	b084      	sub	sp, #16
 8003204:	af00      	add	r7, sp, #0
 8003206:	6078      	str	r0, [r7, #4]
  uint32_t tmpcr1value = READ_REG(hi2c->Instance->CR1);
 8003208:	687b      	ldr	r3, [r7, #4]
 800320a:	681b      	ldr	r3, [r3, #0]
 800320c:	681b      	ldr	r3, [r3, #0]
 800320e:	60fb      	str	r3, [r7, #12]

  /* Reset I2C handle mode */
  hi2c->Mode = HAL_I2C_MODE_NONE;
 8003210:	687b      	ldr	r3, [r7, #4]
 8003212:	2200      	movs	r2, #0
 8003214:	f883 2042 	strb.w	r2, [r3, #66]	; 0x42

  /* If a DMA is ongoing, Update handle size context */
  if (I2C_CHECK_IT_SOURCE(tmpcr1value, I2C_CR1_TXDMAEN) != RESET)
 8003218:	68fb      	ldr	r3, [r7, #12]
 800321a:	f403 4380 	and.w	r3, r3, #16384	; 0x4000
 800321e:	2b00      	cmp	r3, #0
 8003220:	d008      	beq.n	8003234 <I2C_ITSlaveSeqCplt+0x34>
  {
    /* Disable DMA Request */
    hi2c->Instance->CR1 &= ~I2C_CR1_TXDMAEN;
 8003222:	687b      	ldr	r3, [r7, #4]
 8003224:	681b      	ldr	r3, [r3, #0]
 8003226:	681a      	ldr	r2, [r3, #0]
 8003228:	687b      	ldr	r3, [r7, #4]
 800322a:	681b      	ldr	r3, [r3, #0]
 800322c:	f422 4280 	bic.w	r2, r2, #16384	; 0x4000
 8003230:	601a      	str	r2, [r3, #0]
 8003232:	e00c      	b.n	800324e <I2C_ITSlaveSeqCplt+0x4e>
  }
  else if (I2C_CHECK_IT_SOURCE(tmpcr1value, I2C_CR1_RXDMAEN) != RESET)
 8003234:	68fb      	ldr	r3, [r7, #12]
 8003236:	f403 4300 	and.w	r3, r3, #32768	; 0x8000
 800323a:	2b00      	cmp	r3, #0
 800323c:	d007      	beq.n	800324e <I2C_ITSlaveSeqCplt+0x4e>
  {
    /* Disable DMA Request */
    hi2c->Instance->CR1 &= ~I2C_CR1_RXDMAEN;
 800323e:	687b      	ldr	r3, [r7, #4]
 8003240:	681b      	ldr	r3, [r3, #0]
 8003242:	681a      	ldr	r2, [r3, #0]
 8003244:	687b      	ldr	r3, [r7, #4]
 8003246:	681b      	ldr	r3, [r3, #0]
 8003248:	f422 4200 	bic.w	r2, r2, #32768	; 0x8000
 800324c:	601a      	str	r2, [r3, #0]
  else
  {
    /* Do nothing */
  }

  if (hi2c->State == HAL_I2C_STATE_BUSY_TX_LISTEN)
 800324e:	687b      	ldr	r3, [r7, #4]
 8003250:	f893 3041 	ldrb.w	r3, [r3, #65]	; 0x41
 8003254:	b2db      	uxtb	r3, r3
 8003256:	2b29      	cmp	r3, #41	; 0x29
 8003258:	d112      	bne.n	8003280 <I2C_ITSlaveSeqCplt+0x80>
  {
    /* Remove HAL_I2C_STATE_SLAVE_BUSY_TX, keep only HAL_I2C_STATE_LISTEN */
    hi2c->State         = HAL_I2C_STATE_LISTEN;
 800325a:	687b      	ldr	r3, [r7, #4]
 800325c:	2228      	movs	r2, #40	; 0x28
 800325e:	f883 2041 	strb.w	r2, [r3, #65]	; 0x41
    hi2c->PreviousState = I2C_STATE_SLAVE_BUSY_TX;
 8003262:	687b      	ldr	r3, [r7, #4]
 8003264:	2221      	movs	r2, #33	; 0x21
 8003266:	631a      	str	r2, [r3, #48]	; 0x30

    /* Disable Interrupts */
    I2C_Disable_IRQ(hi2c, I2C_XFER_TX_IT);
 8003268:	2101      	movs	r1, #1
 800326a:	6878      	ldr	r0, [r7, #4]
 800326c:	f000 fcb4 	bl	8003bd8 <I2C_Disable_IRQ>

    /* Process Unlocked */
    __HAL_UNLOCK(hi2c);
 8003270:	687b      	ldr	r3, [r7, #4]
 8003272:	2200      	movs	r2, #0
 8003274:	f883 2040 	strb.w	r2, [r3, #64]	; 0x40

    /* Call the corresponding callback to inform upper layer of End of Transfer */
#if (USE_HAL_I2C_REGISTER_CALLBACKS == 1)
    hi2c->SlaveTxCpltCallback(hi2c);
#else
    HAL_I2C_SlaveTxCpltCallback(hi2c);
 8003278:	6878      	ldr	r0, [r7, #4]
 800327a:	f7ff f9a4 	bl	80025c6 <HAL_I2C_SlaveTxCpltCallback>
  }
  else
  {
    /* Nothing to do */
  }
}
 800327e:	e017      	b.n	80032b0 <I2C_ITSlaveSeqCplt+0xb0>
  else if (hi2c->State == HAL_I2C_STATE_BUSY_RX_LISTEN)
 8003280:	687b      	ldr	r3, [r7, #4]
 8003282:	f893 3041 	ldrb.w	r3, [r3, #65]	; 0x41
 8003286:	b2db      	uxtb	r3, r3
 8003288:	2b2a      	cmp	r3, #42	; 0x2a
 800328a:	d111      	bne.n	80032b0 <I2C_ITSlaveSeqCplt+0xb0>
    hi2c->State         = HAL_I2C_STATE_LISTEN;
 800328c:	687b      	ldr	r3, [r7, #4]
 800328e:	2228      	movs	r2, #40	; 0x28
 8003290:	f883 2041 	strb.w	r2, [r3, #65]	; 0x41
    hi2c->PreviousState = I2C_STATE_SLAVE_BUSY_RX;
 8003294:	687b      	ldr	r3, [r7, #4]
 8003296:	2222      	movs	r2, #34	; 0x22
 8003298:	631a      	str	r2, [r3, #48]	; 0x30
    I2C_Disable_IRQ(hi2c, I2C_XFER_RX_IT);
 800329a:	2102      	movs	r1, #2
 800329c:	6878      	ldr	r0, [r7, #4]
 800329e:	f000 fc9b 	bl	8003bd8 <I2C_Disable_IRQ>
    __HAL_UNLOCK(hi2c);
 80032a2:	687b      	ldr	r3, [r7, #4]
 80032a4:	2200      	movs	r2, #0
 80032a6:	f883 2040 	strb.w	r2, [r3, #64]	; 0x40
    HAL_I2C_SlaveRxCpltCallback(hi2c);
 80032aa:	6878      	ldr	r0, [r7, #4]
 80032ac:	f7ff f995 	bl	80025da <HAL_I2C_SlaveRxCpltCallback>
}
 80032b0:	bf00      	nop
 80032b2:	3710      	adds	r7, #16
 80032b4:	46bd      	mov	sp, r7
 80032b6:	bd80      	pop	{r7, pc}

080032b8 <I2C_ITMasterCplt>:
  * @param  hi2c I2C handle.
  * @param  ITFlags Interrupt flags to handle.
  * @retval None
  */
static void I2C_ITMasterCplt(I2C_HandleTypeDef *hi2c, uint32_t ITFlags)
{
 80032b8:	b580      	push	{r7, lr}
 80032ba:	b086      	sub	sp, #24
 80032bc:	af00      	add	r7, sp, #0
 80032be:	6078      	str	r0, [r7, #4]
 80032c0:	6039      	str	r1, [r7, #0]
  uint32_t tmperror;
  uint32_t tmpITFlags = ITFlags;
 80032c2:	683b      	ldr	r3, [r7, #0]
 80032c4:	617b      	str	r3, [r7, #20]
  __IO uint32_t tmpreg;

  /* Clear STOP Flag */
  __HAL_I2C_CLEAR_FLAG(hi2c, I2C_FLAG_STOPF);
 80032c6:	687b      	ldr	r3, [r7, #4]
 80032c8:	681b      	ldr	r3, [r3, #0]
 80032ca:	2220      	movs	r2, #32
 80032cc:	61da      	str	r2, [r3, #28]

  /* Disable Interrupts and Store Previous state */
  if (hi2c->State == HAL_I2C_STATE_BUSY_TX)
 80032ce:	687b      	ldr	r3, [r7, #4]
 80032d0:	f893 3041 	ldrb.w	r3, [r3, #65]	; 0x41
 80032d4:	b2db      	uxtb	r3, r3
 80032d6:	2b21      	cmp	r3, #33	; 0x21
 80032d8:	d107      	bne.n	80032ea <I2C_ITMasterCplt+0x32>
  {
    I2C_Disable_IRQ(hi2c, I2C_XFER_TX_IT);
 80032da:	2101      	movs	r1, #1
 80032dc:	6878      	ldr	r0, [r7, #4]
 80032de:	f000 fc7b 	bl	8003bd8 <I2C_Disable_IRQ>
    hi2c->PreviousState = I2C_STATE_MASTER_BUSY_TX;
 80032e2:	687b      	ldr	r3, [r7, #4]
 80032e4:	2211      	movs	r2, #17
 80032e6:	631a      	str	r2, [r3, #48]	; 0x30
 80032e8:	e00c      	b.n	8003304 <I2C_ITMasterCplt+0x4c>
  }
  else if (hi2c->State == HAL_I2C_STATE_BUSY_RX)
 80032ea:	687b      	ldr	r3, [r7, #4]
 80032ec:	f893 3041 	ldrb.w	r3, [r3, #65]	; 0x41
 80032f0:	b2db      	uxtb	r3, r3
 80032f2:	2b22      	cmp	r3, #34	; 0x22
 80032f4:	d106      	bne.n	8003304 <I2C_ITMasterCplt+0x4c>
  {
    I2C_Disable_IRQ(hi2c, I2C_XFER_RX_IT);
 80032f6:	2102      	movs	r1, #2
 80032f8:	6878      	ldr	r0, [r7, #4]
 80032fa:	f000 fc6d 	bl	8003bd8 <I2C_Disable_IRQ>
    hi2c->PreviousState = I2C_STATE_MASTER_BUSY_RX;
 80032fe:	687b      	ldr	r3, [r7, #4]
 8003300:	2212      	movs	r2, #18
 8003302:	631a      	str	r2, [r3, #48]	; 0x30
  {
    /* Do nothing */
  }

  /* Clear Configuration Register 2 */
  I2C_RESET_CR2(hi2c);
 8003304:	687b      	ldr	r3, [r7, #4]
 8003306:	681b      	ldr	r3, [r3, #0]
 8003308:	6859      	ldr	r1, [r3, #4]
 800330a:	687b      	ldr	r3, [r7, #4]
 800330c:	681a      	ldr	r2, [r3, #0]
 800330e:	4b4c      	ldr	r3, [pc, #304]	; (8003440 <I2C_ITMasterCplt+0x188>)
 8003310:	400b      	ands	r3, r1
 8003312:	6053      	str	r3, [r2, #4]

  /* Reset handle parameters */
  hi2c->XferISR       = NULL;
 8003314:	687b      	ldr	r3, [r7, #4]
 8003316:	2200      	movs	r2, #0
 8003318:	635a      	str	r2, [r3, #52]	; 0x34
  hi2c->XferOptions   = I2C_NO_OPTION_FRAME;
 800331a:	687b      	ldr	r3, [r7, #4]
 800331c:	4a49      	ldr	r2, [pc, #292]	; (8003444 <I2C_ITMasterCplt+0x18c>)
 800331e:	62da      	str	r2, [r3, #44]	; 0x2c

  if (I2C_CHECK_FLAG(tmpITFlags, I2C_FLAG_AF) != RESET)
 8003320:	697b      	ldr	r3, [r7, #20]
 8003322:	f003 0310 	and.w	r3, r3, #16
 8003326:	2b00      	cmp	r3, #0
 8003328:	d009      	beq.n	800333e <I2C_ITMasterCplt+0x86>
  {
    /* Clear NACK Flag */
    __HAL_I2C_CLEAR_FLAG(hi2c, I2C_FLAG_AF);
 800332a:	687b      	ldr	r3, [r7, #4]
 800332c:	681b      	ldr	r3, [r3, #0]
 800332e:	2210      	movs	r2, #16
 8003330:	61da      	str	r2, [r3, #28]

    /* Set acknowledge error code */
    hi2c->ErrorCode |= HAL_I2C_ERROR_AF;
 8003332:	687b      	ldr	r3, [r7, #4]
 8003334:	6c5b      	ldr	r3, [r3, #68]	; 0x44
 8003336:	f043 0204 	orr.w	r2, r3, #4
 800333a:	687b      	ldr	r3, [r7, #4]
 800333c:	645a      	str	r2, [r3, #68]	; 0x44
  }

  /* Fetch Last receive data if any */
  if ((hi2c->State == HAL_I2C_STATE_ABORT) && (I2C_CHECK_FLAG(tmpITFlags, I2C_FLAG_RXNE) != RESET))
 800333e:	687b      	ldr	r3, [r7, #4]
 8003340:	f893 3041 	ldrb.w	r3, [r3, #65]	; 0x41
 8003344:	b2db      	uxtb	r3, r3
 8003346:	2b60      	cmp	r3, #96	; 0x60
 8003348:	d10a      	bne.n	8003360 <I2C_ITMasterCplt+0xa8>
 800334a:	697b      	ldr	r3, [r7, #20]
 800334c:	f003 0304 	and.w	r3, r3, #4
 8003350:	2b00      	cmp	r3, #0
 8003352:	d005      	beq.n	8003360 <I2C_ITMasterCplt+0xa8>
  {
    /* Read data from RXDR */
    tmpreg = (uint8_t)hi2c->Instance->RXDR;
 8003354:	687b      	ldr	r3, [r7, #4]
 8003356:	681b      	ldr	r3, [r3, #0]
 8003358:	6a5b      	ldr	r3, [r3, #36]	; 0x24
 800335a:	b2db      	uxtb	r3, r3
 800335c:	60fb      	str	r3, [r7, #12]
    UNUSED(tmpreg);
 800335e:	68fb      	ldr	r3, [r7, #12]
  }

  /* Flush TX register */
  I2C_Flush_TXDR(hi2c);
 8003360:	6878      	ldr	r0, [r7, #4]
 8003362:	f000 fb40 	bl	80039e6 <I2C_Flush_TXDR>

  /* Store current volatile hi2c->ErrorCode, misra rule */
  tmperror = hi2c->ErrorCode;
 8003366:	687b      	ldr	r3, [r7, #4]
 8003368:	6c5b      	ldr	r3, [r3, #68]	; 0x44
 800336a:	613b      	str	r3, [r7, #16]

  /* Call the corresponding callback to inform upper layer of End of Transfer */
  if ((hi2c->State == HAL_I2C_STATE_ABORT) || (tmperror != HAL_I2C_ERROR_NONE))
 800336c:	687b      	ldr	r3, [r7, #4]
 800336e:	f893 3041 	ldrb.w	r3, [r3, #65]	; 0x41
 8003372:	b2db      	uxtb	r3, r3
 8003374:	2b60      	cmp	r3, #96	; 0x60
 8003376:	d002      	beq.n	800337e <I2C_ITMasterCplt+0xc6>
 8003378:	693b      	ldr	r3, [r7, #16]
 800337a:	2b00      	cmp	r3, #0
 800337c:	d006      	beq.n	800338c <I2C_ITMasterCplt+0xd4>
  {
    /* Call the corresponding callback to inform upper layer of End of Transfer */
    I2C_ITError(hi2c, hi2c->ErrorCode);
 800337e:	687b      	ldr	r3, [r7, #4]
 8003380:	6c5b      	ldr	r3, [r3, #68]	; 0x44
 8003382:	4619      	mov	r1, r3
 8003384:	6878      	ldr	r0, [r7, #4]
 8003386:	f000 fa17 	bl	80037b8 <I2C_ITError>
  }
  else
  {
    /* Nothing to do */
  }
}
 800338a:	e054      	b.n	8003436 <I2C_ITMasterCplt+0x17e>
  else if (hi2c->State == HAL_I2C_STATE_BUSY_TX)
 800338c:	687b      	ldr	r3, [r7, #4]
 800338e:	f893 3041 	ldrb.w	r3, [r3, #65]	; 0x41
 8003392:	b2db      	uxtb	r3, r3
 8003394:	2b21      	cmp	r3, #33	; 0x21
 8003396:	d124      	bne.n	80033e2 <I2C_ITMasterCplt+0x12a>
    hi2c->State = HAL_I2C_STATE_READY;
 8003398:	687b      	ldr	r3, [r7, #4]
 800339a:	2220      	movs	r2, #32
 800339c:	f883 2041 	strb.w	r2, [r3, #65]	; 0x41
    hi2c->PreviousState = I2C_STATE_NONE;
 80033a0:	687b      	ldr	r3, [r7, #4]
 80033a2:	2200      	movs	r2, #0
 80033a4:	631a      	str	r2, [r3, #48]	; 0x30
    if (hi2c->Mode == HAL_I2C_MODE_MEM)
 80033a6:	687b      	ldr	r3, [r7, #4]
 80033a8:	f893 3042 	ldrb.w	r3, [r3, #66]	; 0x42
 80033ac:	b2db      	uxtb	r3, r3
 80033ae:	2b40      	cmp	r3, #64	; 0x40
 80033b0:	d10b      	bne.n	80033ca <I2C_ITMasterCplt+0x112>
      hi2c->Mode = HAL_I2C_MODE_NONE;
 80033b2:	687b      	ldr	r3, [r7, #4]
 80033b4:	2200      	movs	r2, #0
 80033b6:	f883 2042 	strb.w	r2, [r3, #66]	; 0x42
      __HAL_UNLOCK(hi2c);
 80033ba:	687b      	ldr	r3, [r7, #4]
 80033bc:	2200      	movs	r2, #0
 80033be:	f883 2040 	strb.w	r2, [r3, #64]	; 0x40
      HAL_I2C_MemTxCpltCallback(hi2c);
 80033c2:	6878      	ldr	r0, [r7, #4]
 80033c4:	f7ff f92b 	bl	800261e <HAL_I2C_MemTxCpltCallback>
}
 80033c8:	e035      	b.n	8003436 <I2C_ITMasterCplt+0x17e>
      hi2c->Mode = HAL_I2C_MODE_NONE;
 80033ca:	687b      	ldr	r3, [r7, #4]
 80033cc:	2200      	movs	r2, #0
 80033ce:	f883 2042 	strb.w	r2, [r3, #66]	; 0x42
      __HAL_UNLOCK(hi2c);
 80033d2:	687b      	ldr	r3, [r7, #4]
 80033d4:	2200      	movs	r2, #0
 80033d6:	f883 2040 	strb.w	r2, [r3, #64]	; 0x40
      HAL_I2C_MasterTxCpltCallback(hi2c);
 80033da:	6878      	ldr	r0, [r7, #4]
 80033dc:	f7ff f8df 	bl	800259e <HAL_I2C_MasterTxCpltCallback>
}
 80033e0:	e029      	b.n	8003436 <I2C_ITMasterCplt+0x17e>
  else if (hi2c->State == HAL_I2C_STATE_BUSY_RX)
 80033e2:	687b      	ldr	r3, [r7, #4]
 80033e4:	f893 3041 	ldrb.w	r3, [r3, #65]	; 0x41
 80033e8:	b2db      	uxtb	r3, r3
 80033ea:	2b22      	cmp	r3, #34	; 0x22
 80033ec:	d123      	bne.n	8003436 <I2C_ITMasterCplt+0x17e>
    hi2c->State = HAL_I2C_STATE_READY;
 80033ee:	687b      	ldr	r3, [r7, #4]
 80033f0:	2220      	movs	r2, #32
 80033f2:	f883 2041 	strb.w	r2, [r3, #65]	; 0x41
    hi2c->PreviousState = I2C_STATE_NONE;
 80033f6:	687b      	ldr	r3, [r7, #4]
 80033f8:	2200      	movs	r2, #0
 80033fa:	631a      	str	r2, [r3, #48]	; 0x30
    if (hi2c->Mode == HAL_I2C_MODE_MEM)
 80033fc:	687b      	ldr	r3, [r7, #4]
 80033fe:	f893 3042 	ldrb.w	r3, [r3, #66]	; 0x42
 8003402:	b2db      	uxtb	r3, r3
 8003404:	2b40      	cmp	r3, #64	; 0x40
 8003406:	d10b      	bne.n	8003420 <I2C_ITMasterCplt+0x168>
      hi2c->Mode = HAL_I2C_MODE_NONE;
 8003408:	687b      	ldr	r3, [r7, #4]
 800340a:	2200      	movs	r2, #0
 800340c:	f883 2042 	strb.w	r2, [r3, #66]	; 0x42
      __HAL_UNLOCK(hi2c);
 8003410:	687b      	ldr	r3, [r7, #4]
 8003412:	2200      	movs	r2, #0
 8003414:	f883 2040 	strb.w	r2, [r3, #64]	; 0x40
      HAL_I2C_MemRxCpltCallback(hi2c);
 8003418:	6878      	ldr	r0, [r7, #4]
 800341a:	f7ff f90a 	bl	8002632 <HAL_I2C_MemRxCpltCallback>
}
 800341e:	e00a      	b.n	8003436 <I2C_ITMasterCplt+0x17e>
      hi2c->Mode = HAL_I2C_MODE_NONE;
 8003420:	687b      	ldr	r3, [r7, #4]
 8003422:	2200      	movs	r2, #0
 8003424:	f883 2042 	strb.w	r2, [r3, #66]	; 0x42
      __HAL_UNLOCK(hi2c);
 8003428:	687b      	ldr	r3, [r7, #4]
 800342a:	2200      	movs	r2, #0
 800342c:	f883 2040 	strb.w	r2, [r3, #64]	; 0x40
      HAL_I2C_MasterRxCpltCallback(hi2c);
 8003430:	6878      	ldr	r0, [r7, #4]
 8003432:	f7ff f8be 	bl	80025b2 <HAL_I2C_MasterRxCpltCallback>
}
 8003436:	bf00      	nop
 8003438:	3718      	adds	r7, #24
 800343a:	46bd      	mov	sp, r7
 800343c:	bd80      	pop	{r7, pc}
 800343e:	bf00      	nop
 8003440:	fe00e800 	.word	0xfe00e800
 8003444:	ffff0000 	.word	0xffff0000

08003448 <I2C_ITSlaveCplt>:
  * @param  hi2c I2C handle.
  * @param  ITFlags Interrupt flags to handle.
  * @retval None
  */
static void I2C_ITSlaveCplt(I2C_HandleTypeDef *hi2c, uint32_t ITFlags)
{
 8003448:	b580      	push	{r7, lr}
 800344a:	b086      	sub	sp, #24
 800344c:	af00      	add	r7, sp, #0
 800344e:	6078      	str	r0, [r7, #4]
 8003450:	6039      	str	r1, [r7, #0]
  uint32_t tmpcr1value = READ_REG(hi2c->Instance->CR1);
 8003452:	687b      	ldr	r3, [r7, #4]
 8003454:	681b      	ldr	r3, [r3, #0]
 8003456:	681b      	ldr	r3, [r3, #0]
 8003458:	613b      	str	r3, [r7, #16]
  uint32_t tmpITFlags = ITFlags;
 800345a:	683b      	ldr	r3, [r7, #0]
 800345c:	617b      	str	r3, [r7, #20]
  uint32_t tmpoptions = hi2c->XferOptions;
 800345e:	687b      	ldr	r3, [r7, #4]
 8003460:	6adb      	ldr	r3, [r3, #44]	; 0x2c
 8003462:	60fb      	str	r3, [r7, #12]
  HAL_I2C_StateTypeDef tmpstate = hi2c->State;
 8003464:	687b      	ldr	r3, [r7, #4]
 8003466:	f893 3041 	ldrb.w	r3, [r3, #65]	; 0x41
 800346a:	72fb      	strb	r3, [r7, #11]

  /* Clear STOP Flag */
  __HAL_I2C_CLEAR_FLAG(hi2c, I2C_FLAG_STOPF);
 800346c:	687b      	ldr	r3, [r7, #4]
 800346e:	681b      	ldr	r3, [r3, #0]
 8003470:	2220      	movs	r2, #32
 8003472:	61da      	str	r2, [r3, #28]

  /* Disable Interrupts and Store Previous state */
  if ((tmpstate == HAL_I2C_STATE_BUSY_TX) || (tmpstate == HAL_I2C_STATE_BUSY_TX_LISTEN))
 8003474:	7afb      	ldrb	r3, [r7, #11]
 8003476:	2b21      	cmp	r3, #33	; 0x21
 8003478:	d002      	beq.n	8003480 <I2C_ITSlaveCplt+0x38>
 800347a:	7afb      	ldrb	r3, [r7, #11]
 800347c:	2b29      	cmp	r3, #41	; 0x29
 800347e:	d108      	bne.n	8003492 <I2C_ITSlaveCplt+0x4a>
  {
    I2C_Disable_IRQ(hi2c, I2C_XFER_LISTEN_IT | I2C_XFER_TX_IT);
 8003480:	f248 0101 	movw	r1, #32769	; 0x8001
 8003484:	6878      	ldr	r0, [r7, #4]
 8003486:	f000 fba7 	bl	8003bd8 <I2C_Disable_IRQ>
    hi2c->PreviousState = I2C_STATE_SLAVE_BUSY_TX;
 800348a:	687b      	ldr	r3, [r7, #4]
 800348c:	2221      	movs	r2, #33	; 0x21
 800348e:	631a      	str	r2, [r3, #48]	; 0x30
 8003490:	e019      	b.n	80034c6 <I2C_ITSlaveCplt+0x7e>
  }
  else if ((tmpstate == HAL_I2C_STATE_BUSY_RX) || (tmpstate == HAL_I2C_STATE_BUSY_RX_LISTEN))
 8003492:	7afb      	ldrb	r3, [r7, #11]
 8003494:	2b22      	cmp	r3, #34	; 0x22
 8003496:	d002      	beq.n	800349e <I2C_ITSlaveCplt+0x56>
 8003498:	7afb      	ldrb	r3, [r7, #11]
 800349a:	2b2a      	cmp	r3, #42	; 0x2a
 800349c:	d108      	bne.n	80034b0 <I2C_ITSlaveCplt+0x68>
  {
    I2C_Disable_IRQ(hi2c, I2C_XFER_LISTEN_IT | I2C_XFER_RX_IT);
 800349e:	f248 0102 	movw	r1, #32770	; 0x8002
 80034a2:	6878      	ldr	r0, [r7, #4]
 80034a4:	f000 fb98 	bl	8003bd8 <I2C_Disable_IRQ>
    hi2c->PreviousState = I2C_STATE_SLAVE_BUSY_RX;
 80034a8:	687b      	ldr	r3, [r7, #4]
 80034aa:	2222      	movs	r2, #34	; 0x22
 80034ac:	631a      	str	r2, [r3, #48]	; 0x30
 80034ae:	e00a      	b.n	80034c6 <I2C_ITSlaveCplt+0x7e>
  }
  else if (tmpstate == HAL_I2C_STATE_LISTEN)
 80034b0:	7afb      	ldrb	r3, [r7, #11]
 80034b2:	2b28      	cmp	r3, #40	; 0x28
 80034b4:	d107      	bne.n	80034c6 <I2C_ITSlaveCplt+0x7e>
  {
    I2C_Disable_IRQ(hi2c, I2C_XFER_LISTEN_IT | I2C_XFER_TX_IT | I2C_XFER_RX_IT);
 80034b6:	f248 0103 	movw	r1, #32771	; 0x8003
 80034ba:	6878      	ldr	r0, [r7, #4]
 80034bc:	f000 fb8c 	bl	8003bd8 <I2C_Disable_IRQ>
    hi2c->PreviousState = I2C_STATE_NONE;
 80034c0:	687b      	ldr	r3, [r7, #4]
 80034c2:	2200      	movs	r2, #0
 80034c4:	631a      	str	r2, [r3, #48]	; 0x30
  {
    /* Do nothing */
  }

  /* Disable Address Acknowledge */
  hi2c->Instance->CR2 |= I2C_CR2_NACK;
 80034c6:	687b      	ldr	r3, [r7, #4]
 80034c8:	681b      	ldr	r3, [r3, #0]
 80034ca:	685a      	ldr	r2, [r3, #4]
 80034cc:	687b      	ldr	r3, [r7, #4]
 80034ce:	681b      	ldr	r3, [r3, #0]
 80034d0:	f442 4200 	orr.w	r2, r2, #32768	; 0x8000
 80034d4:	605a      	str	r2, [r3, #4]

  /* Clear Configuration Register 2 */
  I2C_RESET_CR2(hi2c);
 80034d6:	687b      	ldr	r3, [r7, #4]
 80034d8:	681b      	ldr	r3, [r3, #0]
 80034da:	6859      	ldr	r1, [r3, #4]
 80034dc:	687b      	ldr	r3, [r7, #4]
 80034de:	681a      	ldr	r2, [r3, #0]
 80034e0:	4b89      	ldr	r3, [pc, #548]	; (8003708 <I2C_ITSlaveCplt+0x2c0>)
 80034e2:	400b      	ands	r3, r1
 80034e4:	6053      	str	r3, [r2, #4]

  /* Flush TX register */
  I2C_Flush_TXDR(hi2c);
 80034e6:	6878      	ldr	r0, [r7, #4]
 80034e8:	f000 fa7d 	bl	80039e6 <I2C_Flush_TXDR>

  /* If a DMA is ongoing, Update handle size context */
  if (I2C_CHECK_IT_SOURCE(tmpcr1value, I2C_CR1_TXDMAEN) != RESET)
 80034ec:	693b      	ldr	r3, [r7, #16]
 80034ee:	f403 4380 	and.w	r3, r3, #16384	; 0x4000
 80034f2:	2b00      	cmp	r3, #0
 80034f4:	d013      	beq.n	800351e <I2C_ITSlaveCplt+0xd6>
  {
    /* Disable DMA Request */
    hi2c->Instance->CR1 &= ~I2C_CR1_TXDMAEN;
 80034f6:	687b      	ldr	r3, [r7, #4]
 80034f8:	681b      	ldr	r3, [r3, #0]
 80034fa:	681a      	ldr	r2, [r3, #0]
 80034fc:	687b      	ldr	r3, [r7, #4]
 80034fe:	681b      	ldr	r3, [r3, #0]
 8003500:	f422 4280 	bic.w	r2, r2, #16384	; 0x4000
 8003504:	601a      	str	r2, [r3, #0]

    if (hi2c->hdmatx != NULL)
 8003506:	687b      	ldr	r3, [r7, #4]
 8003508:	6b9b      	ldr	r3, [r3, #56]	; 0x38
 800350a:	2b00      	cmp	r3, #0
 800350c:	d01f      	beq.n	800354e <I2C_ITSlaveCplt+0x106>
    {
      hi2c->XferCount = (uint16_t)I2C_GET_DMA_REMAIN_DATA(hi2c->hdmatx);
 800350e:	687b      	ldr	r3, [r7, #4]
 8003510:	6b9b      	ldr	r3, [r3, #56]	; 0x38
 8003512:	681b      	ldr	r3, [r3, #0]
 8003514:	685b      	ldr	r3, [r3, #4]
 8003516:	b29a      	uxth	r2, r3
 8003518:	687b      	ldr	r3, [r7, #4]
 800351a:	855a      	strh	r2, [r3, #42]	; 0x2a
 800351c:	e017      	b.n	800354e <I2C_ITSlaveCplt+0x106>
    }
  }
  else if (I2C_CHECK_IT_SOURCE(tmpcr1value, I2C_CR1_RXDMAEN) != RESET)
 800351e:	693b      	ldr	r3, [r7, #16]
 8003520:	f403 4300 	and.w	r3, r3, #32768	; 0x8000
 8003524:	2b00      	cmp	r3, #0
 8003526:	d012      	beq.n	800354e <I2C_ITSlaveCplt+0x106>
  {
    /* Disable DMA Request */
    hi2c->Instance->CR1 &= ~I2C_CR1_RXDMAEN;
 8003528:	687b      	ldr	r3, [r7, #4]
 800352a:	681b      	ldr	r3, [r3, #0]
 800352c:	681a      	ldr	r2, [r3, #0]
 800352e:	687b      	ldr	r3, [r7, #4]
 8003530:	681b      	ldr	r3, [r3, #0]
 8003532:	f422 4200 	bic.w	r2, r2, #32768	; 0x8000
 8003536:	601a      	str	r2, [r3, #0]

    if (hi2c->hdmarx != NULL)
 8003538:	687b      	ldr	r3, [r7, #4]
 800353a:	6bdb      	ldr	r3, [r3, #60]	; 0x3c
 800353c:	2b00      	cmp	r3, #0
 800353e:	d006      	beq.n	800354e <I2C_ITSlaveCplt+0x106>
    {
      hi2c->XferCount = (uint16_t)I2C_GET_DMA_REMAIN_DATA(hi2c->hdmarx);
 8003540:	687b      	ldr	r3, [r7, #4]
 8003542:	6bdb      	ldr	r3, [r3, #60]	; 0x3c
 8003544:	681b      	ldr	r3, [r3, #0]
 8003546:	685b      	ldr	r3, [r3, #4]
 8003548:	b29a      	uxth	r2, r3
 800354a:	687b      	ldr	r3, [r7, #4]
 800354c:	855a      	strh	r2, [r3, #42]	; 0x2a
  {
    /* Do nothing */
  }

  /* Store Last receive data if any */
  if (I2C_CHECK_FLAG(tmpITFlags, I2C_FLAG_RXNE) != RESET)
 800354e:	697b      	ldr	r3, [r7, #20]
 8003550:	f003 0304 	and.w	r3, r3, #4
 8003554:	2b00      	cmp	r3, #0
 8003556:	d020      	beq.n	800359a <I2C_ITSlaveCplt+0x152>
  {
    /* Remove RXNE flag on temporary variable as read done */
    tmpITFlags &= ~I2C_FLAG_RXNE;
 8003558:	697b      	ldr	r3, [r7, #20]
 800355a:	f023 0304 	bic.w	r3, r3, #4
 800355e:	617b      	str	r3, [r7, #20]

    /* Read data from RXDR */
    *hi2c->pBuffPtr = (uint8_t)hi2c->Instance->RXDR;
 8003560:	687b      	ldr	r3, [r7, #4]
 8003562:	681b      	ldr	r3, [r3, #0]
 8003564:	6a5a      	ldr	r2, [r3, #36]	; 0x24
 8003566:	687b      	ldr	r3, [r7, #4]
 8003568:	6a5b      	ldr	r3, [r3, #36]	; 0x24
 800356a:	b2d2      	uxtb	r2, r2
 800356c:	701a      	strb	r2, [r3, #0]

    /* Increment Buffer pointer */
    hi2c->pBuffPtr++;
 800356e:	687b      	ldr	r3, [r7, #4]
 8003570:	6a5b      	ldr	r3, [r3, #36]	; 0x24
 8003572:	1c5a      	adds	r2, r3, #1
 8003574:	687b      	ldr	r3, [r7, #4]
 8003576:	625a      	str	r2, [r3, #36]	; 0x24

    if ((hi2c->XferSize > 0U))
 8003578:	687b      	ldr	r3, [r7, #4]
 800357a:	8d1b      	ldrh	r3, [r3, #40]	; 0x28
 800357c:	2b00      	cmp	r3, #0
 800357e:	d00c      	beq.n	800359a <I2C_ITSlaveCplt+0x152>
    {
      hi2c->XferSize--;
 8003580:	687b      	ldr	r3, [r7, #4]
 8003582:	8d1b      	ldrh	r3, [r3, #40]	; 0x28
 8003584:	3b01      	subs	r3, #1
 8003586:	b29a      	uxth	r2, r3
 8003588:	687b      	ldr	r3, [r7, #4]
 800358a:	851a      	strh	r2, [r3, #40]	; 0x28
      hi2c->XferCount--;
 800358c:	687b      	ldr	r3, [r7, #4]
 800358e:	8d5b      	ldrh	r3, [r3, #42]	; 0x2a
 8003590:	b29b      	uxth	r3, r3
 8003592:	3b01      	subs	r3, #1
 8003594:	b29a      	uxth	r2, r3
 8003596:	687b      	ldr	r3, [r7, #4]
 8003598:	855a      	strh	r2, [r3, #42]	; 0x2a
    }
  }

  /* All data are not transferred, so set error code accordingly */
  if (hi2c->XferCount != 0U)
 800359a:	687b      	ldr	r3, [r7, #4]
 800359c:	8d5b      	ldrh	r3, [r3, #42]	; 0x2a
 800359e:	b29b      	uxth	r3, r3
 80035a0:	2b00      	cmp	r3, #0
 80035a2:	d005      	beq.n	80035b0 <I2C_ITSlaveCplt+0x168>
  {
    /* Set ErrorCode corresponding to a Non-Acknowledge */
    hi2c->ErrorCode |= HAL_I2C_ERROR_AF;
 80035a4:	687b      	ldr	r3, [r7, #4]
 80035a6:	6c5b      	ldr	r3, [r3, #68]	; 0x44
 80035a8:	f043 0204 	orr.w	r2, r3, #4
 80035ac:	687b      	ldr	r3, [r7, #4]
 80035ae:	645a      	str	r2, [r3, #68]	; 0x44
  }

  if ((I2C_CHECK_FLAG(tmpITFlags, I2C_FLAG_AF) != RESET) && \
 80035b0:	697b      	ldr	r3, [r7, #20]
 80035b2:	f003 0310 	and.w	r3, r3, #16
 80035b6:	2b00      	cmp	r3, #0
 80035b8:	d049      	beq.n	800364e <I2C_ITSlaveCplt+0x206>
      (I2C_CHECK_IT_SOURCE(tmpcr1value, I2C_IT_NACKI) != RESET))
 80035ba:	693b      	ldr	r3, [r7, #16]
 80035bc:	f003 0310 	and.w	r3, r3, #16
  if ((I2C_CHECK_FLAG(tmpITFlags, I2C_FLAG_AF) != RESET) && \
 80035c0:	2b00      	cmp	r3, #0
 80035c2:	d044      	beq.n	800364e <I2C_ITSlaveCplt+0x206>
  {
    /* Check that I2C transfer finished */
    /* if yes, normal use case, a NACK is sent by the MASTER when Transfer is finished */
    /* Mean XferCount == 0*/
    /* So clear Flag NACKF only */
    if (hi2c->XferCount == 0U)
 80035c4:	687b      	ldr	r3, [r7, #4]
 80035c6:	8d5b      	ldrh	r3, [r3, #42]	; 0x2a
 80035c8:	b29b      	uxth	r3, r3
 80035ca:	2b00      	cmp	r3, #0
 80035cc:	d128      	bne.n	8003620 <I2C_ITSlaveCplt+0x1d8>
    {
      if ((hi2c->State == HAL_I2C_STATE_LISTEN) && (tmpoptions == I2C_FIRST_AND_LAST_FRAME))
 80035ce:	687b      	ldr	r3, [r7, #4]
 80035d0:	f893 3041 	ldrb.w	r3, [r3, #65]	; 0x41
 80035d4:	b2db      	uxtb	r3, r3
 80035d6:	2b28      	cmp	r3, #40	; 0x28
 80035d8:	d108      	bne.n	80035ec <I2C_ITSlaveCplt+0x1a4>
 80035da:	68fb      	ldr	r3, [r7, #12]
 80035dc:	f1b3 7f00 	cmp.w	r3, #33554432	; 0x2000000
 80035e0:	d104      	bne.n	80035ec <I2C_ITSlaveCplt+0x1a4>
        /* Same action must be done for (tmpoptions == I2C_LAST_FRAME) which removed for
           Warning[Pa134]: left and right operands are identical */
      {
        /* Call I2C Listen complete process */
        I2C_ITListenCplt(hi2c, tmpITFlags);
 80035e2:	6979      	ldr	r1, [r7, #20]
 80035e4:	6878      	ldr	r0, [r7, #4]
 80035e6:	f000 f893 	bl	8003710 <I2C_ITListenCplt>
 80035ea:	e030      	b.n	800364e <I2C_ITSlaveCplt+0x206>
      }
      else if ((hi2c->State == HAL_I2C_STATE_BUSY_TX_LISTEN) && (tmpoptions != I2C_NO_OPTION_FRAME))
 80035ec:	687b      	ldr	r3, [r7, #4]
 80035ee:	f893 3041 	ldrb.w	r3, [r3, #65]	; 0x41
 80035f2:	b2db      	uxtb	r3, r3
 80035f4:	2b29      	cmp	r3, #41	; 0x29
 80035f6:	d10e      	bne.n	8003616 <I2C_ITSlaveCplt+0x1ce>
 80035f8:	68fb      	ldr	r3, [r7, #12]
 80035fa:	f513 3f80 	cmn.w	r3, #65536	; 0x10000
 80035fe:	d00a      	beq.n	8003616 <I2C_ITSlaveCplt+0x1ce>
      {
        /* Clear NACK Flag */
        __HAL_I2C_CLEAR_FLAG(hi2c, I2C_FLAG_AF);
 8003600:	687b      	ldr	r3, [r7, #4]
 8003602:	681b      	ldr	r3, [r3, #0]
 8003604:	2210      	movs	r2, #16
 8003606:	61da      	str	r2, [r3, #28]

        /* Flush TX register */
        I2C_Flush_TXDR(hi2c);
 8003608:	6878      	ldr	r0, [r7, #4]
 800360a:	f000 f9ec 	bl	80039e6 <I2C_Flush_TXDR>

        /* Last Byte is Transmitted */
        /* Call I2C Slave Sequential complete process */
        I2C_ITSlaveSeqCplt(hi2c);
 800360e:	6878      	ldr	r0, [r7, #4]
 8003610:	f7ff fdf6 	bl	8003200 <I2C_ITSlaveSeqCplt>
 8003614:	e01b      	b.n	800364e <I2C_ITSlaveCplt+0x206>
      }
      else
      {
        /* Clear NACK Flag */
        __HAL_I2C_CLEAR_FLAG(hi2c, I2C_FLAG_AF);
 8003616:	687b      	ldr	r3, [r7, #4]
 8003618:	681b      	ldr	r3, [r3, #0]
 800361a:	2210      	movs	r2, #16
 800361c:	61da      	str	r2, [r3, #28]
 800361e:	e016      	b.n	800364e <I2C_ITSlaveCplt+0x206>
    }
    else
    {
      /* if no, error use case, a Non-Acknowledge of last Data is generated by the MASTER*/
      /* Clear NACK Flag */
      __HAL_I2C_CLEAR_FLAG(hi2c, I2C_FLAG_AF);
 8003620:	687b      	ldr	r3, [r7, #4]
 8003622:	681b      	ldr	r3, [r3, #0]
 8003624:	2210      	movs	r2, #16
 8003626:	61da      	str	r2, [r3, #28]

      /* Set ErrorCode corresponding to a Non-Acknowledge */
      hi2c->ErrorCode |= HAL_I2C_ERROR_AF;
 8003628:	687b      	ldr	r3, [r7, #4]
 800362a:	6c5b      	ldr	r3, [r3, #68]	; 0x44
 800362c:	f043 0204 	orr.w	r2, r3, #4
 8003630:	687b      	ldr	r3, [r7, #4]
 8003632:	645a      	str	r2, [r3, #68]	; 0x44

      if ((tmpoptions == I2C_FIRST_FRAME) || (tmpoptions == I2C_NEXT_FRAME))
 8003634:	68fb      	ldr	r3, [r7, #12]
 8003636:	2b00      	cmp	r3, #0
 8003638:	d003      	beq.n	8003642 <I2C_ITSlaveCplt+0x1fa>
 800363a:	68fb      	ldr	r3, [r7, #12]
 800363c:	f1b3 7f80 	cmp.w	r3, #16777216	; 0x1000000
 8003640:	d105      	bne.n	800364e <I2C_ITSlaveCplt+0x206>
      {
        /* Call the corresponding callback to inform upper layer of End of Transfer */
        I2C_ITError(hi2c, hi2c->ErrorCode);
 8003642:	687b      	ldr	r3, [r7, #4]
 8003644:	6c5b      	ldr	r3, [r3, #68]	; 0x44
 8003646:	4619      	mov	r1, r3
 8003648:	6878      	ldr	r0, [r7, #4]
 800364a:	f000 f8b5 	bl	80037b8 <I2C_ITError>
      }
    }
  }

  hi2c->Mode = HAL_I2C_MODE_NONE;
 800364e:	687b      	ldr	r3, [r7, #4]
 8003650:	2200      	movs	r2, #0
 8003652:	f883 2042 	strb.w	r2, [r3, #66]	; 0x42
  hi2c->XferISR = NULL;
 8003656:	687b      	ldr	r3, [r7, #4]
 8003658:	2200      	movs	r2, #0
 800365a:	635a      	str	r2, [r3, #52]	; 0x34

  if (hi2c->ErrorCode != HAL_I2C_ERROR_NONE)
 800365c:	687b      	ldr	r3, [r7, #4]
 800365e:	6c5b      	ldr	r3, [r3, #68]	; 0x44
 8003660:	2b00      	cmp	r3, #0
 8003662:	d010      	beq.n	8003686 <I2C_ITSlaveCplt+0x23e>
  {
    /* Call the corresponding callback to inform upper layer of End of Transfer */
    I2C_ITError(hi2c, hi2c->ErrorCode);
 8003664:	687b      	ldr	r3, [r7, #4]
 8003666:	6c5b      	ldr	r3, [r3, #68]	; 0x44
 8003668:	4619      	mov	r1, r3
 800366a:	6878      	ldr	r0, [r7, #4]
 800366c:	f000 f8a4 	bl	80037b8 <I2C_ITError>

    /* Call the Listen Complete callback, to inform upper layer of the end of Listen usecase */
    if (hi2c->State == HAL_I2C_STATE_LISTEN)
 8003670:	687b      	ldr	r3, [r7, #4]
 8003672:	f893 3041 	ldrb.w	r3, [r3, #65]	; 0x41
 8003676:	b2db      	uxtb	r3, r3
 8003678:	2b28      	cmp	r3, #40	; 0x28
 800367a:	d141      	bne.n	8003700 <I2C_ITSlaveCplt+0x2b8>
    {
      /* Call I2C Listen complete process */
      I2C_ITListenCplt(hi2c, tmpITFlags);
 800367c:	6979      	ldr	r1, [r7, #20]
 800367e:	6878      	ldr	r0, [r7, #4]
 8003680:	f000 f846 	bl	8003710 <I2C_ITListenCplt>
    hi2c->SlaveTxCpltCallback(hi2c);
#else
    HAL_I2C_SlaveTxCpltCallback(hi2c);
#endif /* USE_HAL_I2C_REGISTER_CALLBACKS */
  }
}
 8003684:	e03c      	b.n	8003700 <I2C_ITSlaveCplt+0x2b8>
  else if (hi2c->XferOptions != I2C_NO_OPTION_FRAME)
 8003686:	687b      	ldr	r3, [r7, #4]
 8003688:	6adb      	ldr	r3, [r3, #44]	; 0x2c
 800368a:	f513 3f80 	cmn.w	r3, #65536	; 0x10000
 800368e:	d014      	beq.n	80036ba <I2C_ITSlaveCplt+0x272>
    I2C_ITSlaveSeqCplt(hi2c);
 8003690:	6878      	ldr	r0, [r7, #4]
 8003692:	f7ff fdb5 	bl	8003200 <I2C_ITSlaveSeqCplt>
    hi2c->XferOptions = I2C_NO_OPTION_FRAME;
 8003696:	687b      	ldr	r3, [r7, #4]
 8003698:	4a1c      	ldr	r2, [pc, #112]	; (800370c <I2C_ITSlaveCplt+0x2c4>)
 800369a:	62da      	str	r2, [r3, #44]	; 0x2c
    hi2c->State = HAL_I2C_STATE_READY;
 800369c:	687b      	ldr	r3, [r7, #4]
 800369e:	2220      	movs	r2, #32
 80036a0:	f883 2041 	strb.w	r2, [r3, #65]	; 0x41
    hi2c->PreviousState = I2C_STATE_NONE;
 80036a4:	687b      	ldr	r3, [r7, #4]
 80036a6:	2200      	movs	r2, #0
 80036a8:	631a      	str	r2, [r3, #48]	; 0x30
    __HAL_UNLOCK(hi2c);
 80036aa:	687b      	ldr	r3, [r7, #4]
 80036ac:	2200      	movs	r2, #0
 80036ae:	f883 2040 	strb.w	r2, [r3, #64]	; 0x40
    HAL_I2C_ListenCpltCallback(hi2c);
 80036b2:	6878      	ldr	r0, [r7, #4]
 80036b4:	f7fe ffa9 	bl	800260a <HAL_I2C_ListenCpltCallback>
}
 80036b8:	e022      	b.n	8003700 <I2C_ITSlaveCplt+0x2b8>
  else if (hi2c->State == HAL_I2C_STATE_BUSY_RX)
 80036ba:	687b      	ldr	r3, [r7, #4]
 80036bc:	f893 3041 	ldrb.w	r3, [r3, #65]	; 0x41
 80036c0:	b2db      	uxtb	r3, r3
 80036c2:	2b22      	cmp	r3, #34	; 0x22
 80036c4:	d10e      	bne.n	80036e4 <I2C_ITSlaveCplt+0x29c>
    hi2c->State = HAL_I2C_STATE_READY;
 80036c6:	687b      	ldr	r3, [r7, #4]
 80036c8:	2220      	movs	r2, #32
 80036ca:	f883 2041 	strb.w	r2, [r3, #65]	; 0x41
    hi2c->PreviousState = I2C_STATE_NONE;
 80036ce:	687b      	ldr	r3, [r7, #4]
 80036d0:	2200      	movs	r2, #0
 80036d2:	631a      	str	r2, [r3, #48]	; 0x30
    __HAL_UNLOCK(hi2c);
 80036d4:	687b      	ldr	r3, [r7, #4]
 80036d6:	2200      	movs	r2, #0
 80036d8:	f883 2040 	strb.w	r2, [r3, #64]	; 0x40
    HAL_I2C_SlaveRxCpltCallback(hi2c);
 80036dc:	6878      	ldr	r0, [r7, #4]
 80036de:	f7fe ff7c 	bl	80025da <HAL_I2C_SlaveRxCpltCallback>
}
 80036e2:	e00d      	b.n	8003700 <I2C_ITSlaveCplt+0x2b8>
    hi2c->State = HAL_I2C_STATE_READY;
 80036e4:	687b      	ldr	r3, [r7, #4]
 80036e6:	2220      	movs	r2, #32
 80036e8:	f883 2041 	strb.w	r2, [r3, #65]	; 0x41
    hi2c->PreviousState = I2C_STATE_NONE;
 80036ec:	687b      	ldr	r3, [r7, #4]
 80036ee:	2200      	movs	r2, #0
 80036f0:	631a      	str	r2, [r3, #48]	; 0x30
    __HAL_UNLOCK(hi2c);
 80036f2:	687b      	ldr	r3, [r7, #4]
 80036f4:	2200      	movs	r2, #0
 80036f6:	f883 2040 	strb.w	r2, [r3, #64]	; 0x40
    HAL_I2C_SlaveTxCpltCallback(hi2c);
 80036fa:	6878      	ldr	r0, [r7, #4]
 80036fc:	f7fe ff63 	bl	80025c6 <HAL_I2C_SlaveTxCpltCallback>
}
 8003700:	bf00      	nop
 8003702:	3718      	adds	r7, #24
 8003704:	46bd      	mov	sp, r7
 8003706:	bd80      	pop	{r7, pc}
 8003708:	fe00e800 	.word	0xfe00e800
 800370c:	ffff0000 	.word	0xffff0000

08003710 <I2C_ITListenCplt>:
  * @param  hi2c I2C handle.
  * @param  ITFlags Interrupt flags to handle.
  * @retval None
  */
static void I2C_ITListenCplt(I2C_HandleTypeDef *hi2c, uint32_t ITFlags)
{
 8003710:	b580      	push	{r7, lr}
 8003712:	b082      	sub	sp, #8
 8003714:	af00      	add	r7, sp, #0
 8003716:	6078      	str	r0, [r7, #4]
 8003718:	6039      	str	r1, [r7, #0]
  /* Reset handle parameters */
  hi2c->XferOptions = I2C_NO_OPTION_FRAME;
 800371a:	687b      	ldr	r3, [r7, #4]
 800371c:	4a25      	ldr	r2, [pc, #148]	; (80037b4 <I2C_ITListenCplt+0xa4>)
 800371e:	62da      	str	r2, [r3, #44]	; 0x2c
  hi2c->PreviousState = I2C_STATE_NONE;
 8003720:	687b      	ldr	r3, [r7, #4]
 8003722:	2200      	movs	r2, #0
 8003724:	631a      	str	r2, [r3, #48]	; 0x30
  hi2c->State = HAL_I2C_STATE_READY;
 8003726:	687b      	ldr	r3, [r7, #4]
 8003728:	2220      	movs	r2, #32
 800372a:	f883 2041 	strb.w	r2, [r3, #65]	; 0x41
  hi2c->Mode = HAL_I2C_MODE_NONE;
 800372e:	687b      	ldr	r3, [r7, #4]
 8003730:	2200      	movs	r2, #0
 8003732:	f883 2042 	strb.w	r2, [r3, #66]	; 0x42
  hi2c->XferISR = NULL;
 8003736:	687b      	ldr	r3, [r7, #4]
 8003738:	2200      	movs	r2, #0
 800373a:	635a      	str	r2, [r3, #52]	; 0x34

  /* Store Last receive data if any */
  if (I2C_CHECK_FLAG(ITFlags, I2C_FLAG_RXNE) != RESET)
 800373c:	683b      	ldr	r3, [r7, #0]
 800373e:	f003 0304 	and.w	r3, r3, #4
 8003742:	2b00      	cmp	r3, #0
 8003744:	d022      	beq.n	800378c <I2C_ITListenCplt+0x7c>
  {
    /* Read data from RXDR */
    *hi2c->pBuffPtr = (uint8_t)hi2c->Instance->RXDR;
 8003746:	687b      	ldr	r3, [r7, #4]
 8003748:	681b      	ldr	r3, [r3, #0]
 800374a:	6a5a      	ldr	r2, [r3, #36]	; 0x24
 800374c:	687b      	ldr	r3, [r7, #4]
 800374e:	6a5b      	ldr	r3, [r3, #36]	; 0x24
 8003750:	b2d2      	uxtb	r2, r2
 8003752:	701a      	strb	r2, [r3, #0]

    /* Increment Buffer pointer */
    hi2c->pBuffPtr++;
 8003754:	687b      	ldr	r3, [r7, #4]
 8003756:	6a5b      	ldr	r3, [r3, #36]	; 0x24
 8003758:	1c5a      	adds	r2, r3, #1
 800375a:	687b      	ldr	r3, [r7, #4]
 800375c:	625a      	str	r2, [r3, #36]	; 0x24

    if ((hi2c->XferSize > 0U))
 800375e:	687b      	ldr	r3, [r7, #4]
 8003760:	8d1b      	ldrh	r3, [r3, #40]	; 0x28
 8003762:	2b00      	cmp	r3, #0
 8003764:	d012      	beq.n	800378c <I2C_ITListenCplt+0x7c>
    {
      hi2c->XferSize--;
 8003766:	687b      	ldr	r3, [r7, #4]
 8003768:	8d1b      	ldrh	r3, [r3, #40]	; 0x28
 800376a:	3b01      	subs	r3, #1
 800376c:	b29a      	uxth	r2, r3
 800376e:	687b      	ldr	r3, [r7, #4]
 8003770:	851a      	strh	r2, [r3, #40]	; 0x28
      hi2c->XferCount--;
 8003772:	687b      	ldr	r3, [r7, #4]
 8003774:	8d5b      	ldrh	r3, [r3, #42]	; 0x2a
 8003776:	b29b      	uxth	r3, r3
 8003778:	3b01      	subs	r3, #1
 800377a:	b29a      	uxth	r2, r3
 800377c:	687b      	ldr	r3, [r7, #4]
 800377e:	855a      	strh	r2, [r3, #42]	; 0x2a

      /* Set ErrorCode corresponding to a Non-Acknowledge */
      hi2c->ErrorCode |= HAL_I2C_ERROR_AF;
 8003780:	687b      	ldr	r3, [r7, #4]
 8003782:	6c5b      	ldr	r3, [r3, #68]	; 0x44
 8003784:	f043 0204 	orr.w	r2, r3, #4
 8003788:	687b      	ldr	r3, [r7, #4]
 800378a:	645a      	str	r2, [r3, #68]	; 0x44
    }
  }

  /* Disable all Interrupts*/
  I2C_Disable_IRQ(hi2c, I2C_XFER_LISTEN_IT | I2C_XFER_RX_IT | I2C_XFER_TX_IT);
 800378c:	f248 0103 	movw	r1, #32771	; 0x8003
 8003790:	6878      	ldr	r0, [r7, #4]
 8003792:	f000 fa21 	bl	8003bd8 <I2C_Disable_IRQ>

  /* Clear NACK Flag */
  __HAL_I2C_CLEAR_FLAG(hi2c, I2C_FLAG_AF);
 8003796:	687b      	ldr	r3, [r7, #4]
 8003798:	681b      	ldr	r3, [r3, #0]
 800379a:	2210      	movs	r2, #16
 800379c:	61da      	str	r2, [r3, #28]

  /* Process Unlocked */
  __HAL_UNLOCK(hi2c);
 800379e:	687b      	ldr	r3, [r7, #4]
 80037a0:	2200      	movs	r2, #0
 80037a2:	f883 2040 	strb.w	r2, [r3, #64]	; 0x40

  /* Call the Listen Complete callback, to inform upper layer of the end of Listen usecase */
#if (USE_HAL_I2C_REGISTER_CALLBACKS == 1)
  hi2c->ListenCpltCallback(hi2c);
#else
  HAL_I2C_ListenCpltCallback(hi2c);
 80037a6:	6878      	ldr	r0, [r7, #4]
 80037a8:	f7fe ff2f 	bl	800260a <HAL_I2C_ListenCpltCallback>
#endif /* USE_HAL_I2C_REGISTER_CALLBACKS */
}
 80037ac:	bf00      	nop
 80037ae:	3708      	adds	r7, #8
 80037b0:	46bd      	mov	sp, r7
 80037b2:	bd80      	pop	{r7, pc}
 80037b4:	ffff0000 	.word	0xffff0000

080037b8 <I2C_ITError>:
  * @param  hi2c I2C handle.
  * @param  ErrorCode Error code to handle.
  * @retval None
  */
static void I2C_ITError(I2C_HandleTypeDef *hi2c, uint32_t ErrorCode)
{
 80037b8:	b580      	push	{r7, lr}
 80037ba:	b084      	sub	sp, #16
 80037bc:	af00      	add	r7, sp, #0
 80037be:	6078      	str	r0, [r7, #4]
 80037c0:	6039      	str	r1, [r7, #0]
  HAL_I2C_StateTypeDef tmpstate = hi2c->State;
 80037c2:	687b      	ldr	r3, [r7, #4]
 80037c4:	f893 3041 	ldrb.w	r3, [r3, #65]	; 0x41
 80037c8:	73fb      	strb	r3, [r7, #15]

  uint32_t tmppreviousstate;

  /* Reset handle parameters */
  hi2c->Mode          = HAL_I2C_MODE_NONE;
 80037ca:	687b      	ldr	r3, [r7, #4]
 80037cc:	2200      	movs	r2, #0
 80037ce:	f883 2042 	strb.w	r2, [r3, #66]	; 0x42
  hi2c->XferOptions   = I2C_NO_OPTION_FRAME;
 80037d2:	687b      	ldr	r3, [r7, #4]
 80037d4:	4a6d      	ldr	r2, [pc, #436]	; (800398c <I2C_ITError+0x1d4>)
 80037d6:	62da      	str	r2, [r3, #44]	; 0x2c
  hi2c->XferCount     = 0U;
 80037d8:	687b      	ldr	r3, [r7, #4]
 80037da:	2200      	movs	r2, #0
 80037dc:	855a      	strh	r2, [r3, #42]	; 0x2a

  /* Set new error code */
  hi2c->ErrorCode |= ErrorCode;
 80037de:	687b      	ldr	r3, [r7, #4]
 80037e0:	6c5a      	ldr	r2, [r3, #68]	; 0x44
 80037e2:	683b      	ldr	r3, [r7, #0]
 80037e4:	431a      	orrs	r2, r3
 80037e6:	687b      	ldr	r3, [r7, #4]
 80037e8:	645a      	str	r2, [r3, #68]	; 0x44

  /* Disable Interrupts */
  if ((tmpstate == HAL_I2C_STATE_LISTEN)         ||
 80037ea:	7bfb      	ldrb	r3, [r7, #15]
 80037ec:	2b28      	cmp	r3, #40	; 0x28
 80037ee:	d005      	beq.n	80037fc <I2C_ITError+0x44>
 80037f0:	7bfb      	ldrb	r3, [r7, #15]
 80037f2:	2b29      	cmp	r3, #41	; 0x29
 80037f4:	d002      	beq.n	80037fc <I2C_ITError+0x44>
      (tmpstate == HAL_I2C_STATE_BUSY_TX_LISTEN) ||
 80037f6:	7bfb      	ldrb	r3, [r7, #15]
 80037f8:	2b2a      	cmp	r3, #42	; 0x2a
 80037fa:	d10b      	bne.n	8003814 <I2C_ITError+0x5c>
      (tmpstate == HAL_I2C_STATE_BUSY_RX_LISTEN))
  {
    /* Disable all interrupts, except interrupts related to LISTEN state */
    I2C_Disable_IRQ(hi2c, I2C_XFER_RX_IT | I2C_XFER_TX_IT);
 80037fc:	2103      	movs	r1, #3
 80037fe:	6878      	ldr	r0, [r7, #4]
 8003800:	f000 f9ea 	bl	8003bd8 <I2C_Disable_IRQ>

    /* keep HAL_I2C_STATE_LISTEN if set */
    hi2c->State         = HAL_I2C_STATE_LISTEN;
 8003804:	687b      	ldr	r3, [r7, #4]
 8003806:	2228      	movs	r2, #40	; 0x28
 8003808:	f883 2041 	strb.w	r2, [r3, #65]	; 0x41
    hi2c->XferISR       = I2C_Slave_ISR_IT;
 800380c:	687b      	ldr	r3, [r7, #4]
 800380e:	4a60      	ldr	r2, [pc, #384]	; (8003990 <I2C_ITError+0x1d8>)
 8003810:	635a      	str	r2, [r3, #52]	; 0x34
 8003812:	e030      	b.n	8003876 <I2C_ITError+0xbe>
  }
  else
  {
    /* Disable all interrupts */
    I2C_Disable_IRQ(hi2c, I2C_XFER_LISTEN_IT | I2C_XFER_RX_IT | I2C_XFER_TX_IT);
 8003814:	f248 0103 	movw	r1, #32771	; 0x8003
 8003818:	6878      	ldr	r0, [r7, #4]
 800381a:	f000 f9dd 	bl	8003bd8 <I2C_Disable_IRQ>

    /* Flush TX register */
    I2C_Flush_TXDR(hi2c);
 800381e:	6878      	ldr	r0, [r7, #4]
 8003820:	f000 f8e1 	bl	80039e6 <I2C_Flush_TXDR>

    /* If state is an abort treatment on going, don't change state */
    /* This change will be do later */
    if (hi2c->State != HAL_I2C_STATE_ABORT)
 8003824:	687b      	ldr	r3, [r7, #4]
 8003826:	f893 3041 	ldrb.w	r3, [r3, #65]	; 0x41
 800382a:	b2db      	uxtb	r3, r3
 800382c:	2b60      	cmp	r3, #96	; 0x60
 800382e:	d01f      	beq.n	8003870 <I2C_ITError+0xb8>
    {
      /* Set HAL_I2C_STATE_READY */
      hi2c->State         = HAL_I2C_STATE_READY;
 8003830:	687b      	ldr	r3, [r7, #4]
 8003832:	2220      	movs	r2, #32
 8003834:	f883 2041 	strb.w	r2, [r3, #65]	; 0x41

      /* Check if a STOPF is detected */
      if (__HAL_I2C_GET_FLAG(hi2c, I2C_FLAG_STOPF) == SET)
 8003838:	687b      	ldr	r3, [r7, #4]
 800383a:	681b      	ldr	r3, [r3, #0]
 800383c:	699b      	ldr	r3, [r3, #24]
 800383e:	f003 0320 	and.w	r3, r3, #32
 8003842:	2b20      	cmp	r3, #32
 8003844:	d114      	bne.n	8003870 <I2C_ITError+0xb8>
      {
        if (__HAL_I2C_GET_FLAG(hi2c, I2C_FLAG_AF) == SET)
 8003846:	687b      	ldr	r3, [r7, #4]
 8003848:	681b      	ldr	r3, [r3, #0]
 800384a:	699b      	ldr	r3, [r3, #24]
 800384c:	f003 0310 	and.w	r3, r3, #16
 8003850:	2b10      	cmp	r3, #16
 8003852:	d109      	bne.n	8003868 <I2C_ITError+0xb0>
        {
          __HAL_I2C_CLEAR_FLAG(hi2c, I2C_FLAG_AF);
 8003854:	687b      	ldr	r3, [r7, #4]
 8003856:	681b      	ldr	r3, [r3, #0]
 8003858:	2210      	movs	r2, #16
 800385a:	61da      	str	r2, [r3, #28]
          hi2c->ErrorCode |= HAL_I2C_ERROR_AF;
 800385c:	687b      	ldr	r3, [r7, #4]
 800385e:	6c5b      	ldr	r3, [r3, #68]	; 0x44
 8003860:	f043 0204 	orr.w	r2, r3, #4
 8003864:	687b      	ldr	r3, [r7, #4]
 8003866:	645a      	str	r2, [r3, #68]	; 0x44
        }

        /* Clear STOP Flag */
        __HAL_I2C_CLEAR_FLAG(hi2c, I2C_FLAG_STOPF);
 8003868:	687b      	ldr	r3, [r7, #4]
 800386a:	681b      	ldr	r3, [r3, #0]
 800386c:	2220      	movs	r2, #32
 800386e:	61da      	str	r2, [r3, #28]
      }

    }
    hi2c->XferISR       = NULL;
 8003870:	687b      	ldr	r3, [r7, #4]
 8003872:	2200      	movs	r2, #0
 8003874:	635a      	str	r2, [r3, #52]	; 0x34
  }

  /* Abort DMA TX transfer if any */
  tmppreviousstate = hi2c->PreviousState;
 8003876:	687b      	ldr	r3, [r7, #4]
 8003878:	6b1b      	ldr	r3, [r3, #48]	; 0x30
 800387a:	60bb      	str	r3, [r7, #8]

  if ((hi2c->hdmatx != NULL) && ((tmppreviousstate == I2C_STATE_MASTER_BUSY_TX) || \
 800387c:	687b      	ldr	r3, [r7, #4]
 800387e:	6b9b      	ldr	r3, [r3, #56]	; 0x38
 8003880:	2b00      	cmp	r3, #0
 8003882:	d039      	beq.n	80038f8 <I2C_ITError+0x140>
 8003884:	68bb      	ldr	r3, [r7, #8]
 8003886:	2b11      	cmp	r3, #17
 8003888:	d002      	beq.n	8003890 <I2C_ITError+0xd8>
 800388a:	68bb      	ldr	r3, [r7, #8]
 800388c:	2b21      	cmp	r3, #33	; 0x21
 800388e:	d133      	bne.n	80038f8 <I2C_ITError+0x140>
                                 (tmppreviousstate == I2C_STATE_SLAVE_BUSY_TX)))
  {
    if ((hi2c->Instance->CR1 & I2C_CR1_TXDMAEN) == I2C_CR1_TXDMAEN)
 8003890:	687b      	ldr	r3, [r7, #4]
 8003892:	681b      	ldr	r3, [r3, #0]
 8003894:	681b      	ldr	r3, [r3, #0]
 8003896:	f403 4380 	and.w	r3, r3, #16384	; 0x4000
 800389a:	f5b3 4f80 	cmp.w	r3, #16384	; 0x4000
 800389e:	d107      	bne.n	80038b0 <I2C_ITError+0xf8>
    {
      hi2c->Instance->CR1 &= ~I2C_CR1_TXDMAEN;
 80038a0:	687b      	ldr	r3, [r7, #4]
 80038a2:	681b      	ldr	r3, [r3, #0]
 80038a4:	681a      	ldr	r2, [r3, #0]
 80038a6:	687b      	ldr	r3, [r7, #4]
 80038a8:	681b      	ldr	r3, [r3, #0]
 80038aa:	f422 4280 	bic.w	r2, r2, #16384	; 0x4000
 80038ae:	601a      	str	r2, [r3, #0]
    }

    if (HAL_DMA_GetState(hi2c->hdmatx) != HAL_DMA_STATE_READY)
 80038b0:	687b      	ldr	r3, [r7, #4]
 80038b2:	6b9b      	ldr	r3, [r3, #56]	; 0x38
 80038b4:	4618      	mov	r0, r3
 80038b6:	f7fe fa0d 	bl	8001cd4 <HAL_DMA_GetState>
 80038ba:	4603      	mov	r3, r0
 80038bc:	2b01      	cmp	r3, #1
 80038be:	d017      	beq.n	80038f0 <I2C_ITError+0x138>
    {
      /* Set the I2C DMA Abort callback :
       will lead to call HAL_I2C_ErrorCallback() at end of DMA abort procedure */
      hi2c->hdmatx->XferAbortCallback = I2C_DMAAbort;
 80038c0:	687b      	ldr	r3, [r7, #4]
 80038c2:	6b9b      	ldr	r3, [r3, #56]	; 0x38
 80038c4:	4a33      	ldr	r2, [pc, #204]	; (8003994 <I2C_ITError+0x1dc>)
 80038c6:	639a      	str	r2, [r3, #56]	; 0x38

      /* Process Unlocked */
      __HAL_UNLOCK(hi2c);
 80038c8:	687b      	ldr	r3, [r7, #4]
 80038ca:	2200      	movs	r2, #0
 80038cc:	f883 2040 	strb.w	r2, [r3, #64]	; 0x40

      /* Abort DMA TX */
      if (HAL_DMA_Abort_IT(hi2c->hdmatx) != HAL_OK)
 80038d0:	687b      	ldr	r3, [r7, #4]
 80038d2:	6b9b      	ldr	r3, [r3, #56]	; 0x38
 80038d4:	4618      	mov	r0, r3
 80038d6:	f7fe f8e7 	bl	8001aa8 <HAL_DMA_Abort_IT>
 80038da:	4603      	mov	r3, r0
 80038dc:	2b00      	cmp	r3, #0
 80038de:	d04d      	beq.n	800397c <I2C_ITError+0x1c4>
      {
        /* Call Directly XferAbortCallback function in case of error */
        hi2c->hdmatx->XferAbortCallback(hi2c->hdmatx);
 80038e0:	687b      	ldr	r3, [r7, #4]
 80038e2:	6b9b      	ldr	r3, [r3, #56]	; 0x38
 80038e4:	6b9b      	ldr	r3, [r3, #56]	; 0x38
 80038e6:	687a      	ldr	r2, [r7, #4]
 80038e8:	6b92      	ldr	r2, [r2, #56]	; 0x38
 80038ea:	4610      	mov	r0, r2
 80038ec:	4798      	blx	r3
    if (HAL_DMA_GetState(hi2c->hdmatx) != HAL_DMA_STATE_READY)
 80038ee:	e045      	b.n	800397c <I2C_ITError+0x1c4>
      }
    }
    else
    {
      I2C_TreatErrorCallback(hi2c);
 80038f0:	6878      	ldr	r0, [r7, #4]
 80038f2:	f000 f851 	bl	8003998 <I2C_TreatErrorCallback>
    if (HAL_DMA_GetState(hi2c->hdmatx) != HAL_DMA_STATE_READY)
 80038f6:	e041      	b.n	800397c <I2C_ITError+0x1c4>
    }
  }
  /* Abort DMA RX transfer if any */
  else if ((hi2c->hdmarx != NULL) && ((tmppreviousstate == I2C_STATE_MASTER_BUSY_RX) || \
 80038f8:	687b      	ldr	r3, [r7, #4]
 80038fa:	6bdb      	ldr	r3, [r3, #60]	; 0x3c
 80038fc:	2b00      	cmp	r3, #0
 80038fe:	d039      	beq.n	8003974 <I2C_ITError+0x1bc>
 8003900:	68bb      	ldr	r3, [r7, #8]
 8003902:	2b12      	cmp	r3, #18
 8003904:	d002      	beq.n	800390c <I2C_ITError+0x154>
 8003906:	68bb      	ldr	r3, [r7, #8]
 8003908:	2b22      	cmp	r3, #34	; 0x22
 800390a:	d133      	bne.n	8003974 <I2C_ITError+0x1bc>
                                      (tmppreviousstate == I2C_STATE_SLAVE_BUSY_RX)))
  {
    if ((hi2c->Instance->CR1 & I2C_CR1_RXDMAEN) == I2C_CR1_RXDMAEN)
 800390c:	687b      	ldr	r3, [r7, #4]
 800390e:	681b      	ldr	r3, [r3, #0]
 8003910:	681b      	ldr	r3, [r3, #0]
 8003912:	f403 4300 	and.w	r3, r3, #32768	; 0x8000
 8003916:	f5b3 4f00 	cmp.w	r3, #32768	; 0x8000
 800391a:	d107      	bne.n	800392c <I2C_ITError+0x174>
    {
      hi2c->Instance->CR1 &= ~I2C_CR1_RXDMAEN;
 800391c:	687b      	ldr	r3, [r7, #4]
 800391e:	681b      	ldr	r3, [r3, #0]
 8003920:	681a      	ldr	r2, [r3, #0]
 8003922:	687b      	ldr	r3, [r7, #4]
 8003924:	681b      	ldr	r3, [r3, #0]
 8003926:	f422 4200 	bic.w	r2, r2, #32768	; 0x8000
 800392a:	601a      	str	r2, [r3, #0]
    }

    if (HAL_DMA_GetState(hi2c->hdmarx) != HAL_DMA_STATE_READY)
 800392c:	687b      	ldr	r3, [r7, #4]
 800392e:	6bdb      	ldr	r3, [r3, #60]	; 0x3c
 8003930:	4618      	mov	r0, r3
 8003932:	f7fe f9cf 	bl	8001cd4 <HAL_DMA_GetState>
 8003936:	4603      	mov	r3, r0
 8003938:	2b01      	cmp	r3, #1
 800393a:	d017      	beq.n	800396c <I2C_ITError+0x1b4>
    {
      /* Set the I2C DMA Abort callback :
        will lead to call HAL_I2C_ErrorCallback() at end of DMA abort procedure */
      hi2c->hdmarx->XferAbortCallback = I2C_DMAAbort;
 800393c:	687b      	ldr	r3, [r7, #4]
 800393e:	6bdb      	ldr	r3, [r3, #60]	; 0x3c
 8003940:	4a14      	ldr	r2, [pc, #80]	; (8003994 <I2C_ITError+0x1dc>)
 8003942:	639a      	str	r2, [r3, #56]	; 0x38

      /* Process Unlocked */
      __HAL_UNLOCK(hi2c);
 8003944:	687b      	ldr	r3, [r7, #4]
 8003946:	2200      	movs	r2, #0
 8003948:	f883 2040 	strb.w	r2, [r3, #64]	; 0x40

      /* Abort DMA RX */
      if (HAL_DMA_Abort_IT(hi2c->hdmarx) != HAL_OK)
 800394c:	687b      	ldr	r3, [r7, #4]
 800394e:	6bdb      	ldr	r3, [r3, #60]	; 0x3c
 8003950:	4618      	mov	r0, r3
 8003952:	f7fe f8a9 	bl	8001aa8 <HAL_DMA_Abort_IT>
 8003956:	4603      	mov	r3, r0
 8003958:	2b00      	cmp	r3, #0
 800395a:	d011      	beq.n	8003980 <I2C_ITError+0x1c8>
      {
        /* Call Directly hi2c->hdmarx->XferAbortCallback function in case of error */
        hi2c->hdmarx->XferAbortCallback(hi2c->hdmarx);
 800395c:	687b      	ldr	r3, [r7, #4]
 800395e:	6bdb      	ldr	r3, [r3, #60]	; 0x3c
 8003960:	6b9b      	ldr	r3, [r3, #56]	; 0x38
 8003962:	687a      	ldr	r2, [r7, #4]
 8003964:	6bd2      	ldr	r2, [r2, #60]	; 0x3c
 8003966:	4610      	mov	r0, r2
 8003968:	4798      	blx	r3
    if (HAL_DMA_GetState(hi2c->hdmarx) != HAL_DMA_STATE_READY)
 800396a:	e009      	b.n	8003980 <I2C_ITError+0x1c8>
      }
    }
    else
    {
      I2C_TreatErrorCallback(hi2c);
 800396c:	6878      	ldr	r0, [r7, #4]
 800396e:	f000 f813 	bl	8003998 <I2C_TreatErrorCallback>
    if (HAL_DMA_GetState(hi2c->hdmarx) != HAL_DMA_STATE_READY)
 8003972:	e005      	b.n	8003980 <I2C_ITError+0x1c8>
    }
  }
  else
  {
    I2C_TreatErrorCallback(hi2c);
 8003974:	6878      	ldr	r0, [r7, #4]
 8003976:	f000 f80f 	bl	8003998 <I2C_TreatErrorCallback>
  }
}
 800397a:	e002      	b.n	8003982 <I2C_ITError+0x1ca>
    if (HAL_DMA_GetState(hi2c->hdmatx) != HAL_DMA_STATE_READY)
 800397c:	bf00      	nop
 800397e:	e000      	b.n	8003982 <I2C_ITError+0x1ca>
    if (HAL_DMA_GetState(hi2c->hdmarx) != HAL_DMA_STATE_READY)
 8003980:	bf00      	nop
}
 8003982:	bf00      	nop
 8003984:	3710      	adds	r7, #16
 8003986:	46bd      	mov	sp, r7
 8003988:	bd80      	pop	{r7, pc}
 800398a:	bf00      	nop
 800398c:	ffff0000 	.word	0xffff0000
 8003990:	080028bd 	.word	0x080028bd
 8003994:	08003a2f 	.word	0x08003a2f

08003998 <I2C_TreatErrorCallback>:
  * @brief  I2C Error callback treatment.
  * @param  hi2c I2C handle.
  * @retval None
  */
static void I2C_TreatErrorCallback(I2C_HandleTypeDef *hi2c)
{
 8003998:	b580      	push	{r7, lr}
 800399a:	b082      	sub	sp, #8
 800399c:	af00      	add	r7, sp, #0
 800399e:	6078      	str	r0, [r7, #4]
  if (hi2c->State == HAL_I2C_STATE_ABORT)
 80039a0:	687b      	ldr	r3, [r7, #4]
 80039a2:	f893 3041 	ldrb.w	r3, [r3, #65]	; 0x41
 80039a6:	b2db      	uxtb	r3, r3
 80039a8:	2b60      	cmp	r3, #96	; 0x60
 80039aa:	d10e      	bne.n	80039ca <I2C_TreatErrorCallback+0x32>
  {
    hi2c->State = HAL_I2C_STATE_READY;
 80039ac:	687b      	ldr	r3, [r7, #4]
 80039ae:	2220      	movs	r2, #32
 80039b0:	f883 2041 	strb.w	r2, [r3, #65]	; 0x41
    hi2c->PreviousState = I2C_STATE_NONE;
 80039b4:	687b      	ldr	r3, [r7, #4]
 80039b6:	2200      	movs	r2, #0
 80039b8:	631a      	str	r2, [r3, #48]	; 0x30

    /* Process Unlocked */
    __HAL_UNLOCK(hi2c);
 80039ba:	687b      	ldr	r3, [r7, #4]
 80039bc:	2200      	movs	r2, #0
 80039be:	f883 2040 	strb.w	r2, [r3, #64]	; 0x40

    /* Call the corresponding callback to inform upper layer of End of Transfer */
#if (USE_HAL_I2C_REGISTER_CALLBACKS == 1)
    hi2c->AbortCpltCallback(hi2c);
#else
    HAL_I2C_AbortCpltCallback(hi2c);
 80039c2:	6878      	ldr	r0, [r7, #4]
 80039c4:	f7fe fe49 	bl	800265a <HAL_I2C_AbortCpltCallback>
    hi2c->ErrorCallback(hi2c);
#else
    HAL_I2C_ErrorCallback(hi2c);
#endif /* USE_HAL_I2C_REGISTER_CALLBACKS */
  }
}
 80039c8:	e009      	b.n	80039de <I2C_TreatErrorCallback+0x46>
    hi2c->PreviousState = I2C_STATE_NONE;
 80039ca:	687b      	ldr	r3, [r7, #4]
 80039cc:	2200      	movs	r2, #0
 80039ce:	631a      	str	r2, [r3, #48]	; 0x30
    __HAL_UNLOCK(hi2c);
 80039d0:	687b      	ldr	r3, [r7, #4]
 80039d2:	2200      	movs	r2, #0
 80039d4:	f883 2040 	strb.w	r2, [r3, #64]	; 0x40
    HAL_I2C_ErrorCallback(hi2c);
 80039d8:	6878      	ldr	r0, [r7, #4]
 80039da:	f7fe fe34 	bl	8002646 <HAL_I2C_ErrorCallback>
}
 80039de:	bf00      	nop
 80039e0:	3708      	adds	r7, #8
 80039e2:	46bd      	mov	sp, r7
 80039e4:	bd80      	pop	{r7, pc}

080039e6 <I2C_Flush_TXDR>:
  * @brief  I2C Tx data register flush process.
  * @param  hi2c I2C handle.
  * @retval None
  */
static void I2C_Flush_TXDR(I2C_HandleTypeDef *hi2c)
{
 80039e6:	b480      	push	{r7}
 80039e8:	b083      	sub	sp, #12
 80039ea:	af00      	add	r7, sp, #0
 80039ec:	6078      	str	r0, [r7, #4]
  /* If a pending TXIS flag is set */
  /* Write a dummy data in TXDR to clear it */
  if (__HAL_I2C_GET_FLAG(hi2c, I2C_FLAG_TXIS) != RESET)
 80039ee:	687b      	ldr	r3, [r7, #4]
 80039f0:	681b      	ldr	r3, [r3, #0]
 80039f2:	699b      	ldr	r3, [r3, #24]
 80039f4:	f003 0302 	and.w	r3, r3, #2
 80039f8:	2b02      	cmp	r3, #2
 80039fa:	d103      	bne.n	8003a04 <I2C_Flush_TXDR+0x1e>
  {
    hi2c->Instance->TXDR = 0x00U;
 80039fc:	687b      	ldr	r3, [r7, #4]
 80039fe:	681b      	ldr	r3, [r3, #0]
 8003a00:	2200      	movs	r2, #0
 8003a02:	629a      	str	r2, [r3, #40]	; 0x28
  }

  /* Flush TX register if not empty */
  if (__HAL_I2C_GET_FLAG(hi2c, I2C_FLAG_TXE) == RESET)
 8003a04:	687b      	ldr	r3, [r7, #4]
 8003a06:	681b      	ldr	r3, [r3, #0]
 8003a08:	699b      	ldr	r3, [r3, #24]
 8003a0a:	f003 0301 	and.w	r3, r3, #1
 8003a0e:	2b01      	cmp	r3, #1
 8003a10:	d007      	beq.n	8003a22 <I2C_Flush_TXDR+0x3c>
  {
    __HAL_I2C_CLEAR_FLAG(hi2c, I2C_FLAG_TXE);
 8003a12:	687b      	ldr	r3, [r7, #4]
 8003a14:	681b      	ldr	r3, [r3, #0]
 8003a16:	699a      	ldr	r2, [r3, #24]
 8003a18:	687b      	ldr	r3, [r7, #4]
 8003a1a:	681b      	ldr	r3, [r3, #0]
 8003a1c:	f042 0201 	orr.w	r2, r2, #1
 8003a20:	619a      	str	r2, [r3, #24]
  }
}
 8003a22:	bf00      	nop
 8003a24:	370c      	adds	r7, #12
 8003a26:	46bd      	mov	sp, r7
 8003a28:	f85d 7b04 	ldr.w	r7, [sp], #4
 8003a2c:	4770      	bx	lr

08003a2e <I2C_DMAAbort>:
  *        (To be called at end of DMA Abort procedure).
  * @param hdma DMA handle.
  * @retval None
  */
static void I2C_DMAAbort(DMA_HandleTypeDef *hdma)
{
 8003a2e:	b580      	push	{r7, lr}
 8003a30:	b084      	sub	sp, #16
 8003a32:	af00      	add	r7, sp, #0
 8003a34:	6078      	str	r0, [r7, #4]
  /* Derogation MISRAC2012-Rule-11.5 */
  I2C_HandleTypeDef *hi2c = (I2C_HandleTypeDef *)(((DMA_HandleTypeDef *)hdma)->Parent);
 8003a36:	687b      	ldr	r3, [r7, #4]
 8003a38:	6a9b      	ldr	r3, [r3, #40]	; 0x28
 8003a3a:	60fb      	str	r3, [r7, #12]

  /* Reset AbortCpltCallback */
  if (hi2c->hdmatx != NULL)
 8003a3c:	68fb      	ldr	r3, [r7, #12]
 8003a3e:	6b9b      	ldr	r3, [r3, #56]	; 0x38
 8003a40:	2b00      	cmp	r3, #0
 8003a42:	d003      	beq.n	8003a4c <I2C_DMAAbort+0x1e>
  {
    hi2c->hdmatx->XferAbortCallback = NULL;
 8003a44:	68fb      	ldr	r3, [r7, #12]
 8003a46:	6b9b      	ldr	r3, [r3, #56]	; 0x38
 8003a48:	2200      	movs	r2, #0
 8003a4a:	639a      	str	r2, [r3, #56]	; 0x38
  }
  if (hi2c->hdmarx != NULL)
 8003a4c:	68fb      	ldr	r3, [r7, #12]
 8003a4e:	6bdb      	ldr	r3, [r3, #60]	; 0x3c
 8003a50:	2b00      	cmp	r3, #0
 8003a52:	d003      	beq.n	8003a5c <I2C_DMAAbort+0x2e>
  {
    hi2c->hdmarx->XferAbortCallback = NULL;
 8003a54:	68fb      	ldr	r3, [r7, #12]
 8003a56:	6bdb      	ldr	r3, [r3, #60]	; 0x3c
 8003a58:	2200      	movs	r2, #0
 8003a5a:	639a      	str	r2, [r3, #56]	; 0x38
  }

  I2C_TreatErrorCallback(hi2c);
 8003a5c:	68f8      	ldr	r0, [r7, #12]
 8003a5e:	f7ff ff9b 	bl	8003998 <I2C_TreatErrorCallback>
}
 8003a62:	bf00      	nop
 8003a64:	3710      	adds	r7, #16
 8003a66:	46bd      	mov	sp, r7
 8003a68:	bd80      	pop	{r7, pc}
	...

08003a6c <I2C_TransferConfig>:
  *     @arg @ref I2C_GENERATE_START_WRITE Generate Restart for write request.
  * @retval None
  */
static void I2C_TransferConfig(I2C_HandleTypeDef *hi2c, uint16_t DevAddress, uint8_t Size, uint32_t Mode,
                               uint32_t Request)
{
 8003a6c:	b480      	push	{r7}
 8003a6e:	b087      	sub	sp, #28
 8003a70:	af00      	add	r7, sp, #0
 8003a72:	60f8      	str	r0, [r7, #12]
 8003a74:	607b      	str	r3, [r7, #4]
 8003a76:	460b      	mov	r3, r1
 8003a78:	817b      	strh	r3, [r7, #10]
 8003a7a:	4613      	mov	r3, r2
 8003a7c:	727b      	strb	r3, [r7, #9]
  assert_param(IS_I2C_ALL_INSTANCE(hi2c->Instance));
  assert_param(IS_TRANSFER_MODE(Mode));
  assert_param(IS_TRANSFER_REQUEST(Request));

  /* Declaration of tmp to prevent undefined behavior of volatile usage */
  uint32_t tmp = ((uint32_t)(((uint32_t)DevAddress & I2C_CR2_SADD) | \
 8003a7e:	897b      	ldrh	r3, [r7, #10]
 8003a80:	f3c3 0209 	ubfx	r2, r3, #0, #10
                             (((uint32_t)Size << I2C_CR2_NBYTES_Pos) & I2C_CR2_NBYTES) | \
 8003a84:	7a7b      	ldrb	r3, [r7, #9]
 8003a86:	041b      	lsls	r3, r3, #16
 8003a88:	f403 037f 	and.w	r3, r3, #16711680	; 0xff0000
  uint32_t tmp = ((uint32_t)(((uint32_t)DevAddress & I2C_CR2_SADD) | \
 8003a8c:	431a      	orrs	r2, r3
                             (((uint32_t)Size << I2C_CR2_NBYTES_Pos) & I2C_CR2_NBYTES) | \
 8003a8e:	687b      	ldr	r3, [r7, #4]
 8003a90:	431a      	orrs	r2, r3
  uint32_t tmp = ((uint32_t)(((uint32_t)DevAddress & I2C_CR2_SADD) | \
 8003a92:	6a3b      	ldr	r3, [r7, #32]
 8003a94:	4313      	orrs	r3, r2
 8003a96:	f023 4300 	bic.w	r3, r3, #2147483648	; 0x80000000
 8003a9a:	617b      	str	r3, [r7, #20]
                             (uint32_t)Mode | (uint32_t)Request) & (~0x80000000U));

  /* update CR2 register */
  MODIFY_REG(hi2c->Instance->CR2, \
 8003a9c:	68fb      	ldr	r3, [r7, #12]
 8003a9e:	681b      	ldr	r3, [r3, #0]
 8003aa0:	685a      	ldr	r2, [r3, #4]
 8003aa2:	6a3b      	ldr	r3, [r7, #32]
 8003aa4:	0d5b      	lsrs	r3, r3, #21
 8003aa6:	f403 6180 	and.w	r1, r3, #1024	; 0x400
 8003aaa:	4b08      	ldr	r3, [pc, #32]	; (8003acc <I2C_TransferConfig+0x60>)
 8003aac:	430b      	orrs	r3, r1
 8003aae:	43db      	mvns	r3, r3
 8003ab0:	ea02 0103 	and.w	r1, r2, r3
 8003ab4:	68fb      	ldr	r3, [r7, #12]
 8003ab6:	681b      	ldr	r3, [r3, #0]
 8003ab8:	697a      	ldr	r2, [r7, #20]
 8003aba:	430a      	orrs	r2, r1
 8003abc:	605a      	str	r2, [r3, #4]
             ((I2C_CR2_SADD | I2C_CR2_NBYTES | I2C_CR2_RELOAD | I2C_CR2_AUTOEND | \
               (I2C_CR2_RD_WRN & (uint32_t)(Request >> (31U - I2C_CR2_RD_WRN_Pos))) | \
               I2C_CR2_START | I2C_CR2_STOP)), tmp);
}
 8003abe:	bf00      	nop
 8003ac0:	371c      	adds	r7, #28
 8003ac2:	46bd      	mov	sp, r7
 8003ac4:	f85d 7b04 	ldr.w	r7, [sp], #4
 8003ac8:	4770      	bx	lr
 8003aca:	bf00      	nop
 8003acc:	03ff63ff 	.word	0x03ff63ff

08003ad0 <I2C_Enable_IRQ>:
  *                the configuration information for the specified I2C.
  * @param  InterruptRequest Value of @ref I2C_Interrupt_configuration_definition.
  * @retval None
  */
static void I2C_Enable_IRQ(I2C_HandleTypeDef *hi2c, uint16_t InterruptRequest)
{
 8003ad0:	b480      	push	{r7}
 8003ad2:	b085      	sub	sp, #20
 8003ad4:	af00      	add	r7, sp, #0
 8003ad6:	6078      	str	r0, [r7, #4]
 8003ad8:	460b      	mov	r3, r1
 8003ada:	807b      	strh	r3, [r7, #2]
  uint32_t tmpisr = 0U;
 8003adc:	2300      	movs	r3, #0
 8003ade:	60fb      	str	r3, [r7, #12]

  if ((hi2c->XferISR != I2C_Master_ISR_DMA) && \
 8003ae0:	687b      	ldr	r3, [r7, #4]
 8003ae2:	6b5b      	ldr	r3, [r3, #52]	; 0x34
 8003ae4:	4a39      	ldr	r2, [pc, #228]	; (8003bcc <I2C_Enable_IRQ+0xfc>)
 8003ae6:	4293      	cmp	r3, r2
 8003ae8:	d032      	beq.n	8003b50 <I2C_Enable_IRQ+0x80>
      (hi2c->XferISR != I2C_Slave_ISR_DMA) && \
 8003aea:	687b      	ldr	r3, [r7, #4]
 8003aec:	6b5b      	ldr	r3, [r3, #52]	; 0x34
  if ((hi2c->XferISR != I2C_Master_ISR_DMA) && \
 8003aee:	4a38      	ldr	r2, [pc, #224]	; (8003bd0 <I2C_Enable_IRQ+0x100>)
 8003af0:	4293      	cmp	r3, r2
 8003af2:	d02d      	beq.n	8003b50 <I2C_Enable_IRQ+0x80>
      (hi2c->XferISR != I2C_Mem_ISR_DMA))
 8003af4:	687b      	ldr	r3, [r7, #4]
 8003af6:	6b5b      	ldr	r3, [r3, #52]	; 0x34
      (hi2c->XferISR != I2C_Slave_ISR_DMA) && \
 8003af8:	4a36      	ldr	r2, [pc, #216]	; (8003bd4 <I2C_Enable_IRQ+0x104>)
 8003afa:	4293      	cmp	r3, r2
 8003afc:	d028      	beq.n	8003b50 <I2C_Enable_IRQ+0x80>
  {
    if ((InterruptRequest & I2C_XFER_LISTEN_IT) == I2C_XFER_LISTEN_IT)
 8003afe:	f9b7 3002 	ldrsh.w	r3, [r7, #2]
 8003b02:	2b00      	cmp	r3, #0
 8003b04:	da03      	bge.n	8003b0e <I2C_Enable_IRQ+0x3e>
    {
      /* Enable ERR, STOP, NACK and ADDR interrupts */
      tmpisr |= I2C_IT_ADDRI | I2C_IT_STOPI | I2C_IT_NACKI | I2C_IT_ERRI;
 8003b06:	68fb      	ldr	r3, [r7, #12]
 8003b08:	f043 03b8 	orr.w	r3, r3, #184	; 0xb8
 8003b0c:	60fb      	str	r3, [r7, #12]
    }

    if ((InterruptRequest & I2C_XFER_TX_IT) == I2C_XFER_TX_IT)
 8003b0e:	887b      	ldrh	r3, [r7, #2]
 8003b10:	f003 0301 	and.w	r3, r3, #1
 8003b14:	2b00      	cmp	r3, #0
 8003b16:	d003      	beq.n	8003b20 <I2C_Enable_IRQ+0x50>
    {
      /* Enable ERR, TC, STOP, NACK and TXI interrupts */
      tmpisr |= I2C_IT_ERRI | I2C_IT_TCI | I2C_IT_STOPI | I2C_IT_NACKI | I2C_IT_TXI;
 8003b18:	68fb      	ldr	r3, [r7, #12]
 8003b1a:	f043 03f2 	orr.w	r3, r3, #242	; 0xf2
 8003b1e:	60fb      	str	r3, [r7, #12]
    }

    if ((InterruptRequest & I2C_XFER_RX_IT) == I2C_XFER_RX_IT)
 8003b20:	887b      	ldrh	r3, [r7, #2]
 8003b22:	f003 0302 	and.w	r3, r3, #2
 8003b26:	2b00      	cmp	r3, #0
 8003b28:	d003      	beq.n	8003b32 <I2C_Enable_IRQ+0x62>
    {
      /* Enable ERR, TC, STOP, NACK and RXI interrupts */
      tmpisr |= I2C_IT_ERRI | I2C_IT_TCI | I2C_IT_STOPI | I2C_IT_NACKI | I2C_IT_RXI;
 8003b2a:	68fb      	ldr	r3, [r7, #12]
 8003b2c:	f043 03f4 	orr.w	r3, r3, #244	; 0xf4
 8003b30:	60fb      	str	r3, [r7, #12]
    }

    if (InterruptRequest == I2C_XFER_ERROR_IT)
 8003b32:	887b      	ldrh	r3, [r7, #2]
 8003b34:	2b10      	cmp	r3, #16
 8003b36:	d103      	bne.n	8003b40 <I2C_Enable_IRQ+0x70>
    {
      /* Enable ERR and NACK interrupts */
      tmpisr |= I2C_IT_ERRI | I2C_IT_NACKI;
 8003b38:	68fb      	ldr	r3, [r7, #12]
 8003b3a:	f043 0390 	orr.w	r3, r3, #144	; 0x90
 8003b3e:	60fb      	str	r3, [r7, #12]
    }

    if (InterruptRequest == I2C_XFER_CPLT_IT)
 8003b40:	887b      	ldrh	r3, [r7, #2]
 8003b42:	2b20      	cmp	r3, #32
 8003b44:	d133      	bne.n	8003bae <I2C_Enable_IRQ+0xde>
    {
      /* Enable STOP interrupts */
      tmpisr |= I2C_IT_STOPI;
 8003b46:	68fb      	ldr	r3, [r7, #12]
 8003b48:	f043 0320 	orr.w	r3, r3, #32
 8003b4c:	60fb      	str	r3, [r7, #12]
    if (InterruptRequest == I2C_XFER_CPLT_IT)
 8003b4e:	e02e      	b.n	8003bae <I2C_Enable_IRQ+0xde>
    }
  }

  else
  {
    if ((InterruptRequest & I2C_XFER_LISTEN_IT) == I2C_XFER_LISTEN_IT)
 8003b50:	f9b7 3002 	ldrsh.w	r3, [r7, #2]
 8003b54:	2b00      	cmp	r3, #0
 8003b56:	da03      	bge.n	8003b60 <I2C_Enable_IRQ+0x90>
    {
      /* Enable ERR, STOP, NACK and ADDR interrupts */
      tmpisr |= I2C_IT_ADDRI | I2C_IT_STOPI | I2C_IT_NACKI | I2C_IT_ERRI;
 8003b58:	68fb      	ldr	r3, [r7, #12]
 8003b5a:	f043 03b8 	orr.w	r3, r3, #184	; 0xb8
 8003b5e:	60fb      	str	r3, [r7, #12]
    }

    if ((InterruptRequest & I2C_XFER_TX_IT) == I2C_XFER_TX_IT)
 8003b60:	887b      	ldrh	r3, [r7, #2]
 8003b62:	f003 0301 	and.w	r3, r3, #1
 8003b66:	2b00      	cmp	r3, #0
 8003b68:	d003      	beq.n	8003b72 <I2C_Enable_IRQ+0xa2>
    {
      /* Enable ERR, TC, STOP, NACK and TXI interrupts */
      tmpisr |= I2C_IT_ERRI | I2C_IT_TCI | I2C_IT_STOPI | I2C_IT_NACKI | I2C_IT_TXI;
 8003b6a:	68fb      	ldr	r3, [r7, #12]
 8003b6c:	f043 03f2 	orr.w	r3, r3, #242	; 0xf2
 8003b70:	60fb      	str	r3, [r7, #12]
    }

    if ((InterruptRequest & I2C_XFER_RX_IT) == I2C_XFER_RX_IT)
 8003b72:	887b      	ldrh	r3, [r7, #2]
 8003b74:	f003 0302 	and.w	r3, r3, #2
 8003b78:	2b00      	cmp	r3, #0
 8003b7a:	d003      	beq.n	8003b84 <I2C_Enable_IRQ+0xb4>
    {
      /* Enable ERR, TC, STOP, NACK and RXI interrupts */
      tmpisr |= I2C_IT_ERRI | I2C_IT_TCI | I2C_IT_STOPI | I2C_IT_NACKI | I2C_IT_RXI;
 8003b7c:	68fb      	ldr	r3, [r7, #12]
 8003b7e:	f043 03f4 	orr.w	r3, r3, #244	; 0xf4
 8003b82:	60fb      	str	r3, [r7, #12]
    }

    if (InterruptRequest == I2C_XFER_ERROR_IT)
 8003b84:	887b      	ldrh	r3, [r7, #2]
 8003b86:	2b10      	cmp	r3, #16
 8003b88:	d103      	bne.n	8003b92 <I2C_Enable_IRQ+0xc2>
    {
      /* Enable ERR and NACK interrupts */
      tmpisr |= I2C_IT_ERRI | I2C_IT_NACKI;
 8003b8a:	68fb      	ldr	r3, [r7, #12]
 8003b8c:	f043 0390 	orr.w	r3, r3, #144	; 0x90
 8003b90:	60fb      	str	r3, [r7, #12]
    }

    if (InterruptRequest == I2C_XFER_CPLT_IT)
 8003b92:	887b      	ldrh	r3, [r7, #2]
 8003b94:	2b20      	cmp	r3, #32
 8003b96:	d103      	bne.n	8003ba0 <I2C_Enable_IRQ+0xd0>
    {
      /* Enable STOP interrupts */
      tmpisr |= (I2C_IT_STOPI | I2C_IT_TCI);
 8003b98:	68fb      	ldr	r3, [r7, #12]
 8003b9a:	f043 0360 	orr.w	r3, r3, #96	; 0x60
 8003b9e:	60fb      	str	r3, [r7, #12]
    }

    if (InterruptRequest == I2C_XFER_RELOAD_IT)
 8003ba0:	887b      	ldrh	r3, [r7, #2]
 8003ba2:	2b40      	cmp	r3, #64	; 0x40
 8003ba4:	d103      	bne.n	8003bae <I2C_Enable_IRQ+0xde>
    {
      /* Enable TC interrupts */
      tmpisr |= I2C_IT_TCI;
 8003ba6:	68fb      	ldr	r3, [r7, #12]
 8003ba8:	f043 0340 	orr.w	r3, r3, #64	; 0x40
 8003bac:	60fb      	str	r3, [r7, #12]
  }

  /* Enable interrupts only at the end */
  /* to avoid the risk of I2C interrupt handle execution before */
  /* all interrupts requested done */
  __HAL_I2C_ENABLE_IT(hi2c, tmpisr);
 8003bae:	687b      	ldr	r3, [r7, #4]
 8003bb0:	681b      	ldr	r3, [r3, #0]
 8003bb2:	6819      	ldr	r1, [r3, #0]
 8003bb4:	687b      	ldr	r3, [r7, #4]
 8003bb6:	681b      	ldr	r3, [r3, #0]
 8003bb8:	68fa      	ldr	r2, [r7, #12]
 8003bba:	430a      	orrs	r2, r1
 8003bbc:	601a      	str	r2, [r3, #0]
}
 8003bbe:	bf00      	nop
 8003bc0:	3714      	adds	r7, #20
 8003bc2:	46bd      	mov	sp, r7
 8003bc4:	f85d 7b04 	ldr.w	r7, [sp], #4
 8003bc8:	4770      	bx	lr
 8003bca:	bf00      	nop
 8003bcc:	08002aaf 	.word	0x08002aaf
 8003bd0:	08002ed1 	.word	0x08002ed1
 8003bd4:	08002c85 	.word	0x08002c85

08003bd8 <I2C_Disable_IRQ>:
  *                the configuration information for the specified I2C.
  * @param  InterruptRequest Value of @ref I2C_Interrupt_configuration_definition.
  * @retval None
  */
static void I2C_Disable_IRQ(I2C_HandleTypeDef *hi2c, uint16_t InterruptRequest)
{
 8003bd8:	b480      	push	{r7}
 8003bda:	b085      	sub	sp, #20
 8003bdc:	af00      	add	r7, sp, #0
 8003bde:	6078      	str	r0, [r7, #4]
 8003be0:	460b      	mov	r3, r1
 8003be2:	807b      	strh	r3, [r7, #2]
  uint32_t tmpisr = 0U;
 8003be4:	2300      	movs	r3, #0
 8003be6:	60fb      	str	r3, [r7, #12]

  if ((InterruptRequest & I2C_XFER_TX_IT) == I2C_XFER_TX_IT)
 8003be8:	887b      	ldrh	r3, [r7, #2]
 8003bea:	f003 0301 	and.w	r3, r3, #1
 8003bee:	2b00      	cmp	r3, #0
 8003bf0:	d00f      	beq.n	8003c12 <I2C_Disable_IRQ+0x3a>
  {
    /* Disable TC and TXI interrupts */
    tmpisr |= I2C_IT_TCI | I2C_IT_TXI;
 8003bf2:	68fb      	ldr	r3, [r7, #12]
 8003bf4:	f043 0342 	orr.w	r3, r3, #66	; 0x42
 8003bf8:	60fb      	str	r3, [r7, #12]

    if (((uint32_t)hi2c->State & (uint32_t)HAL_I2C_STATE_LISTEN) != (uint32_t)HAL_I2C_STATE_LISTEN)
 8003bfa:	687b      	ldr	r3, [r7, #4]
 8003bfc:	f893 3041 	ldrb.w	r3, [r3, #65]	; 0x41
 8003c00:	b2db      	uxtb	r3, r3
 8003c02:	f003 0328 	and.w	r3, r3, #40	; 0x28
 8003c06:	2b28      	cmp	r3, #40	; 0x28
 8003c08:	d003      	beq.n	8003c12 <I2C_Disable_IRQ+0x3a>
    {
      /* Disable NACK and STOP interrupts */
      tmpisr |= I2C_IT_STOPI | I2C_IT_NACKI | I2C_IT_ERRI;
 8003c0a:	68fb      	ldr	r3, [r7, #12]
 8003c0c:	f043 03b0 	orr.w	r3, r3, #176	; 0xb0
 8003c10:	60fb      	str	r3, [r7, #12]
    }
  }

  if ((InterruptRequest & I2C_XFER_RX_IT) == I2C_XFER_RX_IT)
 8003c12:	887b      	ldrh	r3, [r7, #2]
 8003c14:	f003 0302 	and.w	r3, r3, #2
 8003c18:	2b00      	cmp	r3, #0
 8003c1a:	d00f      	beq.n	8003c3c <I2C_Disable_IRQ+0x64>
  {
    /* Disable TC and RXI interrupts */
    tmpisr |= I2C_IT_TCI | I2C_IT_RXI;
 8003c1c:	68fb      	ldr	r3, [r7, #12]
 8003c1e:	f043 0344 	orr.w	r3, r3, #68	; 0x44
 8003c22:	60fb      	str	r3, [r7, #12]

    if (((uint32_t)hi2c->State & (uint32_t)HAL_I2C_STATE_LISTEN) != (uint32_t)HAL_I2C_STATE_LISTEN)
 8003c24:	687b      	ldr	r3, [r7, #4]
 8003c26:	f893 3041 	ldrb.w	r3, [r3, #65]	; 0x41
 8003c2a:	b2db      	uxtb	r3, r3
 8003c2c:	f003 0328 	and.w	r3, r3, #40	; 0x28
 8003c30:	2b28      	cmp	r3, #40	; 0x28
 8003c32:	d003      	beq.n	8003c3c <I2C_Disable_IRQ+0x64>
    {
      /* Disable NACK and STOP interrupts */
      tmpisr |= I2C_IT_STOPI | I2C_IT_NACKI | I2C_IT_ERRI;
 8003c34:	68fb      	ldr	r3, [r7, #12]
 8003c36:	f043 03b0 	orr.w	r3, r3, #176	; 0xb0
 8003c3a:	60fb      	str	r3, [r7, #12]
    }
  }

  if ((InterruptRequest & I2C_XFER_LISTEN_IT) == I2C_XFER_LISTEN_IT)
 8003c3c:	f9b7 3002 	ldrsh.w	r3, [r7, #2]
 8003c40:	2b00      	cmp	r3, #0
 8003c42:	da03      	bge.n	8003c4c <I2C_Disable_IRQ+0x74>
  {
    /* Disable ADDR, NACK and STOP interrupts */
    tmpisr |= I2C_IT_ADDRI | I2C_IT_STOPI | I2C_IT_NACKI | I2C_IT_ERRI;
 8003c44:	68fb      	ldr	r3, [r7, #12]
 8003c46:	f043 03b8 	orr.w	r3, r3, #184	; 0xb8
 8003c4a:	60fb      	str	r3, [r7, #12]
  }

  if (InterruptRequest == I2C_XFER_ERROR_IT)
 8003c4c:	887b      	ldrh	r3, [r7, #2]
 8003c4e:	2b10      	cmp	r3, #16
 8003c50:	d103      	bne.n	8003c5a <I2C_Disable_IRQ+0x82>
  {
    /* Enable ERR and NACK interrupts */
    tmpisr |= I2C_IT_ERRI | I2C_IT_NACKI;
 8003c52:	68fb      	ldr	r3, [r7, #12]
 8003c54:	f043 0390 	orr.w	r3, r3, #144	; 0x90
 8003c58:	60fb      	str	r3, [r7, #12]
  }

  if (InterruptRequest == I2C_XFER_CPLT_IT)
 8003c5a:	887b      	ldrh	r3, [r7, #2]
 8003c5c:	2b20      	cmp	r3, #32
 8003c5e:	d103      	bne.n	8003c68 <I2C_Disable_IRQ+0x90>
  {
    /* Enable STOP interrupts */
    tmpisr |= I2C_IT_STOPI;
 8003c60:	68fb      	ldr	r3, [r7, #12]
 8003c62:	f043 0320 	orr.w	r3, r3, #32
 8003c66:	60fb      	str	r3, [r7, #12]
  }

  if (InterruptRequest == I2C_XFER_RELOAD_IT)
 8003c68:	887b      	ldrh	r3, [r7, #2]
 8003c6a:	2b40      	cmp	r3, #64	; 0x40
 8003c6c:	d103      	bne.n	8003c76 <I2C_Disable_IRQ+0x9e>
  {
    /* Enable TC interrupts */
    tmpisr |= I2C_IT_TCI;
 8003c6e:	68fb      	ldr	r3, [r7, #12]
 8003c70:	f043 0340 	orr.w	r3, r3, #64	; 0x40
 8003c74:	60fb      	str	r3, [r7, #12]
  }

  /* Disable interrupts only at the end */
  /* to avoid a breaking situation like at "t" time */
  /* all disable interrupts request are not done */
  __HAL_I2C_DISABLE_IT(hi2c, tmpisr);
 8003c76:	687b      	ldr	r3, [r7, #4]
 8003c78:	681b      	ldr	r3, [r3, #0]
 8003c7a:	6819      	ldr	r1, [r3, #0]
 8003c7c:	68fb      	ldr	r3, [r7, #12]
 8003c7e:	43da      	mvns	r2, r3
 8003c80:	687b      	ldr	r3, [r7, #4]
 8003c82:	681b      	ldr	r3, [r3, #0]
 8003c84:	400a      	ands	r2, r1
 8003c86:	601a      	str	r2, [r3, #0]
}
 8003c88:	bf00      	nop
 8003c8a:	3714      	adds	r7, #20
 8003c8c:	46bd      	mov	sp, r7
 8003c8e:	f85d 7b04 	ldr.w	r7, [sp], #4
 8003c92:	4770      	bx	lr

08003c94 <HAL_I2CEx_ConfigAnalogFilter>:
  *                the configuration information for the specified I2Cx peripheral.
  * @param  AnalogFilter New state of the Analog filter.
  * @retval HAL status
  */
HAL_StatusTypeDef HAL_I2CEx_ConfigAnalogFilter(I2C_HandleTypeDef *hi2c, uint32_t AnalogFilter)
{
 8003c94:	b480      	push	{r7}
 8003c96:	b083      	sub	sp, #12
 8003c98:	af00      	add	r7, sp, #0
 8003c9a:	6078      	str	r0, [r7, #4]
 8003c9c:	6039      	str	r1, [r7, #0]
  /* Check the parameters */
  assert_param(IS_I2C_ALL_INSTANCE(hi2c->Instance));
  assert_param(IS_I2C_ANALOG_FILTER(AnalogFilter));

  if (hi2c->State == HAL_I2C_STATE_READY)
 8003c9e:	687b      	ldr	r3, [r7, #4]
 8003ca0:	f893 3041 	ldrb.w	r3, [r3, #65]	; 0x41
 8003ca4:	b2db      	uxtb	r3, r3
 8003ca6:	2b20      	cmp	r3, #32
 8003ca8:	d138      	bne.n	8003d1c <HAL_I2CEx_ConfigAnalogFilter+0x88>
  {
    /* Process Locked */
    __HAL_LOCK(hi2c);
 8003caa:	687b      	ldr	r3, [r7, #4]
 8003cac:	f893 3040 	ldrb.w	r3, [r3, #64]	; 0x40
 8003cb0:	2b01      	cmp	r3, #1
 8003cb2:	d101      	bne.n	8003cb8 <HAL_I2CEx_ConfigAnalogFilter+0x24>
 8003cb4:	2302      	movs	r3, #2
 8003cb6:	e032      	b.n	8003d1e <HAL_I2CEx_ConfigAnalogFilter+0x8a>
 8003cb8:	687b      	ldr	r3, [r7, #4]
 8003cba:	2201      	movs	r2, #1
 8003cbc:	f883 2040 	strb.w	r2, [r3, #64]	; 0x40

    hi2c->State = HAL_I2C_STATE_BUSY;
 8003cc0:	687b      	ldr	r3, [r7, #4]
 8003cc2:	2224      	movs	r2, #36	; 0x24
 8003cc4:	f883 2041 	strb.w	r2, [r3, #65]	; 0x41

    /* Disable the selected I2C peripheral */
    __HAL_I2C_DISABLE(hi2c);
 8003cc8:	687b      	ldr	r3, [r7, #4]
 8003cca:	681b      	ldr	r3, [r3, #0]
 8003ccc:	681a      	ldr	r2, [r3, #0]
 8003cce:	687b      	ldr	r3, [r7, #4]
 8003cd0:	681b      	ldr	r3, [r3, #0]
 8003cd2:	f022 0201 	bic.w	r2, r2, #1
 8003cd6:	601a      	str	r2, [r3, #0]

    /* Reset I2Cx ANOFF bit */
    hi2c->Instance->CR1 &= ~(I2C_CR1_ANFOFF);
 8003cd8:	687b      	ldr	r3, [r7, #4]
 8003cda:	681b      	ldr	r3, [r3, #0]
 8003cdc:	681a      	ldr	r2, [r3, #0]
 8003cde:	687b      	ldr	r3, [r7, #4]
 8003ce0:	681b      	ldr	r3, [r3, #0]
 8003ce2:	f422 5280 	bic.w	r2, r2, #4096	; 0x1000
 8003ce6:	601a      	str	r2, [r3, #0]

    /* Set analog filter bit*/
    hi2c->Instance->CR1 |= AnalogFilter;
 8003ce8:	687b      	ldr	r3, [r7, #4]
 8003cea:	681b      	ldr	r3, [r3, #0]
 8003cec:	6819      	ldr	r1, [r3, #0]
 8003cee:	687b      	ldr	r3, [r7, #4]
 8003cf0:	681b      	ldr	r3, [r3, #0]
 8003cf2:	683a      	ldr	r2, [r7, #0]
 8003cf4:	430a      	orrs	r2, r1
 8003cf6:	601a      	str	r2, [r3, #0]

    __HAL_I2C_ENABLE(hi2c);
 8003cf8:	687b      	ldr	r3, [r7, #4]
 8003cfa:	681b      	ldr	r3, [r3, #0]
 8003cfc:	681a      	ldr	r2, [r3, #0]
 8003cfe:	687b      	ldr	r3, [r7, #4]
 8003d00:	681b      	ldr	r3, [r3, #0]
 8003d02:	f042 0201 	orr.w	r2, r2, #1
 8003d06:	601a      	str	r2, [r3, #0]

    hi2c->State = HAL_I2C_STATE_READY;
 8003d08:	687b      	ldr	r3, [r7, #4]
 8003d0a:	2220      	movs	r2, #32
 8003d0c:	f883 2041 	strb.w	r2, [r3, #65]	; 0x41

    /* Process Unlocked */
    __HAL_UNLOCK(hi2c);
 8003d10:	687b      	ldr	r3, [r7, #4]
 8003d12:	2200      	movs	r2, #0
 8003d14:	f883 2040 	strb.w	r2, [r3, #64]	; 0x40

    return HAL_OK;
 8003d18:	2300      	movs	r3, #0
 8003d1a:	e000      	b.n	8003d1e <HAL_I2CEx_ConfigAnalogFilter+0x8a>
  }
  else
  {
    return HAL_BUSY;
 8003d1c:	2302      	movs	r3, #2
  }
}
 8003d1e:	4618      	mov	r0, r3
 8003d20:	370c      	adds	r7, #12
 8003d22:	46bd      	mov	sp, r7
 8003d24:	f85d 7b04 	ldr.w	r7, [sp], #4
 8003d28:	4770      	bx	lr

08003d2a <HAL_I2CEx_ConfigDigitalFilter>:
  *                the configuration information for the specified I2Cx peripheral.
  * @param  DigitalFilter Coefficient of digital noise filter between Min_Data=0x00 and Max_Data=0x0F.
  * @retval HAL status
  */
HAL_StatusTypeDef HAL_I2CEx_ConfigDigitalFilter(I2C_HandleTypeDef *hi2c, uint32_t DigitalFilter)
{
 8003d2a:	b480      	push	{r7}
 8003d2c:	b085      	sub	sp, #20
 8003d2e:	af00      	add	r7, sp, #0
 8003d30:	6078      	str	r0, [r7, #4]
 8003d32:	6039      	str	r1, [r7, #0]

  /* Check the parameters */
  assert_param(IS_I2C_ALL_INSTANCE(hi2c->Instance));
  assert_param(IS_I2C_DIGITAL_FILTER(DigitalFilter));

  if (hi2c->State == HAL_I2C_STATE_READY)
 8003d34:	687b      	ldr	r3, [r7, #4]
 8003d36:	f893 3041 	ldrb.w	r3, [r3, #65]	; 0x41
 8003d3a:	b2db      	uxtb	r3, r3
 8003d3c:	2b20      	cmp	r3, #32
 8003d3e:	d139      	bne.n	8003db4 <HAL_I2CEx_ConfigDigitalFilter+0x8a>
  {
    /* Process Locked */
    __HAL_LOCK(hi2c);
 8003d40:	687b      	ldr	r3, [r7, #4]
 8003d42:	f893 3040 	ldrb.w	r3, [r3, #64]	; 0x40
 8003d46:	2b01      	cmp	r3, #1
 8003d48:	d101      	bne.n	8003d4e <HAL_I2CEx_ConfigDigitalFilter+0x24>
 8003d4a:	2302      	movs	r3, #2
 8003d4c:	e033      	b.n	8003db6 <HAL_I2CEx_ConfigDigitalFilter+0x8c>
 8003d4e:	687b      	ldr	r3, [r7, #4]
 8003d50:	2201      	movs	r2, #1
 8003d52:	f883 2040 	strb.w	r2, [r3, #64]	; 0x40

    hi2c->State = HAL_I2C_STATE_BUSY;
 8003d56:	687b      	ldr	r3, [r7, #4]
 8003d58:	2224      	movs	r2, #36	; 0x24
 8003d5a:	f883 2041 	strb.w	r2, [r3, #65]	; 0x41

    /* Disable the selected I2C peripheral */
    __HAL_I2C_DISABLE(hi2c);
 8003d5e:	687b      	ldr	r3, [r7, #4]
 8003d60:	681b      	ldr	r3, [r3, #0]
 8003d62:	681a      	ldr	r2, [r3, #0]
 8003d64:	687b      	ldr	r3, [r7, #4]
 8003d66:	681b      	ldr	r3, [r3, #0]
 8003d68:	f022 0201 	bic.w	r2, r2, #1
 8003d6c:	601a      	str	r2, [r3, #0]

    /* Get the old register value */
    tmpreg = hi2c->Instance->CR1;
 8003d6e:	687b      	ldr	r3, [r7, #4]
 8003d70:	681b      	ldr	r3, [r3, #0]
 8003d72:	681b      	ldr	r3, [r3, #0]
 8003d74:	60fb      	str	r3, [r7, #12]

    /* Reset I2Cx DNF bits [11:8] */
    tmpreg &= ~(I2C_CR1_DNF);
 8003d76:	68fb      	ldr	r3, [r7, #12]
 8003d78:	f423 6370 	bic.w	r3, r3, #3840	; 0xf00
 8003d7c:	60fb      	str	r3, [r7, #12]

    /* Set I2Cx DNF coefficient */
    tmpreg |= DigitalFilter << 8U;
 8003d7e:	683b      	ldr	r3, [r7, #0]
 8003d80:	021b      	lsls	r3, r3, #8
 8003d82:	68fa      	ldr	r2, [r7, #12]
 8003d84:	4313      	orrs	r3, r2
 8003d86:	60fb      	str	r3, [r7, #12]

    /* Store the new register value */
    hi2c->Instance->CR1 = tmpreg;
 8003d88:	687b      	ldr	r3, [r7, #4]
 8003d8a:	681b      	ldr	r3, [r3, #0]
 8003d8c:	68fa      	ldr	r2, [r7, #12]
 8003d8e:	601a      	str	r2, [r3, #0]

    __HAL_I2C_ENABLE(hi2c);
 8003d90:	687b      	ldr	r3, [r7, #4]
 8003d92:	681b      	ldr	r3, [r3, #0]
 8003d94:	681a      	ldr	r2, [r3, #0]
 8003d96:	687b      	ldr	r3, [r7, #4]
 8003d98:	681b      	ldr	r3, [r3, #0]
 8003d9a:	f042 0201 	orr.w	r2, r2, #1
 8003d9e:	601a      	str	r2, [r3, #0]

    hi2c->State = HAL_I2C_STATE_READY;
 8003da0:	687b      	ldr	r3, [r7, #4]
 8003da2:	2220      	movs	r2, #32
 8003da4:	f883 2041 	strb.w	r2, [r3, #65]	; 0x41

    /* Process Unlocked */
    __HAL_UNLOCK(hi2c);
 8003da8:	687b      	ldr	r3, [r7, #4]
 8003daa:	2200      	movs	r2, #0
 8003dac:	f883 2040 	strb.w	r2, [r3, #64]	; 0x40

    return HAL_OK;
 8003db0:	2300      	movs	r3, #0
 8003db2:	e000      	b.n	8003db6 <HAL_I2CEx_ConfigDigitalFilter+0x8c>
  }
  else
  {
    return HAL_BUSY;
 8003db4:	2302      	movs	r3, #2
  }
}
 8003db6:	4618      	mov	r0, r3
 8003db8:	3714      	adds	r7, #20
 8003dba:	46bd      	mov	sp, r7
 8003dbc:	f85d 7b04 	ldr.w	r7, [sp], #4
 8003dc0:	4770      	bx	lr
	...

08003dc4 <HAL_PWREx_ControlVoltageScaling>:
  *        cleared before returning the status. If the flag is not cleared within
  *        50 microseconds, HAL_TIMEOUT status is reported.
  * @retval HAL Status
  */
HAL_StatusTypeDef HAL_PWREx_ControlVoltageScaling(uint32_t VoltageScaling)
{
 8003dc4:	b480      	push	{r7}
 8003dc6:	b085      	sub	sp, #20
 8003dc8:	af00      	add	r7, sp, #0
 8003dca:	6078      	str	r0, [r7, #4]
  uint32_t wait_loop_index;

  assert_param(IS_PWR_VOLTAGE_SCALING_RANGE(VoltageScaling));

  if (VoltageScaling == PWR_REGULATOR_VOLTAGE_SCALE1_BOOST)
 8003dcc:	687b      	ldr	r3, [r7, #4]
 8003dce:	2b00      	cmp	r3, #0
 8003dd0:	d141      	bne.n	8003e56 <HAL_PWREx_ControlVoltageScaling+0x92>
  {
    /* If current range is range 2 */
    if (READ_BIT(PWR->CR1, PWR_CR1_VOS) == PWR_REGULATOR_VOLTAGE_SCALE2)
 8003dd2:	4b4b      	ldr	r3, [pc, #300]	; (8003f00 <HAL_PWREx_ControlVoltageScaling+0x13c>)
 8003dd4:	681b      	ldr	r3, [r3, #0]
 8003dd6:	f403 63c0 	and.w	r3, r3, #1536	; 0x600
 8003dda:	f5b3 6f80 	cmp.w	r3, #1024	; 0x400
 8003dde:	d131      	bne.n	8003e44 <HAL_PWREx_ControlVoltageScaling+0x80>
    {
      /* Make sure Range 1 Boost is enabled */
      CLEAR_BIT(PWR->CR5, PWR_CR5_R1MODE);
 8003de0:	4b47      	ldr	r3, [pc, #284]	; (8003f00 <HAL_PWREx_ControlVoltageScaling+0x13c>)
 8003de2:	f8d3 3080 	ldr.w	r3, [r3, #128]	; 0x80
 8003de6:	4a46      	ldr	r2, [pc, #280]	; (8003f00 <HAL_PWREx_ControlVoltageScaling+0x13c>)
 8003de8:	f423 7380 	bic.w	r3, r3, #256	; 0x100
 8003dec:	f8c2 3080 	str.w	r3, [r2, #128]	; 0x80

      /* Set Range 1 */
      MODIFY_REG(PWR->CR1, PWR_CR1_VOS, PWR_REGULATOR_VOLTAGE_SCALE1);
 8003df0:	4b43      	ldr	r3, [pc, #268]	; (8003f00 <HAL_PWREx_ControlVoltageScaling+0x13c>)
 8003df2:	681b      	ldr	r3, [r3, #0]
 8003df4:	f423 63c0 	bic.w	r3, r3, #1536	; 0x600
 8003df8:	4a41      	ldr	r2, [pc, #260]	; (8003f00 <HAL_PWREx_ControlVoltageScaling+0x13c>)
 8003dfa:	f443 7300 	orr.w	r3, r3, #512	; 0x200
 8003dfe:	6013      	str	r3, [r2, #0]

      /* Wait until VOSF is cleared */
      wait_loop_index = ((PWR_FLAG_SETTING_DELAY_US * SystemCoreClock) / 1000000U) + 1U;
 8003e00:	4b40      	ldr	r3, [pc, #256]	; (8003f04 <HAL_PWREx_ControlVoltageScaling+0x140>)
 8003e02:	681b      	ldr	r3, [r3, #0]
 8003e04:	2232      	movs	r2, #50	; 0x32
 8003e06:	fb02 f303 	mul.w	r3, r2, r3
 8003e0a:	4a3f      	ldr	r2, [pc, #252]	; (8003f08 <HAL_PWREx_ControlVoltageScaling+0x144>)
 8003e0c:	fba2 2303 	umull	r2, r3, r2, r3
 8003e10:	0c9b      	lsrs	r3, r3, #18
 8003e12:	3301      	adds	r3, #1
 8003e14:	60fb      	str	r3, [r7, #12]
      while ((HAL_IS_BIT_SET(PWR->SR2, PWR_SR2_VOSF)) && (wait_loop_index != 0U))
 8003e16:	e002      	b.n	8003e1e <HAL_PWREx_ControlVoltageScaling+0x5a>
      {
        wait_loop_index--;
 8003e18:	68fb      	ldr	r3, [r7, #12]
 8003e1a:	3b01      	subs	r3, #1
 8003e1c:	60fb      	str	r3, [r7, #12]
      while ((HAL_IS_BIT_SET(PWR->SR2, PWR_SR2_VOSF)) && (wait_loop_index != 0U))
 8003e1e:	4b38      	ldr	r3, [pc, #224]	; (8003f00 <HAL_PWREx_ControlVoltageScaling+0x13c>)
 8003e20:	695b      	ldr	r3, [r3, #20]
 8003e22:	f403 6380 	and.w	r3, r3, #1024	; 0x400
 8003e26:	f5b3 6f80 	cmp.w	r3, #1024	; 0x400
 8003e2a:	d102      	bne.n	8003e32 <HAL_PWREx_ControlVoltageScaling+0x6e>
 8003e2c:	68fb      	ldr	r3, [r7, #12]
 8003e2e:	2b00      	cmp	r3, #0
 8003e30:	d1f2      	bne.n	8003e18 <HAL_PWREx_ControlVoltageScaling+0x54>
      }
      if (HAL_IS_BIT_SET(PWR->SR2, PWR_SR2_VOSF))
 8003e32:	4b33      	ldr	r3, [pc, #204]	; (8003f00 <HAL_PWREx_ControlVoltageScaling+0x13c>)
 8003e34:	695b      	ldr	r3, [r3, #20]
 8003e36:	f403 6380 	and.w	r3, r3, #1024	; 0x400
 8003e3a:	f5b3 6f80 	cmp.w	r3, #1024	; 0x400
 8003e3e:	d158      	bne.n	8003ef2 <HAL_PWREx_ControlVoltageScaling+0x12e>
      {
        return HAL_TIMEOUT;
 8003e40:	2303      	movs	r3, #3
 8003e42:	e057      	b.n	8003ef4 <HAL_PWREx_ControlVoltageScaling+0x130>
    }
    /* If current range is range 1 normal or boost mode */
    else
    {
      /* Enable Range 1 Boost (no issue if bit already reset) */
      CLEAR_BIT(PWR->CR5, PWR_CR5_R1MODE);
 8003e44:	4b2e      	ldr	r3, [pc, #184]	; (8003f00 <HAL_PWREx_ControlVoltageScaling+0x13c>)
 8003e46:	f8d3 3080 	ldr.w	r3, [r3, #128]	; 0x80
 8003e4a:	4a2d      	ldr	r2, [pc, #180]	; (8003f00 <HAL_PWREx_ControlVoltageScaling+0x13c>)
 8003e4c:	f423 7380 	bic.w	r3, r3, #256	; 0x100
 8003e50:	f8c2 3080 	str.w	r3, [r2, #128]	; 0x80
 8003e54:	e04d      	b.n	8003ef2 <HAL_PWREx_ControlVoltageScaling+0x12e>
    }
  }
  else if (VoltageScaling == PWR_REGULATOR_VOLTAGE_SCALE1)
 8003e56:	687b      	ldr	r3, [r7, #4]
 8003e58:	f5b3 7f00 	cmp.w	r3, #512	; 0x200
 8003e5c:	d141      	bne.n	8003ee2 <HAL_PWREx_ControlVoltageScaling+0x11e>
  {
    /* If current range is range 2 */
    if (READ_BIT(PWR->CR1, PWR_CR1_VOS) == PWR_REGULATOR_VOLTAGE_SCALE2)
 8003e5e:	4b28      	ldr	r3, [pc, #160]	; (8003f00 <HAL_PWREx_ControlVoltageScaling+0x13c>)
 8003e60:	681b      	ldr	r3, [r3, #0]
 8003e62:	f403 63c0 	and.w	r3, r3, #1536	; 0x600
 8003e66:	f5b3 6f80 	cmp.w	r3, #1024	; 0x400
 8003e6a:	d131      	bne.n	8003ed0 <HAL_PWREx_ControlVoltageScaling+0x10c>
    {
      /* Make sure Range 1 Boost is disabled */
      SET_BIT(PWR->CR5, PWR_CR5_R1MODE);
 8003e6c:	4b24      	ldr	r3, [pc, #144]	; (8003f00 <HAL_PWREx_ControlVoltageScaling+0x13c>)
 8003e6e:	f8d3 3080 	ldr.w	r3, [r3, #128]	; 0x80
 8003e72:	4a23      	ldr	r2, [pc, #140]	; (8003f00 <HAL_PWREx_ControlVoltageScaling+0x13c>)
 8003e74:	f443 7380 	orr.w	r3, r3, #256	; 0x100
 8003e78:	f8c2 3080 	str.w	r3, [r2, #128]	; 0x80

      /* Set Range 1 */
      MODIFY_REG(PWR->CR1, PWR_CR1_VOS, PWR_REGULATOR_VOLTAGE_SCALE1);
 8003e7c:	4b20      	ldr	r3, [pc, #128]	; (8003f00 <HAL_PWREx_ControlVoltageScaling+0x13c>)
 8003e7e:	681b      	ldr	r3, [r3, #0]
 8003e80:	f423 63c0 	bic.w	r3, r3, #1536	; 0x600
 8003e84:	4a1e      	ldr	r2, [pc, #120]	; (8003f00 <HAL_PWREx_ControlVoltageScaling+0x13c>)
 8003e86:	f443 7300 	orr.w	r3, r3, #512	; 0x200
 8003e8a:	6013      	str	r3, [r2, #0]

      /* Wait until VOSF is cleared */
      wait_loop_index = ((PWR_FLAG_SETTING_DELAY_US * SystemCoreClock) / 1000000U) + 1U;
 8003e8c:	4b1d      	ldr	r3, [pc, #116]	; (8003f04 <HAL_PWREx_ControlVoltageScaling+0x140>)
 8003e8e:	681b      	ldr	r3, [r3, #0]
 8003e90:	2232      	movs	r2, #50	; 0x32
 8003e92:	fb02 f303 	mul.w	r3, r2, r3
 8003e96:	4a1c      	ldr	r2, [pc, #112]	; (8003f08 <HAL_PWREx_ControlVoltageScaling+0x144>)
 8003e98:	fba2 2303 	umull	r2, r3, r2, r3
 8003e9c:	0c9b      	lsrs	r3, r3, #18
 8003e9e:	3301      	adds	r3, #1
 8003ea0:	60fb      	str	r3, [r7, #12]
      while ((HAL_IS_BIT_SET(PWR->SR2, PWR_SR2_VOSF)) && (wait_loop_index != 0U))
 8003ea2:	e002      	b.n	8003eaa <HAL_PWREx_ControlVoltageScaling+0xe6>
      {
        wait_loop_index--;
 8003ea4:	68fb      	ldr	r3, [r7, #12]
 8003ea6:	3b01      	subs	r3, #1
 8003ea8:	60fb      	str	r3, [r7, #12]
      while ((HAL_IS_BIT_SET(PWR->SR2, PWR_SR2_VOSF)) && (wait_loop_index != 0U))
 8003eaa:	4b15      	ldr	r3, [pc, #84]	; (8003f00 <HAL_PWREx_ControlVoltageScaling+0x13c>)
 8003eac:	695b      	ldr	r3, [r3, #20]
 8003eae:	f403 6380 	and.w	r3, r3, #1024	; 0x400
 8003eb2:	f5b3 6f80 	cmp.w	r3, #1024	; 0x400
 8003eb6:	d102      	bne.n	8003ebe <HAL_PWREx_ControlVoltageScaling+0xfa>
 8003eb8:	68fb      	ldr	r3, [r7, #12]
 8003eba:	2b00      	cmp	r3, #0
 8003ebc:	d1f2      	bne.n	8003ea4 <HAL_PWREx_ControlVoltageScaling+0xe0>
      }
      if (HAL_IS_BIT_SET(PWR->SR2, PWR_SR2_VOSF))
 8003ebe:	4b10      	ldr	r3, [pc, #64]	; (8003f00 <HAL_PWREx_ControlVoltageScaling+0x13c>)
 8003ec0:	695b      	ldr	r3, [r3, #20]
 8003ec2:	f403 6380 	and.w	r3, r3, #1024	; 0x400
 8003ec6:	f5b3 6f80 	cmp.w	r3, #1024	; 0x400
 8003eca:	d112      	bne.n	8003ef2 <HAL_PWREx_ControlVoltageScaling+0x12e>
      {
        return HAL_TIMEOUT;
 8003ecc:	2303      	movs	r3, #3
 8003ece:	e011      	b.n	8003ef4 <HAL_PWREx_ControlVoltageScaling+0x130>
    }
     /* If current range is range 1 normal or boost mode */
    else
    {
      /* Disable Range 1 Boost (no issue if bit already set) */
      SET_BIT(PWR->CR5, PWR_CR5_R1MODE);
 8003ed0:	4b0b      	ldr	r3, [pc, #44]	; (8003f00 <HAL_PWREx_ControlVoltageScaling+0x13c>)
 8003ed2:	f8d3 3080 	ldr.w	r3, [r3, #128]	; 0x80
 8003ed6:	4a0a      	ldr	r2, [pc, #40]	; (8003f00 <HAL_PWREx_ControlVoltageScaling+0x13c>)
 8003ed8:	f443 7380 	orr.w	r3, r3, #256	; 0x100
 8003edc:	f8c2 3080 	str.w	r3, [r2, #128]	; 0x80
 8003ee0:	e007      	b.n	8003ef2 <HAL_PWREx_ControlVoltageScaling+0x12e>
    }
  }
  else
  {
    /* Set Range 2 */
    MODIFY_REG(PWR->CR1, PWR_CR1_VOS, PWR_REGULATOR_VOLTAGE_SCALE2);
 8003ee2:	4b07      	ldr	r3, [pc, #28]	; (8003f00 <HAL_PWREx_ControlVoltageScaling+0x13c>)
 8003ee4:	681b      	ldr	r3, [r3, #0]
 8003ee6:	f423 63c0 	bic.w	r3, r3, #1536	; 0x600
 8003eea:	4a05      	ldr	r2, [pc, #20]	; (8003f00 <HAL_PWREx_ControlVoltageScaling+0x13c>)
 8003eec:	f443 6380 	orr.w	r3, r3, #1024	; 0x400
 8003ef0:	6013      	str	r3, [r2, #0]
    /* No need to wait for VOSF to be cleared for this transition */
    /* PWR_CR5_R1MODE bit setting has no effect in Range 2        */
  }

  return HAL_OK;
 8003ef2:	2300      	movs	r3, #0
}
 8003ef4:	4618      	mov	r0, r3
 8003ef6:	3714      	adds	r7, #20
 8003ef8:	46bd      	mov	sp, r7
 8003efa:	f85d 7b04 	ldr.w	r7, [sp], #4
 8003efe:	4770      	bx	lr
 8003f00:	40007000 	.word	0x40007000
 8003f04:	20000018 	.word	0x20000018
 8003f08:	431bde83 	.word	0x431bde83

08003f0c <HAL_PWREx_DisableUCPDDeadBattery>:
  *       or to hand over control to the UCPD (which should therefore be
  *       initialized before doing the disable).
  * @retval None
  */
void HAL_PWREx_DisableUCPDDeadBattery(void)
{
 8003f0c:	b480      	push	{r7}
 8003f0e:	af00      	add	r7, sp, #0
  /* Write 1 to disable the USB Type-C dead battery pull-down behavior */
  SET_BIT(PWR->CR3, PWR_CR3_UCPD_DBDIS);
 8003f10:	4b05      	ldr	r3, [pc, #20]	; (8003f28 <HAL_PWREx_DisableUCPDDeadBattery+0x1c>)
 8003f12:	689b      	ldr	r3, [r3, #8]
 8003f14:	4a04      	ldr	r2, [pc, #16]	; (8003f28 <HAL_PWREx_DisableUCPDDeadBattery+0x1c>)
 8003f16:	f443 4380 	orr.w	r3, r3, #16384	; 0x4000
 8003f1a:	6093      	str	r3, [r2, #8]
}
 8003f1c:	bf00      	nop
 8003f1e:	46bd      	mov	sp, r7
 8003f20:	f85d 7b04 	ldr.w	r7, [sp], #4
 8003f24:	4770      	bx	lr
 8003f26:	bf00      	nop
 8003f28:	40007000 	.word	0x40007000

08003f2c <HAL_RCC_OscConfig>:
  *         supported by this macro. User should request a transition to HSE Off
  *         first and then HSE On or HSE Bypass.
  * @retval HAL status
  */
HAL_StatusTypeDef HAL_RCC_OscConfig(RCC_OscInitTypeDef  *RCC_OscInitStruct)
{
 8003f2c:	b580      	push	{r7, lr}
 8003f2e:	b088      	sub	sp, #32
 8003f30:	af00      	add	r7, sp, #0
 8003f32:	6078      	str	r0, [r7, #4]
  uint32_t tickstart;
  uint32_t temp_sysclksrc;
  uint32_t temp_pllckcfg;

  /* Check Null pointer */
  if (RCC_OscInitStruct == NULL)
 8003f34:	687b      	ldr	r3, [r7, #4]
 8003f36:	2b00      	cmp	r3, #0
 8003f38:	d101      	bne.n	8003f3e <HAL_RCC_OscConfig+0x12>
  {
    return HAL_ERROR;
 8003f3a:	2301      	movs	r3, #1
 8003f3c:	e2fe      	b.n	800453c <HAL_RCC_OscConfig+0x610>

  /* Check the parameters */
  assert_param(IS_RCC_OSCILLATORTYPE(RCC_OscInitStruct->OscillatorType));

  /*------------------------------- HSE Configuration ------------------------*/
  if (((RCC_OscInitStruct->OscillatorType) & RCC_OSCILLATORTYPE_HSE) == RCC_OSCILLATORTYPE_HSE)
 8003f3e:	687b      	ldr	r3, [r7, #4]
 8003f40:	681b      	ldr	r3, [r3, #0]
 8003f42:	f003 0301 	and.w	r3, r3, #1
 8003f46:	2b00      	cmp	r3, #0
 8003f48:	d075      	beq.n	8004036 <HAL_RCC_OscConfig+0x10a>
  {
    /* Check the parameters */
    assert_param(IS_RCC_HSE(RCC_OscInitStruct->HSEState));

    temp_sysclksrc = __HAL_RCC_GET_SYSCLK_SOURCE();
 8003f4a:	4b97      	ldr	r3, [pc, #604]	; (80041a8 <HAL_RCC_OscConfig+0x27c>)
 8003f4c:	689b      	ldr	r3, [r3, #8]
 8003f4e:	f003 030c 	and.w	r3, r3, #12
 8003f52:	61bb      	str	r3, [r7, #24]
    temp_pllckcfg = __HAL_RCC_GET_PLL_OSCSOURCE();
 8003f54:	4b94      	ldr	r3, [pc, #592]	; (80041a8 <HAL_RCC_OscConfig+0x27c>)
 8003f56:	68db      	ldr	r3, [r3, #12]
 8003f58:	f003 0303 	and.w	r3, r3, #3
 8003f5c:	617b      	str	r3, [r7, #20]

    /* When the HSE is used as system clock or clock source for PLL in these cases it is not allowed to be disabled */
    if (((temp_sysclksrc == RCC_CFGR_SWS_PLL) && (temp_pllckcfg == RCC_PLLSOURCE_HSE)) || (temp_sysclksrc == RCC_CFGR_SWS_HSE))
 8003f5e:	69bb      	ldr	r3, [r7, #24]
 8003f60:	2b0c      	cmp	r3, #12
 8003f62:	d102      	bne.n	8003f6a <HAL_RCC_OscConfig+0x3e>
 8003f64:	697b      	ldr	r3, [r7, #20]
 8003f66:	2b03      	cmp	r3, #3
 8003f68:	d002      	beq.n	8003f70 <HAL_RCC_OscConfig+0x44>
 8003f6a:	69bb      	ldr	r3, [r7, #24]
 8003f6c:	2b08      	cmp	r3, #8
 8003f6e:	d10b      	bne.n	8003f88 <HAL_RCC_OscConfig+0x5c>
    {
      if ((READ_BIT(RCC->CR, RCC_CR_HSERDY) != 0U) && (RCC_OscInitStruct->HSEState == RCC_HSE_OFF))
 8003f70:	4b8d      	ldr	r3, [pc, #564]	; (80041a8 <HAL_RCC_OscConfig+0x27c>)
 8003f72:	681b      	ldr	r3, [r3, #0]
 8003f74:	f403 3300 	and.w	r3, r3, #131072	; 0x20000
 8003f78:	2b00      	cmp	r3, #0
 8003f7a:	d05b      	beq.n	8004034 <HAL_RCC_OscConfig+0x108>
 8003f7c:	687b      	ldr	r3, [r7, #4]
 8003f7e:	685b      	ldr	r3, [r3, #4]
 8003f80:	2b00      	cmp	r3, #0
 8003f82:	d157      	bne.n	8004034 <HAL_RCC_OscConfig+0x108>
      {
        return HAL_ERROR;
 8003f84:	2301      	movs	r3, #1
 8003f86:	e2d9      	b.n	800453c <HAL_RCC_OscConfig+0x610>
      }
    }
    else
    {
      /* Set the new HSE configuration ---------------------------------------*/
      __HAL_RCC_HSE_CONFIG(RCC_OscInitStruct->HSEState);
 8003f88:	687b      	ldr	r3, [r7, #4]
 8003f8a:	685b      	ldr	r3, [r3, #4]
 8003f8c:	f5b3 3f80 	cmp.w	r3, #65536	; 0x10000
 8003f90:	d106      	bne.n	8003fa0 <HAL_RCC_OscConfig+0x74>
 8003f92:	4b85      	ldr	r3, [pc, #532]	; (80041a8 <HAL_RCC_OscConfig+0x27c>)
 8003f94:	681b      	ldr	r3, [r3, #0]
 8003f96:	4a84      	ldr	r2, [pc, #528]	; (80041a8 <HAL_RCC_OscConfig+0x27c>)
 8003f98:	f443 3380 	orr.w	r3, r3, #65536	; 0x10000
 8003f9c:	6013      	str	r3, [r2, #0]
 8003f9e:	e01d      	b.n	8003fdc <HAL_RCC_OscConfig+0xb0>
 8003fa0:	687b      	ldr	r3, [r7, #4]
 8003fa2:	685b      	ldr	r3, [r3, #4]
 8003fa4:	f5b3 2fa0 	cmp.w	r3, #327680	; 0x50000
 8003fa8:	d10c      	bne.n	8003fc4 <HAL_RCC_OscConfig+0x98>
 8003faa:	4b7f      	ldr	r3, [pc, #508]	; (80041a8 <HAL_RCC_OscConfig+0x27c>)
 8003fac:	681b      	ldr	r3, [r3, #0]
 8003fae:	4a7e      	ldr	r2, [pc, #504]	; (80041a8 <HAL_RCC_OscConfig+0x27c>)
 8003fb0:	f443 2380 	orr.w	r3, r3, #262144	; 0x40000
 8003fb4:	6013      	str	r3, [r2, #0]
 8003fb6:	4b7c      	ldr	r3, [pc, #496]	; (80041a8 <HAL_RCC_OscConfig+0x27c>)
 8003fb8:	681b      	ldr	r3, [r3, #0]
 8003fba:	4a7b      	ldr	r2, [pc, #492]	; (80041a8 <HAL_RCC_OscConfig+0x27c>)
 8003fbc:	f443 3380 	orr.w	r3, r3, #65536	; 0x10000
 8003fc0:	6013      	str	r3, [r2, #0]
 8003fc2:	e00b      	b.n	8003fdc <HAL_RCC_OscConfig+0xb0>
 8003fc4:	4b78      	ldr	r3, [pc, #480]	; (80041a8 <HAL_RCC_OscConfig+0x27c>)
 8003fc6:	681b      	ldr	r3, [r3, #0]
 8003fc8:	4a77      	ldr	r2, [pc, #476]	; (80041a8 <HAL_RCC_OscConfig+0x27c>)
 8003fca:	f423 3380 	bic.w	r3, r3, #65536	; 0x10000
 8003fce:	6013      	str	r3, [r2, #0]
 8003fd0:	4b75      	ldr	r3, [pc, #468]	; (80041a8 <HAL_RCC_OscConfig+0x27c>)
 8003fd2:	681b      	ldr	r3, [r3, #0]
 8003fd4:	4a74      	ldr	r2, [pc, #464]	; (80041a8 <HAL_RCC_OscConfig+0x27c>)
 8003fd6:	f423 2380 	bic.w	r3, r3, #262144	; 0x40000
 8003fda:	6013      	str	r3, [r2, #0]

      /* Check the HSE State */
      if (RCC_OscInitStruct->HSEState != RCC_HSE_OFF)
 8003fdc:	687b      	ldr	r3, [r7, #4]
 8003fde:	685b      	ldr	r3, [r3, #4]
 8003fe0:	2b00      	cmp	r3, #0
 8003fe2:	d013      	beq.n	800400c <HAL_RCC_OscConfig+0xe0>
      {
        /* Get Start Tick*/
        tickstart = HAL_GetTick();
 8003fe4:	f7fd fb7a 	bl	80016dc <HAL_GetTick>
 8003fe8:	6138      	str	r0, [r7, #16]

        /* Wait till HSE is ready */
        while (READ_BIT(RCC->CR, RCC_CR_HSERDY) == 0U)
 8003fea:	e008      	b.n	8003ffe <HAL_RCC_OscConfig+0xd2>
        {
          if ((HAL_GetTick() - tickstart) > HSE_TIMEOUT_VALUE)
 8003fec:	f7fd fb76 	bl	80016dc <HAL_GetTick>
 8003ff0:	4602      	mov	r2, r0
 8003ff2:	693b      	ldr	r3, [r7, #16]
 8003ff4:	1ad3      	subs	r3, r2, r3
 8003ff6:	2b64      	cmp	r3, #100	; 0x64
 8003ff8:	d901      	bls.n	8003ffe <HAL_RCC_OscConfig+0xd2>
          {
            return HAL_TIMEOUT;
 8003ffa:	2303      	movs	r3, #3
 8003ffc:	e29e      	b.n	800453c <HAL_RCC_OscConfig+0x610>
        while (READ_BIT(RCC->CR, RCC_CR_HSERDY) == 0U)
 8003ffe:	4b6a      	ldr	r3, [pc, #424]	; (80041a8 <HAL_RCC_OscConfig+0x27c>)
 8004000:	681b      	ldr	r3, [r3, #0]
 8004002:	f403 3300 	and.w	r3, r3, #131072	; 0x20000
 8004006:	2b00      	cmp	r3, #0
 8004008:	d0f0      	beq.n	8003fec <HAL_RCC_OscConfig+0xc0>
 800400a:	e014      	b.n	8004036 <HAL_RCC_OscConfig+0x10a>
        }
      }
      else
      {
        /* Get Start Tick*/
        tickstart = HAL_GetTick();
 800400c:	f7fd fb66 	bl	80016dc <HAL_GetTick>
 8004010:	6138      	str	r0, [r7, #16]

        /* Wait till HSE is disabled */
        while (READ_BIT(RCC->CR, RCC_CR_HSERDY) != 0U)
 8004012:	e008      	b.n	8004026 <HAL_RCC_OscConfig+0xfa>
        {
          if ((HAL_GetTick() - tickstart) > HSE_TIMEOUT_VALUE)
 8004014:	f7fd fb62 	bl	80016dc <HAL_GetTick>
 8004018:	4602      	mov	r2, r0
 800401a:	693b      	ldr	r3, [r7, #16]
 800401c:	1ad3      	subs	r3, r2, r3
 800401e:	2b64      	cmp	r3, #100	; 0x64
 8004020:	d901      	bls.n	8004026 <HAL_RCC_OscConfig+0xfa>
          {
            return HAL_TIMEOUT;
 8004022:	2303      	movs	r3, #3
 8004024:	e28a      	b.n	800453c <HAL_RCC_OscConfig+0x610>
        while (READ_BIT(RCC->CR, RCC_CR_HSERDY) != 0U)
 8004026:	4b60      	ldr	r3, [pc, #384]	; (80041a8 <HAL_RCC_OscConfig+0x27c>)
 8004028:	681b      	ldr	r3, [r3, #0]
 800402a:	f403 3300 	and.w	r3, r3, #131072	; 0x20000
 800402e:	2b00      	cmp	r3, #0
 8004030:	d1f0      	bne.n	8004014 <HAL_RCC_OscConfig+0xe8>
 8004032:	e000      	b.n	8004036 <HAL_RCC_OscConfig+0x10a>
      if ((READ_BIT(RCC->CR, RCC_CR_HSERDY) != 0U) && (RCC_OscInitStruct->HSEState == RCC_HSE_OFF))
 8004034:	bf00      	nop
        }
      }
    }
  }
  /*----------------------------- HSI Configuration --------------------------*/
  if (((RCC_OscInitStruct->OscillatorType) & RCC_OSCILLATORTYPE_HSI) == RCC_OSCILLATORTYPE_HSI)
 8004036:	687b      	ldr	r3, [r7, #4]
 8004038:	681b      	ldr	r3, [r3, #0]
 800403a:	f003 0302 	and.w	r3, r3, #2
 800403e:	2b00      	cmp	r3, #0
 8004040:	d075      	beq.n	800412e <HAL_RCC_OscConfig+0x202>
    /* Check the parameters */
    assert_param(IS_RCC_HSI(RCC_OscInitStruct->HSIState));
    assert_param(IS_RCC_HSI_CALIBRATION_VALUE(RCC_OscInitStruct->HSICalibrationValue));

    /* Check if HSI is used as system clock or as PLL source when PLL is selected as system clock */
    temp_sysclksrc = __HAL_RCC_GET_SYSCLK_SOURCE();
 8004042:	4b59      	ldr	r3, [pc, #356]	; (80041a8 <HAL_RCC_OscConfig+0x27c>)
 8004044:	689b      	ldr	r3, [r3, #8]
 8004046:	f003 030c 	and.w	r3, r3, #12
 800404a:	61bb      	str	r3, [r7, #24]
    temp_pllckcfg = __HAL_RCC_GET_PLL_OSCSOURCE();
 800404c:	4b56      	ldr	r3, [pc, #344]	; (80041a8 <HAL_RCC_OscConfig+0x27c>)
 800404e:	68db      	ldr	r3, [r3, #12]
 8004050:	f003 0303 	and.w	r3, r3, #3
 8004054:	617b      	str	r3, [r7, #20]
    if (((temp_sysclksrc == RCC_CFGR_SWS_PLL) && (temp_pllckcfg == RCC_PLLSOURCE_HSI)) || (temp_sysclksrc == RCC_CFGR_SWS_HSI))
 8004056:	69bb      	ldr	r3, [r7, #24]
 8004058:	2b0c      	cmp	r3, #12
 800405a:	d102      	bne.n	8004062 <HAL_RCC_OscConfig+0x136>
 800405c:	697b      	ldr	r3, [r7, #20]
 800405e:	2b02      	cmp	r3, #2
 8004060:	d002      	beq.n	8004068 <HAL_RCC_OscConfig+0x13c>
 8004062:	69bb      	ldr	r3, [r7, #24]
 8004064:	2b04      	cmp	r3, #4
 8004066:	d11f      	bne.n	80040a8 <HAL_RCC_OscConfig+0x17c>
    {
      /* When HSI is used as system clock it will not be disabled */
      if ((READ_BIT(RCC->CR, RCC_CR_HSIRDY) != 0U) && (RCC_OscInitStruct->HSIState == RCC_HSI_OFF))
 8004068:	4b4f      	ldr	r3, [pc, #316]	; (80041a8 <HAL_RCC_OscConfig+0x27c>)
 800406a:	681b      	ldr	r3, [r3, #0]
 800406c:	f403 6380 	and.w	r3, r3, #1024	; 0x400
 8004070:	2b00      	cmp	r3, #0
 8004072:	d005      	beq.n	8004080 <HAL_RCC_OscConfig+0x154>
 8004074:	687b      	ldr	r3, [r7, #4]
 8004076:	68db      	ldr	r3, [r3, #12]
 8004078:	2b00      	cmp	r3, #0
 800407a:	d101      	bne.n	8004080 <HAL_RCC_OscConfig+0x154>
      {
        return HAL_ERROR;
 800407c:	2301      	movs	r3, #1
 800407e:	e25d      	b.n	800453c <HAL_RCC_OscConfig+0x610>
      }
      /* Otherwise, just the calibration is allowed */
      else
      {
        /* Adjusts the Internal High Speed oscillator (HSI) calibration value.*/
        __HAL_RCC_HSI_CALIBRATIONVALUE_ADJUST(RCC_OscInitStruct->HSICalibrationValue);
 8004080:	4b49      	ldr	r3, [pc, #292]	; (80041a8 <HAL_RCC_OscConfig+0x27c>)
 8004082:	685b      	ldr	r3, [r3, #4]
 8004084:	f023 42fe 	bic.w	r2, r3, #2130706432	; 0x7f000000
 8004088:	687b      	ldr	r3, [r7, #4]
 800408a:	691b      	ldr	r3, [r3, #16]
 800408c:	061b      	lsls	r3, r3, #24
 800408e:	4946      	ldr	r1, [pc, #280]	; (80041a8 <HAL_RCC_OscConfig+0x27c>)
 8004090:	4313      	orrs	r3, r2
 8004092:	604b      	str	r3, [r1, #4]

        /* Adapt Systick interrupt period */
        if (HAL_InitTick(uwTickPrio) != HAL_OK)
 8004094:	4b45      	ldr	r3, [pc, #276]	; (80041ac <HAL_RCC_OscConfig+0x280>)
 8004096:	681b      	ldr	r3, [r3, #0]
 8004098:	4618      	mov	r0, r3
 800409a:	f7fd fad3 	bl	8001644 <HAL_InitTick>
 800409e:	4603      	mov	r3, r0
 80040a0:	2b00      	cmp	r3, #0
 80040a2:	d043      	beq.n	800412c <HAL_RCC_OscConfig+0x200>
        {
          return HAL_ERROR;
 80040a4:	2301      	movs	r3, #1
 80040a6:	e249      	b.n	800453c <HAL_RCC_OscConfig+0x610>
      }
    }
    else
    {
      /* Check the HSI State */
      if (RCC_OscInitStruct->HSIState != RCC_HSI_OFF)
 80040a8:	687b      	ldr	r3, [r7, #4]
 80040aa:	68db      	ldr	r3, [r3, #12]
 80040ac:	2b00      	cmp	r3, #0
 80040ae:	d023      	beq.n	80040f8 <HAL_RCC_OscConfig+0x1cc>
      {
        /* Enable the Internal High Speed oscillator (HSI). */
        __HAL_RCC_HSI_ENABLE();
 80040b0:	4b3d      	ldr	r3, [pc, #244]	; (80041a8 <HAL_RCC_OscConfig+0x27c>)
 80040b2:	681b      	ldr	r3, [r3, #0]
 80040b4:	4a3c      	ldr	r2, [pc, #240]	; (80041a8 <HAL_RCC_OscConfig+0x27c>)
 80040b6:	f443 7380 	orr.w	r3, r3, #256	; 0x100
 80040ba:	6013      	str	r3, [r2, #0]

        /* Get Start Tick*/
        tickstart = HAL_GetTick();
 80040bc:	f7fd fb0e 	bl	80016dc <HAL_GetTick>
 80040c0:	6138      	str	r0, [r7, #16]

        /* Wait till HSI is ready */
        while (READ_BIT(RCC->CR, RCC_CR_HSIRDY) == 0U)
 80040c2:	e008      	b.n	80040d6 <HAL_RCC_OscConfig+0x1aa>
        {
          if ((HAL_GetTick() - tickstart) > HSI_TIMEOUT_VALUE)
 80040c4:	f7fd fb0a 	bl	80016dc <HAL_GetTick>
 80040c8:	4602      	mov	r2, r0
 80040ca:	693b      	ldr	r3, [r7, #16]
 80040cc:	1ad3      	subs	r3, r2, r3
 80040ce:	2b02      	cmp	r3, #2
 80040d0:	d901      	bls.n	80040d6 <HAL_RCC_OscConfig+0x1aa>
          {
            return HAL_TIMEOUT;
 80040d2:	2303      	movs	r3, #3
 80040d4:	e232      	b.n	800453c <HAL_RCC_OscConfig+0x610>
        while (READ_BIT(RCC->CR, RCC_CR_HSIRDY) == 0U)
 80040d6:	4b34      	ldr	r3, [pc, #208]	; (80041a8 <HAL_RCC_OscConfig+0x27c>)
 80040d8:	681b      	ldr	r3, [r3, #0]
 80040da:	f403 6380 	and.w	r3, r3, #1024	; 0x400
 80040de:	2b00      	cmp	r3, #0
 80040e0:	d0f0      	beq.n	80040c4 <HAL_RCC_OscConfig+0x198>
          }
        }

        /* Adjusts the Internal High Speed oscillator (HSI) calibration value.*/
        __HAL_RCC_HSI_CALIBRATIONVALUE_ADJUST(RCC_OscInitStruct->HSICalibrationValue);
 80040e2:	4b31      	ldr	r3, [pc, #196]	; (80041a8 <HAL_RCC_OscConfig+0x27c>)
 80040e4:	685b      	ldr	r3, [r3, #4]
 80040e6:	f023 42fe 	bic.w	r2, r3, #2130706432	; 0x7f000000
 80040ea:	687b      	ldr	r3, [r7, #4]
 80040ec:	691b      	ldr	r3, [r3, #16]
 80040ee:	061b      	lsls	r3, r3, #24
 80040f0:	492d      	ldr	r1, [pc, #180]	; (80041a8 <HAL_RCC_OscConfig+0x27c>)
 80040f2:	4313      	orrs	r3, r2
 80040f4:	604b      	str	r3, [r1, #4]
 80040f6:	e01a      	b.n	800412e <HAL_RCC_OscConfig+0x202>
      }
      else
      {
        /* Disable the Internal High Speed oscillator (HSI). */
        __HAL_RCC_HSI_DISABLE();
 80040f8:	4b2b      	ldr	r3, [pc, #172]	; (80041a8 <HAL_RCC_OscConfig+0x27c>)
 80040fa:	681b      	ldr	r3, [r3, #0]
 80040fc:	4a2a      	ldr	r2, [pc, #168]	; (80041a8 <HAL_RCC_OscConfig+0x27c>)
 80040fe:	f423 7380 	bic.w	r3, r3, #256	; 0x100
 8004102:	6013      	str	r3, [r2, #0]

        /* Get Start Tick*/
        tickstart = HAL_GetTick();
 8004104:	f7fd faea 	bl	80016dc <HAL_GetTick>
 8004108:	6138      	str	r0, [r7, #16]

        /* Wait till HSI is disabled */
        while (READ_BIT(RCC->CR, RCC_CR_HSIRDY) != 0U)
 800410a:	e008      	b.n	800411e <HAL_RCC_OscConfig+0x1f2>
        {
          if ((HAL_GetTick() - tickstart) > HSI_TIMEOUT_VALUE)
 800410c:	f7fd fae6 	bl	80016dc <HAL_GetTick>
 8004110:	4602      	mov	r2, r0
 8004112:	693b      	ldr	r3, [r7, #16]
 8004114:	1ad3      	subs	r3, r2, r3
 8004116:	2b02      	cmp	r3, #2
 8004118:	d901      	bls.n	800411e <HAL_RCC_OscConfig+0x1f2>
          {
            return HAL_TIMEOUT;
 800411a:	2303      	movs	r3, #3
 800411c:	e20e      	b.n	800453c <HAL_RCC_OscConfig+0x610>
        while (READ_BIT(RCC->CR, RCC_CR_HSIRDY) != 0U)
 800411e:	4b22      	ldr	r3, [pc, #136]	; (80041a8 <HAL_RCC_OscConfig+0x27c>)
 8004120:	681b      	ldr	r3, [r3, #0]
 8004122:	f403 6380 	and.w	r3, r3, #1024	; 0x400
 8004126:	2b00      	cmp	r3, #0
 8004128:	d1f0      	bne.n	800410c <HAL_RCC_OscConfig+0x1e0>
 800412a:	e000      	b.n	800412e <HAL_RCC_OscConfig+0x202>
      if ((READ_BIT(RCC->CR, RCC_CR_HSIRDY) != 0U) && (RCC_OscInitStruct->HSIState == RCC_HSI_OFF))
 800412c:	bf00      	nop
        }
      }
    }
  }
  /*------------------------------ LSI Configuration -------------------------*/
  if (((RCC_OscInitStruct->OscillatorType) & RCC_OSCILLATORTYPE_LSI) == RCC_OSCILLATORTYPE_LSI)
 800412e:	687b      	ldr	r3, [r7, #4]
 8004130:	681b      	ldr	r3, [r3, #0]
 8004132:	f003 0308 	and.w	r3, r3, #8
 8004136:	2b00      	cmp	r3, #0
 8004138:	d041      	beq.n	80041be <HAL_RCC_OscConfig+0x292>
  {
    /* Check the parameters */
    assert_param(IS_RCC_LSI(RCC_OscInitStruct->LSIState));

    /* Check the LSI State */
    if(RCC_OscInitStruct->LSIState != RCC_LSI_OFF)
 800413a:	687b      	ldr	r3, [r7, #4]
 800413c:	695b      	ldr	r3, [r3, #20]
 800413e:	2b00      	cmp	r3, #0
 8004140:	d01c      	beq.n	800417c <HAL_RCC_OscConfig+0x250>
    {
      /* Enable the Internal Low Speed oscillator (LSI). */
      __HAL_RCC_LSI_ENABLE();
 8004142:	4b19      	ldr	r3, [pc, #100]	; (80041a8 <HAL_RCC_OscConfig+0x27c>)
 8004144:	f8d3 3094 	ldr.w	r3, [r3, #148]	; 0x94
 8004148:	4a17      	ldr	r2, [pc, #92]	; (80041a8 <HAL_RCC_OscConfig+0x27c>)
 800414a:	f043 0301 	orr.w	r3, r3, #1
 800414e:	f8c2 3094 	str.w	r3, [r2, #148]	; 0x94

      /* Get Start Tick*/
      tickstart = HAL_GetTick();
 8004152:	f7fd fac3 	bl	80016dc <HAL_GetTick>
 8004156:	6138      	str	r0, [r7, #16]

      /* Wait till LSI is ready */
      while (READ_BIT(RCC->CSR, RCC_CSR_LSIRDY) == 0U)
 8004158:	e008      	b.n	800416c <HAL_RCC_OscConfig+0x240>
      {
        if ((HAL_GetTick() - tickstart) > LSI_TIMEOUT_VALUE)
 800415a:	f7fd fabf 	bl	80016dc <HAL_GetTick>
 800415e:	4602      	mov	r2, r0
 8004160:	693b      	ldr	r3, [r7, #16]
 8004162:	1ad3      	subs	r3, r2, r3
 8004164:	2b02      	cmp	r3, #2
 8004166:	d901      	bls.n	800416c <HAL_RCC_OscConfig+0x240>
        {
          return HAL_TIMEOUT;
 8004168:	2303      	movs	r3, #3
 800416a:	e1e7      	b.n	800453c <HAL_RCC_OscConfig+0x610>
      while (READ_BIT(RCC->CSR, RCC_CSR_LSIRDY) == 0U)
 800416c:	4b0e      	ldr	r3, [pc, #56]	; (80041a8 <HAL_RCC_OscConfig+0x27c>)
 800416e:	f8d3 3094 	ldr.w	r3, [r3, #148]	; 0x94
 8004172:	f003 0302 	and.w	r3, r3, #2
 8004176:	2b00      	cmp	r3, #0
 8004178:	d0ef      	beq.n	800415a <HAL_RCC_OscConfig+0x22e>
 800417a:	e020      	b.n	80041be <HAL_RCC_OscConfig+0x292>
      }
    }
    else
    {
      /* Disable the Internal Low Speed oscillator (LSI). */
      __HAL_RCC_LSI_DISABLE();
 800417c:	4b0a      	ldr	r3, [pc, #40]	; (80041a8 <HAL_RCC_OscConfig+0x27c>)
 800417e:	f8d3 3094 	ldr.w	r3, [r3, #148]	; 0x94
 8004182:	4a09      	ldr	r2, [pc, #36]	; (80041a8 <HAL_RCC_OscConfig+0x27c>)
 8004184:	f023 0301 	bic.w	r3, r3, #1
 8004188:	f8c2 3094 	str.w	r3, [r2, #148]	; 0x94

      /* Get Start Tick*/
      tickstart = HAL_GetTick();
 800418c:	f7fd faa6 	bl	80016dc <HAL_GetTick>
 8004190:	6138      	str	r0, [r7, #16]

      /* Wait till LSI is disabled */
      while(READ_BIT(RCC->CSR, RCC_CSR_LSIRDY) != 0U)
 8004192:	e00d      	b.n	80041b0 <HAL_RCC_OscConfig+0x284>
      {
        if((HAL_GetTick() - tickstart) > LSI_TIMEOUT_VALUE)
 8004194:	f7fd faa2 	bl	80016dc <HAL_GetTick>
 8004198:	4602      	mov	r2, r0
 800419a:	693b      	ldr	r3, [r7, #16]
 800419c:	1ad3      	subs	r3, r2, r3
 800419e:	2b02      	cmp	r3, #2
 80041a0:	d906      	bls.n	80041b0 <HAL_RCC_OscConfig+0x284>
        {
          return HAL_TIMEOUT;
 80041a2:	2303      	movs	r3, #3
 80041a4:	e1ca      	b.n	800453c <HAL_RCC_OscConfig+0x610>
 80041a6:	bf00      	nop
 80041a8:	40021000 	.word	0x40021000
 80041ac:	2000001c 	.word	0x2000001c
      while(READ_BIT(RCC->CSR, RCC_CSR_LSIRDY) != 0U)
 80041b0:	4b8c      	ldr	r3, [pc, #560]	; (80043e4 <HAL_RCC_OscConfig+0x4b8>)
 80041b2:	f8d3 3094 	ldr.w	r3, [r3, #148]	; 0x94
 80041b6:	f003 0302 	and.w	r3, r3, #2
 80041ba:	2b00      	cmp	r3, #0
 80041bc:	d1ea      	bne.n	8004194 <HAL_RCC_OscConfig+0x268>
        }
      }
    }
  }
  /*------------------------------ LSE Configuration -------------------------*/
  if (((RCC_OscInitStruct->OscillatorType) & RCC_OSCILLATORTYPE_LSE) == RCC_OSCILLATORTYPE_LSE)
 80041be:	687b      	ldr	r3, [r7, #4]
 80041c0:	681b      	ldr	r3, [r3, #0]
 80041c2:	f003 0304 	and.w	r3, r3, #4
 80041c6:	2b00      	cmp	r3, #0
 80041c8:	f000 80a6 	beq.w	8004318 <HAL_RCC_OscConfig+0x3ec>
  {
    FlagStatus       pwrclkchanged = RESET;
 80041cc:	2300      	movs	r3, #0
 80041ce:	77fb      	strb	r3, [r7, #31]
    /* Check the parameters */
    assert_param(IS_RCC_LSE(RCC_OscInitStruct->LSEState));

    /* Update LSE configuration in Backup Domain control register    */
    /* Requires to enable write access to Backup Domain if necessary */
    if (__HAL_RCC_PWR_IS_CLK_DISABLED() != 0U)
 80041d0:	4b84      	ldr	r3, [pc, #528]	; (80043e4 <HAL_RCC_OscConfig+0x4b8>)
 80041d2:	6d9b      	ldr	r3, [r3, #88]	; 0x58
 80041d4:	f003 5380 	and.w	r3, r3, #268435456	; 0x10000000
 80041d8:	2b00      	cmp	r3, #0
 80041da:	d101      	bne.n	80041e0 <HAL_RCC_OscConfig+0x2b4>
 80041dc:	2301      	movs	r3, #1
 80041de:	e000      	b.n	80041e2 <HAL_RCC_OscConfig+0x2b6>
 80041e0:	2300      	movs	r3, #0
 80041e2:	2b00      	cmp	r3, #0
 80041e4:	d00d      	beq.n	8004202 <HAL_RCC_OscConfig+0x2d6>
    {
      __HAL_RCC_PWR_CLK_ENABLE();
 80041e6:	4b7f      	ldr	r3, [pc, #508]	; (80043e4 <HAL_RCC_OscConfig+0x4b8>)
 80041e8:	6d9b      	ldr	r3, [r3, #88]	; 0x58
 80041ea:	4a7e      	ldr	r2, [pc, #504]	; (80043e4 <HAL_RCC_OscConfig+0x4b8>)
 80041ec:	f043 5380 	orr.w	r3, r3, #268435456	; 0x10000000
 80041f0:	6593      	str	r3, [r2, #88]	; 0x58
 80041f2:	4b7c      	ldr	r3, [pc, #496]	; (80043e4 <HAL_RCC_OscConfig+0x4b8>)
 80041f4:	6d9b      	ldr	r3, [r3, #88]	; 0x58
 80041f6:	f003 5380 	and.w	r3, r3, #268435456	; 0x10000000
 80041fa:	60fb      	str	r3, [r7, #12]
 80041fc:	68fb      	ldr	r3, [r7, #12]
      pwrclkchanged = SET;
 80041fe:	2301      	movs	r3, #1
 8004200:	77fb      	strb	r3, [r7, #31]
    }

    if (HAL_IS_BIT_CLR(PWR->CR1, PWR_CR1_DBP))
 8004202:	4b79      	ldr	r3, [pc, #484]	; (80043e8 <HAL_RCC_OscConfig+0x4bc>)
 8004204:	681b      	ldr	r3, [r3, #0]
 8004206:	f403 7380 	and.w	r3, r3, #256	; 0x100
 800420a:	2b00      	cmp	r3, #0
 800420c:	d118      	bne.n	8004240 <HAL_RCC_OscConfig+0x314>
    {
      /* Enable write access to Backup domain */
      SET_BIT(PWR->CR1, PWR_CR1_DBP);
 800420e:	4b76      	ldr	r3, [pc, #472]	; (80043e8 <HAL_RCC_OscConfig+0x4bc>)
 8004210:	681b      	ldr	r3, [r3, #0]
 8004212:	4a75      	ldr	r2, [pc, #468]	; (80043e8 <HAL_RCC_OscConfig+0x4bc>)
 8004214:	f443 7380 	orr.w	r3, r3, #256	; 0x100
 8004218:	6013      	str	r3, [r2, #0]

      /* Wait for Backup domain Write protection disable */
      tickstart = HAL_GetTick();
 800421a:	f7fd fa5f 	bl	80016dc <HAL_GetTick>
 800421e:	6138      	str	r0, [r7, #16]

      while (HAL_IS_BIT_CLR(PWR->CR1, PWR_CR1_DBP))
 8004220:	e008      	b.n	8004234 <HAL_RCC_OscConfig+0x308>
      {
        if ((HAL_GetTick() - tickstart) > RCC_DBP_TIMEOUT_VALUE)
 8004222:	f7fd fa5b 	bl	80016dc <HAL_GetTick>
 8004226:	4602      	mov	r2, r0
 8004228:	693b      	ldr	r3, [r7, #16]
 800422a:	1ad3      	subs	r3, r2, r3
 800422c:	2b02      	cmp	r3, #2
 800422e:	d901      	bls.n	8004234 <HAL_RCC_OscConfig+0x308>
        {
          return HAL_TIMEOUT;
 8004230:	2303      	movs	r3, #3
 8004232:	e183      	b.n	800453c <HAL_RCC_OscConfig+0x610>
      while (HAL_IS_BIT_CLR(PWR->CR1, PWR_CR1_DBP))
 8004234:	4b6c      	ldr	r3, [pc, #432]	; (80043e8 <HAL_RCC_OscConfig+0x4bc>)
 8004236:	681b      	ldr	r3, [r3, #0]
 8004238:	f403 7380 	and.w	r3, r3, #256	; 0x100
 800423c:	2b00      	cmp	r3, #0
 800423e:	d0f0      	beq.n	8004222 <HAL_RCC_OscConfig+0x2f6>
        }
      }
    }

    /* Set the new LSE configuration -----------------------------------------*/
    __HAL_RCC_LSE_CONFIG(RCC_OscInitStruct->LSEState);
 8004240:	687b      	ldr	r3, [r7, #4]
 8004242:	689b      	ldr	r3, [r3, #8]
 8004244:	2b01      	cmp	r3, #1
 8004246:	d108      	bne.n	800425a <HAL_RCC_OscConfig+0x32e>
 8004248:	4b66      	ldr	r3, [pc, #408]	; (80043e4 <HAL_RCC_OscConfig+0x4b8>)
 800424a:	f8d3 3090 	ldr.w	r3, [r3, #144]	; 0x90
 800424e:	4a65      	ldr	r2, [pc, #404]	; (80043e4 <HAL_RCC_OscConfig+0x4b8>)
 8004250:	f043 0301 	orr.w	r3, r3, #1
 8004254:	f8c2 3090 	str.w	r3, [r2, #144]	; 0x90
 8004258:	e024      	b.n	80042a4 <HAL_RCC_OscConfig+0x378>
 800425a:	687b      	ldr	r3, [r7, #4]
 800425c:	689b      	ldr	r3, [r3, #8]
 800425e:	2b05      	cmp	r3, #5
 8004260:	d110      	bne.n	8004284 <HAL_RCC_OscConfig+0x358>
 8004262:	4b60      	ldr	r3, [pc, #384]	; (80043e4 <HAL_RCC_OscConfig+0x4b8>)
 8004264:	f8d3 3090 	ldr.w	r3, [r3, #144]	; 0x90
 8004268:	4a5e      	ldr	r2, [pc, #376]	; (80043e4 <HAL_RCC_OscConfig+0x4b8>)
 800426a:	f043 0304 	orr.w	r3, r3, #4
 800426e:	f8c2 3090 	str.w	r3, [r2, #144]	; 0x90
 8004272:	4b5c      	ldr	r3, [pc, #368]	; (80043e4 <HAL_RCC_OscConfig+0x4b8>)
 8004274:	f8d3 3090 	ldr.w	r3, [r3, #144]	; 0x90
 8004278:	4a5a      	ldr	r2, [pc, #360]	; (80043e4 <HAL_RCC_OscConfig+0x4b8>)
 800427a:	f043 0301 	orr.w	r3, r3, #1
 800427e:	f8c2 3090 	str.w	r3, [r2, #144]	; 0x90
 8004282:	e00f      	b.n	80042a4 <HAL_RCC_OscConfig+0x378>
 8004284:	4b57      	ldr	r3, [pc, #348]	; (80043e4 <HAL_RCC_OscConfig+0x4b8>)
 8004286:	f8d3 3090 	ldr.w	r3, [r3, #144]	; 0x90
 800428a:	4a56      	ldr	r2, [pc, #344]	; (80043e4 <HAL_RCC_OscConfig+0x4b8>)
 800428c:	f023 0301 	bic.w	r3, r3, #1
 8004290:	f8c2 3090 	str.w	r3, [r2, #144]	; 0x90
 8004294:	4b53      	ldr	r3, [pc, #332]	; (80043e4 <HAL_RCC_OscConfig+0x4b8>)
 8004296:	f8d3 3090 	ldr.w	r3, [r3, #144]	; 0x90
 800429a:	4a52      	ldr	r2, [pc, #328]	; (80043e4 <HAL_RCC_OscConfig+0x4b8>)
 800429c:	f023 0304 	bic.w	r3, r3, #4
 80042a0:	f8c2 3090 	str.w	r3, [r2, #144]	; 0x90

    /* Check the LSE State */
    if (RCC_OscInitStruct->LSEState != RCC_LSE_OFF)
 80042a4:	687b      	ldr	r3, [r7, #4]
 80042a6:	689b      	ldr	r3, [r3, #8]
 80042a8:	2b00      	cmp	r3, #0
 80042aa:	d016      	beq.n	80042da <HAL_RCC_OscConfig+0x3ae>
    {
      /* Get Start Tick*/
      tickstart = HAL_GetTick();
 80042ac:	f7fd fa16 	bl	80016dc <HAL_GetTick>
 80042b0:	6138      	str	r0, [r7, #16]

      /* Wait till LSE is ready */
      while (READ_BIT(RCC->BDCR, RCC_BDCR_LSERDY) == 0U)
 80042b2:	e00a      	b.n	80042ca <HAL_RCC_OscConfig+0x39e>
      {
        if((HAL_GetTick() - tickstart) > RCC_LSE_TIMEOUT_VALUE)
 80042b4:	f7fd fa12 	bl	80016dc <HAL_GetTick>
 80042b8:	4602      	mov	r2, r0
 80042ba:	693b      	ldr	r3, [r7, #16]
 80042bc:	1ad3      	subs	r3, r2, r3
 80042be:	f241 3288 	movw	r2, #5000	; 0x1388
 80042c2:	4293      	cmp	r3, r2
 80042c4:	d901      	bls.n	80042ca <HAL_RCC_OscConfig+0x39e>
        {
          return HAL_TIMEOUT;
 80042c6:	2303      	movs	r3, #3
 80042c8:	e138      	b.n	800453c <HAL_RCC_OscConfig+0x610>
      while (READ_BIT(RCC->BDCR, RCC_BDCR_LSERDY) == 0U)
 80042ca:	4b46      	ldr	r3, [pc, #280]	; (80043e4 <HAL_RCC_OscConfig+0x4b8>)
 80042cc:	f8d3 3090 	ldr.w	r3, [r3, #144]	; 0x90
 80042d0:	f003 0302 	and.w	r3, r3, #2
 80042d4:	2b00      	cmp	r3, #0
 80042d6:	d0ed      	beq.n	80042b4 <HAL_RCC_OscConfig+0x388>
 80042d8:	e015      	b.n	8004306 <HAL_RCC_OscConfig+0x3da>
      }
    }
    else
    {
      /* Get Start Tick*/
      tickstart = HAL_GetTick();
 80042da:	f7fd f9ff 	bl	80016dc <HAL_GetTick>
 80042de:	6138      	str	r0, [r7, #16]

      /* Wait till LSE is disabled */
      while (READ_BIT(RCC->BDCR, RCC_BDCR_LSERDY) != 0U)
 80042e0:	e00a      	b.n	80042f8 <HAL_RCC_OscConfig+0x3cc>
      {
        if((HAL_GetTick() - tickstart) > RCC_LSE_TIMEOUT_VALUE)
 80042e2:	f7fd f9fb 	bl	80016dc <HAL_GetTick>
 80042e6:	4602      	mov	r2, r0
 80042e8:	693b      	ldr	r3, [r7, #16]
 80042ea:	1ad3      	subs	r3, r2, r3
 80042ec:	f241 3288 	movw	r2, #5000	; 0x1388
 80042f0:	4293      	cmp	r3, r2
 80042f2:	d901      	bls.n	80042f8 <HAL_RCC_OscConfig+0x3cc>
        {
          return HAL_TIMEOUT;
 80042f4:	2303      	movs	r3, #3
 80042f6:	e121      	b.n	800453c <HAL_RCC_OscConfig+0x610>
      while (READ_BIT(RCC->BDCR, RCC_BDCR_LSERDY) != 0U)
 80042f8:	4b3a      	ldr	r3, [pc, #232]	; (80043e4 <HAL_RCC_OscConfig+0x4b8>)
 80042fa:	f8d3 3090 	ldr.w	r3, [r3, #144]	; 0x90
 80042fe:	f003 0302 	and.w	r3, r3, #2
 8004302:	2b00      	cmp	r3, #0
 8004304:	d1ed      	bne.n	80042e2 <HAL_RCC_OscConfig+0x3b6>
        }
      }
    }

    /* Restore clock configuration if changed */
    if (pwrclkchanged == SET)
 8004306:	7ffb      	ldrb	r3, [r7, #31]
 8004308:	2b01      	cmp	r3, #1
 800430a:	d105      	bne.n	8004318 <HAL_RCC_OscConfig+0x3ec>
    {
      __HAL_RCC_PWR_CLK_DISABLE();
 800430c:	4b35      	ldr	r3, [pc, #212]	; (80043e4 <HAL_RCC_OscConfig+0x4b8>)
 800430e:	6d9b      	ldr	r3, [r3, #88]	; 0x58
 8004310:	4a34      	ldr	r2, [pc, #208]	; (80043e4 <HAL_RCC_OscConfig+0x4b8>)
 8004312:	f023 5380 	bic.w	r3, r3, #268435456	; 0x10000000
 8004316:	6593      	str	r3, [r2, #88]	; 0x58
    }
  }

  /*------------------------------ HSI48 Configuration -----------------------*/
  if(((RCC_OscInitStruct->OscillatorType) & RCC_OSCILLATORTYPE_HSI48) == RCC_OSCILLATORTYPE_HSI48)
 8004318:	687b      	ldr	r3, [r7, #4]
 800431a:	681b      	ldr	r3, [r3, #0]
 800431c:	f003 0320 	and.w	r3, r3, #32
 8004320:	2b00      	cmp	r3, #0
 8004322:	d03c      	beq.n	800439e <HAL_RCC_OscConfig+0x472>
  {
    /* Check the parameters */
    assert_param(IS_RCC_HSI48(RCC_OscInitStruct->HSI48State));

    /* Check the HSI48 State */
    if(RCC_OscInitStruct->HSI48State != RCC_HSI48_OFF)
 8004324:	687b      	ldr	r3, [r7, #4]
 8004326:	699b      	ldr	r3, [r3, #24]
 8004328:	2b00      	cmp	r3, #0
 800432a:	d01c      	beq.n	8004366 <HAL_RCC_OscConfig+0x43a>
    {
      /* Enable the Internal Low Speed oscillator (HSI48). */
      __HAL_RCC_HSI48_ENABLE();
 800432c:	4b2d      	ldr	r3, [pc, #180]	; (80043e4 <HAL_RCC_OscConfig+0x4b8>)
 800432e:	f8d3 3098 	ldr.w	r3, [r3, #152]	; 0x98
 8004332:	4a2c      	ldr	r2, [pc, #176]	; (80043e4 <HAL_RCC_OscConfig+0x4b8>)
 8004334:	f043 0301 	orr.w	r3, r3, #1
 8004338:	f8c2 3098 	str.w	r3, [r2, #152]	; 0x98

      /* Get Start Tick*/
      tickstart = HAL_GetTick();
 800433c:	f7fd f9ce 	bl	80016dc <HAL_GetTick>
 8004340:	6138      	str	r0, [r7, #16]

      /* Wait till HSI48 is ready */
      while(READ_BIT(RCC->CRRCR, RCC_CRRCR_HSI48RDY) == 0U)
 8004342:	e008      	b.n	8004356 <HAL_RCC_OscConfig+0x42a>
      {
        if((HAL_GetTick() - tickstart) > HSI48_TIMEOUT_VALUE)
 8004344:	f7fd f9ca 	bl	80016dc <HAL_GetTick>
 8004348:	4602      	mov	r2, r0
 800434a:	693b      	ldr	r3, [r7, #16]
 800434c:	1ad3      	subs	r3, r2, r3
 800434e:	2b02      	cmp	r3, #2
 8004350:	d901      	bls.n	8004356 <HAL_RCC_OscConfig+0x42a>
        {
          return HAL_TIMEOUT;
 8004352:	2303      	movs	r3, #3
 8004354:	e0f2      	b.n	800453c <HAL_RCC_OscConfig+0x610>
      while(READ_BIT(RCC->CRRCR, RCC_CRRCR_HSI48RDY) == 0U)
 8004356:	4b23      	ldr	r3, [pc, #140]	; (80043e4 <HAL_RCC_OscConfig+0x4b8>)
 8004358:	f8d3 3098 	ldr.w	r3, [r3, #152]	; 0x98
 800435c:	f003 0302 	and.w	r3, r3, #2
 8004360:	2b00      	cmp	r3, #0
 8004362:	d0ef      	beq.n	8004344 <HAL_RCC_OscConfig+0x418>
 8004364:	e01b      	b.n	800439e <HAL_RCC_OscConfig+0x472>
      }
    }
    else
    {
      /* Disable the Internal Low Speed oscillator (HSI48). */
      __HAL_RCC_HSI48_DISABLE();
 8004366:	4b1f      	ldr	r3, [pc, #124]	; (80043e4 <HAL_RCC_OscConfig+0x4b8>)
 8004368:	f8d3 3098 	ldr.w	r3, [r3, #152]	; 0x98
 800436c:	4a1d      	ldr	r2, [pc, #116]	; (80043e4 <HAL_RCC_OscConfig+0x4b8>)
 800436e:	f023 0301 	bic.w	r3, r3, #1
 8004372:	f8c2 3098 	str.w	r3, [r2, #152]	; 0x98

      /* Get Start Tick*/
      tickstart = HAL_GetTick();
 8004376:	f7fd f9b1 	bl	80016dc <HAL_GetTick>
 800437a:	6138      	str	r0, [r7, #16]

      /* Wait till HSI48 is disabled */
      while(READ_BIT(RCC->CRRCR, RCC_CRRCR_HSI48RDY) != 0U)
 800437c:	e008      	b.n	8004390 <HAL_RCC_OscConfig+0x464>
      {
        if((HAL_GetTick() - tickstart) > HSI48_TIMEOUT_VALUE)
 800437e:	f7fd f9ad 	bl	80016dc <HAL_GetTick>
 8004382:	4602      	mov	r2, r0
 8004384:	693b      	ldr	r3, [r7, #16]
 8004386:	1ad3      	subs	r3, r2, r3
 8004388:	2b02      	cmp	r3, #2
 800438a:	d901      	bls.n	8004390 <HAL_RCC_OscConfig+0x464>
        {
          return HAL_TIMEOUT;
 800438c:	2303      	movs	r3, #3
 800438e:	e0d5      	b.n	800453c <HAL_RCC_OscConfig+0x610>
      while(READ_BIT(RCC->CRRCR, RCC_CRRCR_HSI48RDY) != 0U)
 8004390:	4b14      	ldr	r3, [pc, #80]	; (80043e4 <HAL_RCC_OscConfig+0x4b8>)
 8004392:	f8d3 3098 	ldr.w	r3, [r3, #152]	; 0x98
 8004396:	f003 0302 	and.w	r3, r3, #2
 800439a:	2b00      	cmp	r3, #0
 800439c:	d1ef      	bne.n	800437e <HAL_RCC_OscConfig+0x452>

  /*-------------------------------- PLL Configuration -----------------------*/
  /* Check the parameters */
  assert_param(IS_RCC_PLL(RCC_OscInitStruct->PLL.PLLState));

  if (RCC_OscInitStruct->PLL.PLLState != RCC_PLL_NONE)
 800439e:	687b      	ldr	r3, [r7, #4]
 80043a0:	69db      	ldr	r3, [r3, #28]
 80043a2:	2b00      	cmp	r3, #0
 80043a4:	f000 80c9 	beq.w	800453a <HAL_RCC_OscConfig+0x60e>
  {
    /* Check if the PLL is used as system clock or not */
    if (__HAL_RCC_GET_SYSCLK_SOURCE() != RCC_CFGR_SWS_PLL)
 80043a8:	4b0e      	ldr	r3, [pc, #56]	; (80043e4 <HAL_RCC_OscConfig+0x4b8>)
 80043aa:	689b      	ldr	r3, [r3, #8]
 80043ac:	f003 030c 	and.w	r3, r3, #12
 80043b0:	2b0c      	cmp	r3, #12
 80043b2:	f000 8083 	beq.w	80044bc <HAL_RCC_OscConfig+0x590>
    {
      if (RCC_OscInitStruct->PLL.PLLState == RCC_PLL_ON)
 80043b6:	687b      	ldr	r3, [r7, #4]
 80043b8:	69db      	ldr	r3, [r3, #28]
 80043ba:	2b02      	cmp	r3, #2
 80043bc:	d15e      	bne.n	800447c <HAL_RCC_OscConfig+0x550>
        assert_param(IS_RCC_PLLP_VALUE(RCC_OscInitStruct->PLL.PLLP));
        assert_param(IS_RCC_PLLQ_VALUE(RCC_OscInitStruct->PLL.PLLQ));
        assert_param(IS_RCC_PLLR_VALUE(RCC_OscInitStruct->PLL.PLLR));

        /* Disable the main PLL. */
        __HAL_RCC_PLL_DISABLE();
 80043be:	4b09      	ldr	r3, [pc, #36]	; (80043e4 <HAL_RCC_OscConfig+0x4b8>)
 80043c0:	681b      	ldr	r3, [r3, #0]
 80043c2:	4a08      	ldr	r2, [pc, #32]	; (80043e4 <HAL_RCC_OscConfig+0x4b8>)
 80043c4:	f023 7380 	bic.w	r3, r3, #16777216	; 0x1000000
 80043c8:	6013      	str	r3, [r2, #0]

        /* Get Start Tick*/
        tickstart = HAL_GetTick();
 80043ca:	f7fd f987 	bl	80016dc <HAL_GetTick>
 80043ce:	6138      	str	r0, [r7, #16]

        /* Wait till PLL is disabled */
        while (READ_BIT(RCC->CR, RCC_CR_PLLRDY) != 0U)
 80043d0:	e00c      	b.n	80043ec <HAL_RCC_OscConfig+0x4c0>
        {
          if ((HAL_GetTick() - tickstart) > PLL_TIMEOUT_VALUE)
 80043d2:	f7fd f983 	bl	80016dc <HAL_GetTick>
 80043d6:	4602      	mov	r2, r0
 80043d8:	693b      	ldr	r3, [r7, #16]
 80043da:	1ad3      	subs	r3, r2, r3
 80043dc:	2b02      	cmp	r3, #2
 80043de:	d905      	bls.n	80043ec <HAL_RCC_OscConfig+0x4c0>
          {
            return HAL_TIMEOUT;
 80043e0:	2303      	movs	r3, #3
 80043e2:	e0ab      	b.n	800453c <HAL_RCC_OscConfig+0x610>
 80043e4:	40021000 	.word	0x40021000
 80043e8:	40007000 	.word	0x40007000
        while (READ_BIT(RCC->CR, RCC_CR_PLLRDY) != 0U)
 80043ec:	4b55      	ldr	r3, [pc, #340]	; (8004544 <HAL_RCC_OscConfig+0x618>)
 80043ee:	681b      	ldr	r3, [r3, #0]
 80043f0:	f003 7300 	and.w	r3, r3, #33554432	; 0x2000000
 80043f4:	2b00      	cmp	r3, #0
 80043f6:	d1ec      	bne.n	80043d2 <HAL_RCC_OscConfig+0x4a6>
          }
        }

        /* Configure the main PLL clock source, multiplication and division factors. */
        __HAL_RCC_PLL_CONFIG(RCC_OscInitStruct->PLL.PLLSource,
 80043f8:	4b52      	ldr	r3, [pc, #328]	; (8004544 <HAL_RCC_OscConfig+0x618>)
 80043fa:	68da      	ldr	r2, [r3, #12]
 80043fc:	4b52      	ldr	r3, [pc, #328]	; (8004548 <HAL_RCC_OscConfig+0x61c>)
 80043fe:	4013      	ands	r3, r2
 8004400:	687a      	ldr	r2, [r7, #4]
 8004402:	6a11      	ldr	r1, [r2, #32]
 8004404:	687a      	ldr	r2, [r7, #4]
 8004406:	6a52      	ldr	r2, [r2, #36]	; 0x24
 8004408:	3a01      	subs	r2, #1
 800440a:	0112      	lsls	r2, r2, #4
 800440c:	4311      	orrs	r1, r2
 800440e:	687a      	ldr	r2, [r7, #4]
 8004410:	6a92      	ldr	r2, [r2, #40]	; 0x28
 8004412:	0212      	lsls	r2, r2, #8
 8004414:	4311      	orrs	r1, r2
 8004416:	687a      	ldr	r2, [r7, #4]
 8004418:	6b12      	ldr	r2, [r2, #48]	; 0x30
 800441a:	0852      	lsrs	r2, r2, #1
 800441c:	3a01      	subs	r2, #1
 800441e:	0552      	lsls	r2, r2, #21
 8004420:	4311      	orrs	r1, r2
 8004422:	687a      	ldr	r2, [r7, #4]
 8004424:	6b52      	ldr	r2, [r2, #52]	; 0x34
 8004426:	0852      	lsrs	r2, r2, #1
 8004428:	3a01      	subs	r2, #1
 800442a:	0652      	lsls	r2, r2, #25
 800442c:	4311      	orrs	r1, r2
 800442e:	687a      	ldr	r2, [r7, #4]
 8004430:	6ad2      	ldr	r2, [r2, #44]	; 0x2c
 8004432:	06d2      	lsls	r2, r2, #27
 8004434:	430a      	orrs	r2, r1
 8004436:	4943      	ldr	r1, [pc, #268]	; (8004544 <HAL_RCC_OscConfig+0x618>)
 8004438:	4313      	orrs	r3, r2
 800443a:	60cb      	str	r3, [r1, #12]
                             RCC_OscInitStruct->PLL.PLLP,
                             RCC_OscInitStruct->PLL.PLLQ,
                             RCC_OscInitStruct->PLL.PLLR);

        /* Enable the main PLL. */
        __HAL_RCC_PLL_ENABLE();
 800443c:	4b41      	ldr	r3, [pc, #260]	; (8004544 <HAL_RCC_OscConfig+0x618>)
 800443e:	681b      	ldr	r3, [r3, #0]
 8004440:	4a40      	ldr	r2, [pc, #256]	; (8004544 <HAL_RCC_OscConfig+0x618>)
 8004442:	f043 7380 	orr.w	r3, r3, #16777216	; 0x1000000
 8004446:	6013      	str	r3, [r2, #0]

        /* Enable PLL System Clock output. */
         __HAL_RCC_PLLCLKOUT_ENABLE(RCC_PLL_SYSCLK);
 8004448:	4b3e      	ldr	r3, [pc, #248]	; (8004544 <HAL_RCC_OscConfig+0x618>)
 800444a:	68db      	ldr	r3, [r3, #12]
 800444c:	4a3d      	ldr	r2, [pc, #244]	; (8004544 <HAL_RCC_OscConfig+0x618>)
 800444e:	f043 7380 	orr.w	r3, r3, #16777216	; 0x1000000
 8004452:	60d3      	str	r3, [r2, #12]

        /* Get Start Tick*/
        tickstart = HAL_GetTick();
 8004454:	f7fd f942 	bl	80016dc <HAL_GetTick>
 8004458:	6138      	str	r0, [r7, #16]

        /* Wait till PLL is ready */
        while (READ_BIT(RCC->CR, RCC_CR_PLLRDY) == 0U)
 800445a:	e008      	b.n	800446e <HAL_RCC_OscConfig+0x542>
        {
          if ((HAL_GetTick() - tickstart) > PLL_TIMEOUT_VALUE)
 800445c:	f7fd f93e 	bl	80016dc <HAL_GetTick>
 8004460:	4602      	mov	r2, r0
 8004462:	693b      	ldr	r3, [r7, #16]
 8004464:	1ad3      	subs	r3, r2, r3
 8004466:	2b02      	cmp	r3, #2
 8004468:	d901      	bls.n	800446e <HAL_RCC_OscConfig+0x542>
          {
            return HAL_TIMEOUT;
 800446a:	2303      	movs	r3, #3
 800446c:	e066      	b.n	800453c <HAL_RCC_OscConfig+0x610>
        while (READ_BIT(RCC->CR, RCC_CR_PLLRDY) == 0U)
 800446e:	4b35      	ldr	r3, [pc, #212]	; (8004544 <HAL_RCC_OscConfig+0x618>)
 8004470:	681b      	ldr	r3, [r3, #0]
 8004472:	f003 7300 	and.w	r3, r3, #33554432	; 0x2000000
 8004476:	2b00      	cmp	r3, #0
 8004478:	d0f0      	beq.n	800445c <HAL_RCC_OscConfig+0x530>
 800447a:	e05e      	b.n	800453a <HAL_RCC_OscConfig+0x60e>
        }
      }
      else
      {
        /* Disable the main PLL. */
        __HAL_RCC_PLL_DISABLE();
 800447c:	4b31      	ldr	r3, [pc, #196]	; (8004544 <HAL_RCC_OscConfig+0x618>)
 800447e:	681b      	ldr	r3, [r3, #0]
 8004480:	4a30      	ldr	r2, [pc, #192]	; (8004544 <HAL_RCC_OscConfig+0x618>)
 8004482:	f023 7380 	bic.w	r3, r3, #16777216	; 0x1000000
 8004486:	6013      	str	r3, [r2, #0]

        /* Get Start Tick*/
        tickstart = HAL_GetTick();
 8004488:	f7fd f928 	bl	80016dc <HAL_GetTick>
 800448c:	6138      	str	r0, [r7, #16]

        /* Wait till PLL is disabled */
        while (READ_BIT(RCC->CR, RCC_CR_PLLRDY) != 0U)
 800448e:	e008      	b.n	80044a2 <HAL_RCC_OscConfig+0x576>
        {
          if ((HAL_GetTick() - tickstart) > PLL_TIMEOUT_VALUE)
 8004490:	f7fd f924 	bl	80016dc <HAL_GetTick>
 8004494:	4602      	mov	r2, r0
 8004496:	693b      	ldr	r3, [r7, #16]
 8004498:	1ad3      	subs	r3, r2, r3
 800449a:	2b02      	cmp	r3, #2
 800449c:	d901      	bls.n	80044a2 <HAL_RCC_OscConfig+0x576>
          {
            return HAL_TIMEOUT;
 800449e:	2303      	movs	r3, #3
 80044a0:	e04c      	b.n	800453c <HAL_RCC_OscConfig+0x610>
        while (READ_BIT(RCC->CR, RCC_CR_PLLRDY) != 0U)
 80044a2:	4b28      	ldr	r3, [pc, #160]	; (8004544 <HAL_RCC_OscConfig+0x618>)
 80044a4:	681b      	ldr	r3, [r3, #0]
 80044a6:	f003 7300 	and.w	r3, r3, #33554432	; 0x2000000
 80044aa:	2b00      	cmp	r3, #0
 80044ac:	d1f0      	bne.n	8004490 <HAL_RCC_OscConfig+0x564>
          }
        }

        /* Unselect PLL clock source and disable outputs to save power */
        RCC->PLLCFGR &= ~(RCC_PLLCFGR_PLLSRC | RCC_PLL_SYSCLK | RCC_PLL_48M1CLK | RCC_PLL_ADCCLK);
 80044ae:	4b25      	ldr	r3, [pc, #148]	; (8004544 <HAL_RCC_OscConfig+0x618>)
 80044b0:	68da      	ldr	r2, [r3, #12]
 80044b2:	4924      	ldr	r1, [pc, #144]	; (8004544 <HAL_RCC_OscConfig+0x618>)
 80044b4:	4b25      	ldr	r3, [pc, #148]	; (800454c <HAL_RCC_OscConfig+0x620>)
 80044b6:	4013      	ands	r3, r2
 80044b8:	60cb      	str	r3, [r1, #12]
 80044ba:	e03e      	b.n	800453a <HAL_RCC_OscConfig+0x60e>
      }
    }
    else
    {
      /* Check if there is a request to disable the PLL used as System clock source */
      if((RCC_OscInitStruct->PLL.PLLState) == RCC_PLL_OFF)
 80044bc:	687b      	ldr	r3, [r7, #4]
 80044be:	69db      	ldr	r3, [r3, #28]
 80044c0:	2b01      	cmp	r3, #1
 80044c2:	d101      	bne.n	80044c8 <HAL_RCC_OscConfig+0x59c>
      {
        return HAL_ERROR;
 80044c4:	2301      	movs	r3, #1
 80044c6:	e039      	b.n	800453c <HAL_RCC_OscConfig+0x610>
      }
      else
      {
      /* Do not return HAL_ERROR if request repeats the current configuration */
      temp_pllckcfg = RCC->PLLCFGR;
 80044c8:	4b1e      	ldr	r3, [pc, #120]	; (8004544 <HAL_RCC_OscConfig+0x618>)
 80044ca:	68db      	ldr	r3, [r3, #12]
 80044cc:	617b      	str	r3, [r7, #20]
      if((READ_BIT(temp_pllckcfg, RCC_PLLCFGR_PLLSRC) != RCC_OscInitStruct->PLL.PLLSource) ||
 80044ce:	697b      	ldr	r3, [r7, #20]
 80044d0:	f003 0203 	and.w	r2, r3, #3
 80044d4:	687b      	ldr	r3, [r7, #4]
 80044d6:	6a1b      	ldr	r3, [r3, #32]
 80044d8:	429a      	cmp	r2, r3
 80044da:	d12c      	bne.n	8004536 <HAL_RCC_OscConfig+0x60a>
         (READ_BIT(temp_pllckcfg, RCC_PLLCFGR_PLLM) != (((RCC_OscInitStruct->PLL.PLLM) - 1U) << RCC_PLLCFGR_PLLM_Pos)) ||
 80044dc:	697b      	ldr	r3, [r7, #20]
 80044de:	f003 02f0 	and.w	r2, r3, #240	; 0xf0
 80044e2:	687b      	ldr	r3, [r7, #4]
 80044e4:	6a5b      	ldr	r3, [r3, #36]	; 0x24
 80044e6:	3b01      	subs	r3, #1
 80044e8:	011b      	lsls	r3, r3, #4
      if((READ_BIT(temp_pllckcfg, RCC_PLLCFGR_PLLSRC) != RCC_OscInitStruct->PLL.PLLSource) ||
 80044ea:	429a      	cmp	r2, r3
 80044ec:	d123      	bne.n	8004536 <HAL_RCC_OscConfig+0x60a>
         (READ_BIT(temp_pllckcfg, RCC_PLLCFGR_PLLN) != ((RCC_OscInitStruct->PLL.PLLN) << RCC_PLLCFGR_PLLN_Pos)) ||
 80044ee:	697b      	ldr	r3, [r7, #20]
 80044f0:	f403 42fe 	and.w	r2, r3, #32512	; 0x7f00
 80044f4:	687b      	ldr	r3, [r7, #4]
 80044f6:	6a9b      	ldr	r3, [r3, #40]	; 0x28
 80044f8:	021b      	lsls	r3, r3, #8
         (READ_BIT(temp_pllckcfg, RCC_PLLCFGR_PLLM) != (((RCC_OscInitStruct->PLL.PLLM) - 1U) << RCC_PLLCFGR_PLLM_Pos)) ||
 80044fa:	429a      	cmp	r2, r3
 80044fc:	d11b      	bne.n	8004536 <HAL_RCC_OscConfig+0x60a>
         (READ_BIT(temp_pllckcfg, RCC_PLLCFGR_PLLPDIV) != ((RCC_OscInitStruct->PLL.PLLP) << RCC_PLLCFGR_PLLPDIV_Pos)) ||
 80044fe:	697b      	ldr	r3, [r7, #20]
 8004500:	f003 4278 	and.w	r2, r3, #4160749568	; 0xf8000000
 8004504:	687b      	ldr	r3, [r7, #4]
 8004506:	6adb      	ldr	r3, [r3, #44]	; 0x2c
 8004508:	06db      	lsls	r3, r3, #27
         (READ_BIT(temp_pllckcfg, RCC_PLLCFGR_PLLN) != ((RCC_OscInitStruct->PLL.PLLN) << RCC_PLLCFGR_PLLN_Pos)) ||
 800450a:	429a      	cmp	r2, r3
 800450c:	d113      	bne.n	8004536 <HAL_RCC_OscConfig+0x60a>
         (READ_BIT(temp_pllckcfg, RCC_PLLCFGR_PLLQ) != ((((RCC_OscInitStruct->PLL.PLLQ) >> 1U) - 1U) << RCC_PLLCFGR_PLLQ_Pos)) ||
 800450e:	697b      	ldr	r3, [r7, #20]
 8004510:	f403 02c0 	and.w	r2, r3, #6291456	; 0x600000
 8004514:	687b      	ldr	r3, [r7, #4]
 8004516:	6b1b      	ldr	r3, [r3, #48]	; 0x30
 8004518:	085b      	lsrs	r3, r3, #1
 800451a:	3b01      	subs	r3, #1
 800451c:	055b      	lsls	r3, r3, #21
         (READ_BIT(temp_pllckcfg, RCC_PLLCFGR_PLLPDIV) != ((RCC_OscInitStruct->PLL.PLLP) << RCC_PLLCFGR_PLLPDIV_Pos)) ||
 800451e:	429a      	cmp	r2, r3
 8004520:	d109      	bne.n	8004536 <HAL_RCC_OscConfig+0x60a>
         (READ_BIT(temp_pllckcfg, RCC_PLLCFGR_PLLR) != ((((RCC_OscInitStruct->PLL.PLLR) >> 1U) - 1U) << RCC_PLLCFGR_PLLR_Pos)))
 8004522:	697b      	ldr	r3, [r7, #20]
 8004524:	f003 62c0 	and.w	r2, r3, #100663296	; 0x6000000
 8004528:	687b      	ldr	r3, [r7, #4]
 800452a:	6b5b      	ldr	r3, [r3, #52]	; 0x34
 800452c:	085b      	lsrs	r3, r3, #1
 800452e:	3b01      	subs	r3, #1
 8004530:	065b      	lsls	r3, r3, #25
         (READ_BIT(temp_pllckcfg, RCC_PLLCFGR_PLLQ) != ((((RCC_OscInitStruct->PLL.PLLQ) >> 1U) - 1U) << RCC_PLLCFGR_PLLQ_Pos)) ||
 8004532:	429a      	cmp	r2, r3
 8004534:	d001      	beq.n	800453a <HAL_RCC_OscConfig+0x60e>
      {
        return HAL_ERROR;
 8004536:	2301      	movs	r3, #1
 8004538:	e000      	b.n	800453c <HAL_RCC_OscConfig+0x610>
      }
    }
  }
  }

  return HAL_OK;
 800453a:	2300      	movs	r3, #0
}
 800453c:	4618      	mov	r0, r3
 800453e:	3720      	adds	r7, #32
 8004540:	46bd      	mov	sp, r7
 8004542:	bd80      	pop	{r7, pc}
 8004544:	40021000 	.word	0x40021000
 8004548:	019f800c 	.word	0x019f800c
 800454c:	feeefffc 	.word	0xfeeefffc

08004550 <HAL_RCC_ClockConfig>:
  *         HPRE[3:0] bits to ensure that HCLK not exceed the maximum allowed frequency
  *         (for more details refer to section above "Initialization/de-initialization functions")
  * @retval None
  */
HAL_StatusTypeDef HAL_RCC_ClockConfig(RCC_ClkInitTypeDef  *RCC_ClkInitStruct, uint32_t FLatency)
{
 8004550:	b580      	push	{r7, lr}
 8004552:	b086      	sub	sp, #24
 8004554:	af00      	add	r7, sp, #0
 8004556:	6078      	str	r0, [r7, #4]
 8004558:	6039      	str	r1, [r7, #0]
  uint32_t tickstart;
  uint32_t pllfreq;
  uint32_t hpre = RCC_SYSCLK_DIV1;
 800455a:	2300      	movs	r3, #0
 800455c:	617b      	str	r3, [r7, #20]

  /* Check Null pointer */
  if (RCC_ClkInitStruct == NULL)
 800455e:	687b      	ldr	r3, [r7, #4]
 8004560:	2b00      	cmp	r3, #0
 8004562:	d101      	bne.n	8004568 <HAL_RCC_ClockConfig+0x18>
  {
    return HAL_ERROR;
 8004564:	2301      	movs	r3, #1
 8004566:	e11e      	b.n	80047a6 <HAL_RCC_ClockConfig+0x256>
  /* To correctly read data from FLASH memory, the number of wait states (LATENCY)
    must be correctly programmed according to the frequency of the CPU clock
    (HCLK) and the supply voltage of the device. */

  /* Increasing the number of wait states because of higher CPU frequency */
  if (FLatency > __HAL_FLASH_GET_LATENCY())
 8004568:	4b91      	ldr	r3, [pc, #580]	; (80047b0 <HAL_RCC_ClockConfig+0x260>)
 800456a:	681b      	ldr	r3, [r3, #0]
 800456c:	f003 030f 	and.w	r3, r3, #15
 8004570:	683a      	ldr	r2, [r7, #0]
 8004572:	429a      	cmp	r2, r3
 8004574:	d910      	bls.n	8004598 <HAL_RCC_ClockConfig+0x48>
  {
    /* Program the new number of wait states to the LATENCY bits in the FLASH_ACR register */
    __HAL_FLASH_SET_LATENCY(FLatency);
 8004576:	4b8e      	ldr	r3, [pc, #568]	; (80047b0 <HAL_RCC_ClockConfig+0x260>)
 8004578:	681b      	ldr	r3, [r3, #0]
 800457a:	f023 020f 	bic.w	r2, r3, #15
 800457e:	498c      	ldr	r1, [pc, #560]	; (80047b0 <HAL_RCC_ClockConfig+0x260>)
 8004580:	683b      	ldr	r3, [r7, #0]
 8004582:	4313      	orrs	r3, r2
 8004584:	600b      	str	r3, [r1, #0]

    /* Check that the new number of wait states is taken into account to access the Flash
    memory by reading the FLASH_ACR register */
    if (__HAL_FLASH_GET_LATENCY() != FLatency)
 8004586:	4b8a      	ldr	r3, [pc, #552]	; (80047b0 <HAL_RCC_ClockConfig+0x260>)
 8004588:	681b      	ldr	r3, [r3, #0]
 800458a:	f003 030f 	and.w	r3, r3, #15
 800458e:	683a      	ldr	r2, [r7, #0]
 8004590:	429a      	cmp	r2, r3
 8004592:	d001      	beq.n	8004598 <HAL_RCC_ClockConfig+0x48>
    {
      return HAL_ERROR;
 8004594:	2301      	movs	r3, #1
 8004596:	e106      	b.n	80047a6 <HAL_RCC_ClockConfig+0x256>
    }
  }

  /*------------------------- SYSCLK Configuration ---------------------------*/
  if(((RCC_ClkInitStruct->ClockType) & RCC_CLOCKTYPE_SYSCLK) == RCC_CLOCKTYPE_SYSCLK)
 8004598:	687b      	ldr	r3, [r7, #4]
 800459a:	681b      	ldr	r3, [r3, #0]
 800459c:	f003 0301 	and.w	r3, r3, #1
 80045a0:	2b00      	cmp	r3, #0
 80045a2:	d073      	beq.n	800468c <HAL_RCC_ClockConfig+0x13c>
  {
    assert_param(IS_RCC_SYSCLKSOURCE(RCC_ClkInitStruct->SYSCLKSource));

    /* PLL is selected as System Clock Source */
    if (RCC_ClkInitStruct->SYSCLKSource == RCC_SYSCLKSOURCE_PLLCLK)
 80045a4:	687b      	ldr	r3, [r7, #4]
 80045a6:	685b      	ldr	r3, [r3, #4]
 80045a8:	2b03      	cmp	r3, #3
 80045aa:	d129      	bne.n	8004600 <HAL_RCC_ClockConfig+0xb0>
    {
      /* Check the PLL ready flag */
      if (READ_BIT(RCC->CR, RCC_CR_PLLRDY) == 0U)
 80045ac:	4b81      	ldr	r3, [pc, #516]	; (80047b4 <HAL_RCC_ClockConfig+0x264>)
 80045ae:	681b      	ldr	r3, [r3, #0]
 80045b0:	f003 7300 	and.w	r3, r3, #33554432	; 0x2000000
 80045b4:	2b00      	cmp	r3, #0
 80045b6:	d101      	bne.n	80045bc <HAL_RCC_ClockConfig+0x6c>
      {
        return HAL_ERROR;
 80045b8:	2301      	movs	r3, #1
 80045ba:	e0f4      	b.n	80047a6 <HAL_RCC_ClockConfig+0x256>
      }
      /* Undershoot management when selection PLL as SYSCLK source and frequency above 80Mhz */
      /* Compute target PLL output frequency */
      pllfreq = RCC_GetSysClockFreqFromPLLSource();
 80045bc:	f000 f99e 	bl	80048fc <RCC_GetSysClockFreqFromPLLSource>
 80045c0:	6138      	str	r0, [r7, #16]

      /* Intermediate step with HCLK prescaler 2 necessary before to go over 80Mhz */
      if(pllfreq > 80000000U)
 80045c2:	693b      	ldr	r3, [r7, #16]
 80045c4:	4a7c      	ldr	r2, [pc, #496]	; (80047b8 <HAL_RCC_ClockConfig+0x268>)
 80045c6:	4293      	cmp	r3, r2
 80045c8:	d93f      	bls.n	800464a <HAL_RCC_ClockConfig+0xfa>
      {
        if (((READ_BIT(RCC->CFGR, RCC_CFGR_HPRE) == RCC_SYSCLK_DIV1)) ||
 80045ca:	4b7a      	ldr	r3, [pc, #488]	; (80047b4 <HAL_RCC_ClockConfig+0x264>)
 80045cc:	689b      	ldr	r3, [r3, #8]
 80045ce:	f003 03f0 	and.w	r3, r3, #240	; 0xf0
 80045d2:	2b00      	cmp	r3, #0
 80045d4:	d009      	beq.n	80045ea <HAL_RCC_ClockConfig+0x9a>
            (((((RCC_ClkInitStruct->ClockType) & RCC_CLOCKTYPE_HCLK) == RCC_CLOCKTYPE_HCLK) &&
 80045d6:	687b      	ldr	r3, [r7, #4]
 80045d8:	681b      	ldr	r3, [r3, #0]
 80045da:	f003 0302 	and.w	r3, r3, #2
        if (((READ_BIT(RCC->CFGR, RCC_CFGR_HPRE) == RCC_SYSCLK_DIV1)) ||
 80045de:	2b00      	cmp	r3, #0
 80045e0:	d033      	beq.n	800464a <HAL_RCC_ClockConfig+0xfa>
              (RCC_ClkInitStruct->AHBCLKDivider == RCC_SYSCLK_DIV1))))
 80045e2:	687b      	ldr	r3, [r7, #4]
 80045e4:	689b      	ldr	r3, [r3, #8]
            (((((RCC_ClkInitStruct->ClockType) & RCC_CLOCKTYPE_HCLK) == RCC_CLOCKTYPE_HCLK) &&
 80045e6:	2b00      	cmp	r3, #0
 80045e8:	d12f      	bne.n	800464a <HAL_RCC_ClockConfig+0xfa>
        {
          MODIFY_REG(RCC->CFGR, RCC_CFGR_HPRE, RCC_SYSCLK_DIV2);
 80045ea:	4b72      	ldr	r3, [pc, #456]	; (80047b4 <HAL_RCC_ClockConfig+0x264>)
 80045ec:	689b      	ldr	r3, [r3, #8]
 80045ee:	f023 03f0 	bic.w	r3, r3, #240	; 0xf0
 80045f2:	4a70      	ldr	r2, [pc, #448]	; (80047b4 <HAL_RCC_ClockConfig+0x264>)
 80045f4:	f043 0380 	orr.w	r3, r3, #128	; 0x80
 80045f8:	6093      	str	r3, [r2, #8]
          hpre = RCC_SYSCLK_DIV2;
 80045fa:	2380      	movs	r3, #128	; 0x80
 80045fc:	617b      	str	r3, [r7, #20]
 80045fe:	e024      	b.n	800464a <HAL_RCC_ClockConfig+0xfa>
      }
    }
    else
    {
      /* HSE is selected as System Clock Source */
      if (RCC_ClkInitStruct->SYSCLKSource == RCC_SYSCLKSOURCE_HSE)
 8004600:	687b      	ldr	r3, [r7, #4]
 8004602:	685b      	ldr	r3, [r3, #4]
 8004604:	2b02      	cmp	r3, #2
 8004606:	d107      	bne.n	8004618 <HAL_RCC_ClockConfig+0xc8>
      {
        /* Check the HSE ready flag */
        if(READ_BIT(RCC->CR, RCC_CR_HSERDY) == 0U)
 8004608:	4b6a      	ldr	r3, [pc, #424]	; (80047b4 <HAL_RCC_ClockConfig+0x264>)
 800460a:	681b      	ldr	r3, [r3, #0]
 800460c:	f403 3300 	and.w	r3, r3, #131072	; 0x20000
 8004610:	2b00      	cmp	r3, #0
 8004612:	d109      	bne.n	8004628 <HAL_RCC_ClockConfig+0xd8>
        {
          return HAL_ERROR;
 8004614:	2301      	movs	r3, #1
 8004616:	e0c6      	b.n	80047a6 <HAL_RCC_ClockConfig+0x256>
      }
      /* HSI is selected as System Clock Source */
      else
      {
        /* Check the HSI ready flag */
        if(READ_BIT(RCC->CR, RCC_CR_HSIRDY) == 0U)
 8004618:	4b66      	ldr	r3, [pc, #408]	; (80047b4 <HAL_RCC_ClockConfig+0x264>)
 800461a:	681b      	ldr	r3, [r3, #0]
 800461c:	f403 6380 	and.w	r3, r3, #1024	; 0x400
 8004620:	2b00      	cmp	r3, #0
 8004622:	d101      	bne.n	8004628 <HAL_RCC_ClockConfig+0xd8>
        {
          return HAL_ERROR;
 8004624:	2301      	movs	r3, #1
 8004626:	e0be      	b.n	80047a6 <HAL_RCC_ClockConfig+0x256>
        }
      }
      /* Overshoot management when going down from PLL as SYSCLK source and frequency above 80Mhz */
      pllfreq = HAL_RCC_GetSysClockFreq();
 8004628:	f000 f8ce 	bl	80047c8 <HAL_RCC_GetSysClockFreq>
 800462c:	6138      	str	r0, [r7, #16]

      /* Intermediate step with HCLK prescaler 2 necessary before to go under 80Mhz */
      if(pllfreq > 80000000U)
 800462e:	693b      	ldr	r3, [r7, #16]
 8004630:	4a61      	ldr	r2, [pc, #388]	; (80047b8 <HAL_RCC_ClockConfig+0x268>)
 8004632:	4293      	cmp	r3, r2
 8004634:	d909      	bls.n	800464a <HAL_RCC_ClockConfig+0xfa>
      {
        MODIFY_REG(RCC->CFGR, RCC_CFGR_HPRE, RCC_SYSCLK_DIV2);
 8004636:	4b5f      	ldr	r3, [pc, #380]	; (80047b4 <HAL_RCC_ClockConfig+0x264>)
 8004638:	689b      	ldr	r3, [r3, #8]
 800463a:	f023 03f0 	bic.w	r3, r3, #240	; 0xf0
 800463e:	4a5d      	ldr	r2, [pc, #372]	; (80047b4 <HAL_RCC_ClockConfig+0x264>)
 8004640:	f043 0380 	orr.w	r3, r3, #128	; 0x80
 8004644:	6093      	str	r3, [r2, #8]
        hpre = RCC_SYSCLK_DIV2;
 8004646:	2380      	movs	r3, #128	; 0x80
 8004648:	617b      	str	r3, [r7, #20]
      }

    }

    MODIFY_REG(RCC->CFGR, RCC_CFGR_SW, RCC_ClkInitStruct->SYSCLKSource);
 800464a:	4b5a      	ldr	r3, [pc, #360]	; (80047b4 <HAL_RCC_ClockConfig+0x264>)
 800464c:	689b      	ldr	r3, [r3, #8]
 800464e:	f023 0203 	bic.w	r2, r3, #3
 8004652:	687b      	ldr	r3, [r7, #4]
 8004654:	685b      	ldr	r3, [r3, #4]
 8004656:	4957      	ldr	r1, [pc, #348]	; (80047b4 <HAL_RCC_ClockConfig+0x264>)
 8004658:	4313      	orrs	r3, r2
 800465a:	608b      	str	r3, [r1, #8]

    /* Get Start Tick*/
    tickstart = HAL_GetTick();
 800465c:	f7fd f83e 	bl	80016dc <HAL_GetTick>
 8004660:	60f8      	str	r0, [r7, #12]

    while (__HAL_RCC_GET_SYSCLK_SOURCE() != (RCC_ClkInitStruct->SYSCLKSource << RCC_CFGR_SWS_Pos))
 8004662:	e00a      	b.n	800467a <HAL_RCC_ClockConfig+0x12a>
    {
      if ((HAL_GetTick() - tickstart) > CLOCKSWITCH_TIMEOUT_VALUE)
 8004664:	f7fd f83a 	bl	80016dc <HAL_GetTick>
 8004668:	4602      	mov	r2, r0
 800466a:	68fb      	ldr	r3, [r7, #12]
 800466c:	1ad3      	subs	r3, r2, r3
 800466e:	f241 3288 	movw	r2, #5000	; 0x1388
 8004672:	4293      	cmp	r3, r2
 8004674:	d901      	bls.n	800467a <HAL_RCC_ClockConfig+0x12a>
      {
        return HAL_TIMEOUT;
 8004676:	2303      	movs	r3, #3
 8004678:	e095      	b.n	80047a6 <HAL_RCC_ClockConfig+0x256>
    while (__HAL_RCC_GET_SYSCLK_SOURCE() != (RCC_ClkInitStruct->SYSCLKSource << RCC_CFGR_SWS_Pos))
 800467a:	4b4e      	ldr	r3, [pc, #312]	; (80047b4 <HAL_RCC_ClockConfig+0x264>)
 800467c:	689b      	ldr	r3, [r3, #8]
 800467e:	f003 020c 	and.w	r2, r3, #12
 8004682:	687b      	ldr	r3, [r7, #4]
 8004684:	685b      	ldr	r3, [r3, #4]
 8004686:	009b      	lsls	r3, r3, #2
 8004688:	429a      	cmp	r2, r3
 800468a:	d1eb      	bne.n	8004664 <HAL_RCC_ClockConfig+0x114>
      }
    }
  }

  /*-------------------------- HCLK Configuration --------------------------*/
  if (((RCC_ClkInitStruct->ClockType) & RCC_CLOCKTYPE_HCLK) == RCC_CLOCKTYPE_HCLK)
 800468c:	687b      	ldr	r3, [r7, #4]
 800468e:	681b      	ldr	r3, [r3, #0]
 8004690:	f003 0302 	and.w	r3, r3, #2
 8004694:	2b00      	cmp	r3, #0
 8004696:	d023      	beq.n	80046e0 <HAL_RCC_ClockConfig+0x190>
  {
    /* Set the highest APB divider in order to ensure that we do not go through
       a non-spec phase whatever we decrease or increase HCLK. */
    if (((RCC_ClkInitStruct->ClockType) & RCC_CLOCKTYPE_PCLK1) == RCC_CLOCKTYPE_PCLK1)
 8004698:	687b      	ldr	r3, [r7, #4]
 800469a:	681b      	ldr	r3, [r3, #0]
 800469c:	f003 0304 	and.w	r3, r3, #4
 80046a0:	2b00      	cmp	r3, #0
 80046a2:	d005      	beq.n	80046b0 <HAL_RCC_ClockConfig+0x160>
    {
      MODIFY_REG(RCC->CFGR, RCC_CFGR_PPRE1, RCC_HCLK_DIV16);
 80046a4:	4b43      	ldr	r3, [pc, #268]	; (80047b4 <HAL_RCC_ClockConfig+0x264>)
 80046a6:	689b      	ldr	r3, [r3, #8]
 80046a8:	4a42      	ldr	r2, [pc, #264]	; (80047b4 <HAL_RCC_ClockConfig+0x264>)
 80046aa:	f443 63e0 	orr.w	r3, r3, #1792	; 0x700
 80046ae:	6093      	str	r3, [r2, #8]
    }
    if (((RCC_ClkInitStruct->ClockType) & RCC_CLOCKTYPE_PCLK2) == RCC_CLOCKTYPE_PCLK2)
 80046b0:	687b      	ldr	r3, [r7, #4]
 80046b2:	681b      	ldr	r3, [r3, #0]
 80046b4:	f003 0308 	and.w	r3, r3, #8
 80046b8:	2b00      	cmp	r3, #0
 80046ba:	d007      	beq.n	80046cc <HAL_RCC_ClockConfig+0x17c>
    {
      MODIFY_REG(RCC->CFGR, RCC_CFGR_PPRE2, RCC_HCLK_DIV16);
 80046bc:	4b3d      	ldr	r3, [pc, #244]	; (80047b4 <HAL_RCC_ClockConfig+0x264>)
 80046be:	689b      	ldr	r3, [r3, #8]
 80046c0:	f423 537c 	bic.w	r3, r3, #16128	; 0x3f00
 80046c4:	4a3b      	ldr	r2, [pc, #236]	; (80047b4 <HAL_RCC_ClockConfig+0x264>)
 80046c6:	f443 63e0 	orr.w	r3, r3, #1792	; 0x700
 80046ca:	6093      	str	r3, [r2, #8]
    }

    /* Set the new HCLK clock divider */
    assert_param(IS_RCC_HCLK(RCC_ClkInitStruct->AHBCLKDivider));
    MODIFY_REG(RCC->CFGR, RCC_CFGR_HPRE, RCC_ClkInitStruct->AHBCLKDivider);
 80046cc:	4b39      	ldr	r3, [pc, #228]	; (80047b4 <HAL_RCC_ClockConfig+0x264>)
 80046ce:	689b      	ldr	r3, [r3, #8]
 80046d0:	f023 02f0 	bic.w	r2, r3, #240	; 0xf0
 80046d4:	687b      	ldr	r3, [r7, #4]
 80046d6:	689b      	ldr	r3, [r3, #8]
 80046d8:	4936      	ldr	r1, [pc, #216]	; (80047b4 <HAL_RCC_ClockConfig+0x264>)
 80046da:	4313      	orrs	r3, r2
 80046dc:	608b      	str	r3, [r1, #8]
 80046de:	e008      	b.n	80046f2 <HAL_RCC_ClockConfig+0x1a2>
  }
  else
  {
    /* Is intermediate HCLK prescaler 2 applied internally, complete with HCLK prescaler 1 */
    if(hpre == RCC_SYSCLK_DIV2)
 80046e0:	697b      	ldr	r3, [r7, #20]
 80046e2:	2b80      	cmp	r3, #128	; 0x80
 80046e4:	d105      	bne.n	80046f2 <HAL_RCC_ClockConfig+0x1a2>
    {
      MODIFY_REG(RCC->CFGR, RCC_CFGR_HPRE, RCC_SYSCLK_DIV1);
 80046e6:	4b33      	ldr	r3, [pc, #204]	; (80047b4 <HAL_RCC_ClockConfig+0x264>)
 80046e8:	689b      	ldr	r3, [r3, #8]
 80046ea:	4a32      	ldr	r2, [pc, #200]	; (80047b4 <HAL_RCC_ClockConfig+0x264>)
 80046ec:	f023 03f0 	bic.w	r3, r3, #240	; 0xf0
 80046f0:	6093      	str	r3, [r2, #8]
    }
  }

  /* Decreasing the number of wait states because of lower CPU frequency */
  if (FLatency < __HAL_FLASH_GET_LATENCY())
 80046f2:	4b2f      	ldr	r3, [pc, #188]	; (80047b0 <HAL_RCC_ClockConfig+0x260>)
 80046f4:	681b      	ldr	r3, [r3, #0]
 80046f6:	f003 030f 	and.w	r3, r3, #15
 80046fa:	683a      	ldr	r2, [r7, #0]
 80046fc:	429a      	cmp	r2, r3
 80046fe:	d21d      	bcs.n	800473c <HAL_RCC_ClockConfig+0x1ec>
  {
    /* Program the new number of wait states to the LATENCY bits in the FLASH_ACR register */
    __HAL_FLASH_SET_LATENCY(FLatency);
 8004700:	4b2b      	ldr	r3, [pc, #172]	; (80047b0 <HAL_RCC_ClockConfig+0x260>)
 8004702:	681b      	ldr	r3, [r3, #0]
 8004704:	f023 020f 	bic.w	r2, r3, #15
 8004708:	4929      	ldr	r1, [pc, #164]	; (80047b0 <HAL_RCC_ClockConfig+0x260>)
 800470a:	683b      	ldr	r3, [r7, #0]
 800470c:	4313      	orrs	r3, r2
 800470e:	600b      	str	r3, [r1, #0]

    /* Check that the new number of wait states is taken into account to access the Flash
    memory by polling the FLASH_ACR register */
    tickstart = HAL_GetTick();
 8004710:	f7fc ffe4 	bl	80016dc <HAL_GetTick>
 8004714:	60f8      	str	r0, [r7, #12]

    while (__HAL_FLASH_GET_LATENCY() != FLatency)
 8004716:	e00a      	b.n	800472e <HAL_RCC_ClockConfig+0x1de>
    {
      if ((HAL_GetTick() - tickstart) > CLOCKSWITCH_TIMEOUT_VALUE)
 8004718:	f7fc ffe0 	bl	80016dc <HAL_GetTick>
 800471c:	4602      	mov	r2, r0
 800471e:	68fb      	ldr	r3, [r7, #12]
 8004720:	1ad3      	subs	r3, r2, r3
 8004722:	f241 3288 	movw	r2, #5000	; 0x1388
 8004726:	4293      	cmp	r3, r2
 8004728:	d901      	bls.n	800472e <HAL_RCC_ClockConfig+0x1de>
      {
        return HAL_TIMEOUT;
 800472a:	2303      	movs	r3, #3
 800472c:	e03b      	b.n	80047a6 <HAL_RCC_ClockConfig+0x256>
    while (__HAL_FLASH_GET_LATENCY() != FLatency)
 800472e:	4b20      	ldr	r3, [pc, #128]	; (80047b0 <HAL_RCC_ClockConfig+0x260>)
 8004730:	681b      	ldr	r3, [r3, #0]
 8004732:	f003 030f 	and.w	r3, r3, #15
 8004736:	683a      	ldr	r2, [r7, #0]
 8004738:	429a      	cmp	r2, r3
 800473a:	d1ed      	bne.n	8004718 <HAL_RCC_ClockConfig+0x1c8>
      }
    }
  }

  /*-------------------------- PCLK1 Configuration ---------------------------*/
  if (((RCC_ClkInitStruct->ClockType) & RCC_CLOCKTYPE_PCLK1) == RCC_CLOCKTYPE_PCLK1)
 800473c:	687b      	ldr	r3, [r7, #4]
 800473e:	681b      	ldr	r3, [r3, #0]
 8004740:	f003 0304 	and.w	r3, r3, #4
 8004744:	2b00      	cmp	r3, #0
 8004746:	d008      	beq.n	800475a <HAL_RCC_ClockConfig+0x20a>
  {
    assert_param(IS_RCC_PCLK(RCC_ClkInitStruct->APB1CLKDivider));
    MODIFY_REG(RCC->CFGR, RCC_CFGR_PPRE1, RCC_ClkInitStruct->APB1CLKDivider);
 8004748:	4b1a      	ldr	r3, [pc, #104]	; (80047b4 <HAL_RCC_ClockConfig+0x264>)
 800474a:	689b      	ldr	r3, [r3, #8]
 800474c:	f423 62e0 	bic.w	r2, r3, #1792	; 0x700
 8004750:	687b      	ldr	r3, [r7, #4]
 8004752:	68db      	ldr	r3, [r3, #12]
 8004754:	4917      	ldr	r1, [pc, #92]	; (80047b4 <HAL_RCC_ClockConfig+0x264>)
 8004756:	4313      	orrs	r3, r2
 8004758:	608b      	str	r3, [r1, #8]
  }

  /*-------------------------- PCLK2 Configuration ---------------------------*/
  if(((RCC_ClkInitStruct->ClockType) & RCC_CLOCKTYPE_PCLK2) == RCC_CLOCKTYPE_PCLK2)
 800475a:	687b      	ldr	r3, [r7, #4]
 800475c:	681b      	ldr	r3, [r3, #0]
 800475e:	f003 0308 	and.w	r3, r3, #8
 8004762:	2b00      	cmp	r3, #0
 8004764:	d009      	beq.n	800477a <HAL_RCC_ClockConfig+0x22a>
  {
    assert_param(IS_RCC_PCLK(RCC_ClkInitStruct->APB2CLKDivider));
    MODIFY_REG(RCC->CFGR, RCC_CFGR_PPRE2, ((RCC_ClkInitStruct->APB2CLKDivider) << 3U));
 8004766:	4b13      	ldr	r3, [pc, #76]	; (80047b4 <HAL_RCC_ClockConfig+0x264>)
 8004768:	689b      	ldr	r3, [r3, #8]
 800476a:	f423 5260 	bic.w	r2, r3, #14336	; 0x3800
 800476e:	687b      	ldr	r3, [r7, #4]
 8004770:	691b      	ldr	r3, [r3, #16]
 8004772:	00db      	lsls	r3, r3, #3
 8004774:	490f      	ldr	r1, [pc, #60]	; (80047b4 <HAL_RCC_ClockConfig+0x264>)
 8004776:	4313      	orrs	r3, r2
 8004778:	608b      	str	r3, [r1, #8]
  }

  /* Update the SystemCoreClock global variable */
  SystemCoreClock = HAL_RCC_GetSysClockFreq() >> (AHBPrescTable[READ_BIT(RCC->CFGR, RCC_CFGR_HPRE) >> RCC_CFGR_HPRE_Pos] & 0x1FU);
 800477a:	f000 f825 	bl	80047c8 <HAL_RCC_GetSysClockFreq>
 800477e:	4602      	mov	r2, r0
 8004780:	4b0c      	ldr	r3, [pc, #48]	; (80047b4 <HAL_RCC_ClockConfig+0x264>)
 8004782:	689b      	ldr	r3, [r3, #8]
 8004784:	091b      	lsrs	r3, r3, #4
 8004786:	f003 030f 	and.w	r3, r3, #15
 800478a:	490c      	ldr	r1, [pc, #48]	; (80047bc <HAL_RCC_ClockConfig+0x26c>)
 800478c:	5ccb      	ldrb	r3, [r1, r3]
 800478e:	f003 031f 	and.w	r3, r3, #31
 8004792:	fa22 f303 	lsr.w	r3, r2, r3
 8004796:	4a0a      	ldr	r2, [pc, #40]	; (80047c0 <HAL_RCC_ClockConfig+0x270>)
 8004798:	6013      	str	r3, [r2, #0]

  /* Configure the source of time base considering new system clocks settings*/
  return HAL_InitTick(uwTickPrio);
 800479a:	4b0a      	ldr	r3, [pc, #40]	; (80047c4 <HAL_RCC_ClockConfig+0x274>)
 800479c:	681b      	ldr	r3, [r3, #0]
 800479e:	4618      	mov	r0, r3
 80047a0:	f7fc ff50 	bl	8001644 <HAL_InitTick>
 80047a4:	4603      	mov	r3, r0
}
 80047a6:	4618      	mov	r0, r3
 80047a8:	3718      	adds	r7, #24
 80047aa:	46bd      	mov	sp, r7
 80047ac:	bd80      	pop	{r7, pc}
 80047ae:	bf00      	nop
 80047b0:	40022000 	.word	0x40022000
 80047b4:	40021000 	.word	0x40021000
 80047b8:	04c4b400 	.word	0x04c4b400
 80047bc:	08007534 	.word	0x08007534
 80047c0:	20000018 	.word	0x20000018
 80047c4:	2000001c 	.word	0x2000001c

080047c8 <HAL_RCC_GetSysClockFreq>:
  *
  *
  * @retval SYSCLK frequency
  */
uint32_t HAL_RCC_GetSysClockFreq(void)
{
 80047c8:	b480      	push	{r7}
 80047ca:	b087      	sub	sp, #28
 80047cc:	af00      	add	r7, sp, #0
  uint32_t pllvco, pllsource, pllr, pllm;
  uint32_t sysclockfreq;

  if (__HAL_RCC_GET_SYSCLK_SOURCE() == RCC_CFGR_SWS_HSI)
 80047ce:	4b2c      	ldr	r3, [pc, #176]	; (8004880 <HAL_RCC_GetSysClockFreq+0xb8>)
 80047d0:	689b      	ldr	r3, [r3, #8]
 80047d2:	f003 030c 	and.w	r3, r3, #12
 80047d6:	2b04      	cmp	r3, #4
 80047d8:	d102      	bne.n	80047e0 <HAL_RCC_GetSysClockFreq+0x18>
  {
    /* HSI used as system clock source */
    sysclockfreq = HSI_VALUE;
 80047da:	4b2a      	ldr	r3, [pc, #168]	; (8004884 <HAL_RCC_GetSysClockFreq+0xbc>)
 80047dc:	613b      	str	r3, [r7, #16]
 80047de:	e047      	b.n	8004870 <HAL_RCC_GetSysClockFreq+0xa8>
  }
  else if (__HAL_RCC_GET_SYSCLK_SOURCE() == RCC_CFGR_SWS_HSE)
 80047e0:	4b27      	ldr	r3, [pc, #156]	; (8004880 <HAL_RCC_GetSysClockFreq+0xb8>)
 80047e2:	689b      	ldr	r3, [r3, #8]
 80047e4:	f003 030c 	and.w	r3, r3, #12
 80047e8:	2b08      	cmp	r3, #8
 80047ea:	d102      	bne.n	80047f2 <HAL_RCC_GetSysClockFreq+0x2a>
  {
    /* HSE used as system clock source */
    sysclockfreq = HSE_VALUE;
 80047ec:	4b26      	ldr	r3, [pc, #152]	; (8004888 <HAL_RCC_GetSysClockFreq+0xc0>)
 80047ee:	613b      	str	r3, [r7, #16]
 80047f0:	e03e      	b.n	8004870 <HAL_RCC_GetSysClockFreq+0xa8>
  }
  else if (__HAL_RCC_GET_SYSCLK_SOURCE() == RCC_CFGR_SWS_PLL)
 80047f2:	4b23      	ldr	r3, [pc, #140]	; (8004880 <HAL_RCC_GetSysClockFreq+0xb8>)
 80047f4:	689b      	ldr	r3, [r3, #8]
 80047f6:	f003 030c 	and.w	r3, r3, #12
 80047fa:	2b0c      	cmp	r3, #12
 80047fc:	d136      	bne.n	800486c <HAL_RCC_GetSysClockFreq+0xa4>
    /* PLL used as system clock  source */

    /* PLL_VCO = ((HSE_VALUE or HSI_VALUE)/ PLLM) * PLLN
    SYSCLK = PLL_VCO / PLLR
    */
    pllsource = READ_BIT(RCC->PLLCFGR, RCC_PLLCFGR_PLLSRC);
 80047fe:	4b20      	ldr	r3, [pc, #128]	; (8004880 <HAL_RCC_GetSysClockFreq+0xb8>)
 8004800:	68db      	ldr	r3, [r3, #12]
 8004802:	f003 0303 	and.w	r3, r3, #3
 8004806:	60fb      	str	r3, [r7, #12]
    pllm = (READ_BIT(RCC->PLLCFGR, RCC_PLLCFGR_PLLM) >> RCC_PLLCFGR_PLLM_Pos) + 1U ;
 8004808:	4b1d      	ldr	r3, [pc, #116]	; (8004880 <HAL_RCC_GetSysClockFreq+0xb8>)
 800480a:	68db      	ldr	r3, [r3, #12]
 800480c:	091b      	lsrs	r3, r3, #4
 800480e:	f003 030f 	and.w	r3, r3, #15
 8004812:	3301      	adds	r3, #1
 8004814:	60bb      	str	r3, [r7, #8]

    switch (pllsource)
 8004816:	68fb      	ldr	r3, [r7, #12]
 8004818:	2b03      	cmp	r3, #3
 800481a:	d10c      	bne.n	8004836 <HAL_RCC_GetSysClockFreq+0x6e>
    {
    case RCC_PLLSOURCE_HSE:  /* HSE used as PLL clock source */
      pllvco = (HSE_VALUE / pllm) * (READ_BIT(RCC->PLLCFGR, RCC_PLLCFGR_PLLN) >> RCC_PLLCFGR_PLLN_Pos);
 800481c:	4a1a      	ldr	r2, [pc, #104]	; (8004888 <HAL_RCC_GetSysClockFreq+0xc0>)
 800481e:	68bb      	ldr	r3, [r7, #8]
 8004820:	fbb2 f3f3 	udiv	r3, r2, r3
 8004824:	4a16      	ldr	r2, [pc, #88]	; (8004880 <HAL_RCC_GetSysClockFreq+0xb8>)
 8004826:	68d2      	ldr	r2, [r2, #12]
 8004828:	0a12      	lsrs	r2, r2, #8
 800482a:	f002 027f 	and.w	r2, r2, #127	; 0x7f
 800482e:	fb02 f303 	mul.w	r3, r2, r3
 8004832:	617b      	str	r3, [r7, #20]
      break;
 8004834:	e00c      	b.n	8004850 <HAL_RCC_GetSysClockFreq+0x88>

    case RCC_PLLSOURCE_HSI:  /* HSI used as PLL clock source */
    default:
      pllvco = (HSI_VALUE / pllm) * (READ_BIT(RCC->PLLCFGR, RCC_PLLCFGR_PLLN) >> RCC_PLLCFGR_PLLN_Pos);
 8004836:	4a13      	ldr	r2, [pc, #76]	; (8004884 <HAL_RCC_GetSysClockFreq+0xbc>)
 8004838:	68bb      	ldr	r3, [r7, #8]
 800483a:	fbb2 f3f3 	udiv	r3, r2, r3
 800483e:	4a10      	ldr	r2, [pc, #64]	; (8004880 <HAL_RCC_GetSysClockFreq+0xb8>)
 8004840:	68d2      	ldr	r2, [r2, #12]
 8004842:	0a12      	lsrs	r2, r2, #8
 8004844:	f002 027f 	and.w	r2, r2, #127	; 0x7f
 8004848:	fb02 f303 	mul.w	r3, r2, r3
 800484c:	617b      	str	r3, [r7, #20]
      break;
 800484e:	bf00      	nop
    }
    pllr = ((READ_BIT(RCC->PLLCFGR, RCC_PLLCFGR_PLLR) >> RCC_PLLCFGR_PLLR_Pos) + 1U ) * 2U;
 8004850:	4b0b      	ldr	r3, [pc, #44]	; (8004880 <HAL_RCC_GetSysClockFreq+0xb8>)
 8004852:	68db      	ldr	r3, [r3, #12]
 8004854:	0e5b      	lsrs	r3, r3, #25
 8004856:	f003 0303 	and.w	r3, r3, #3
 800485a:	3301      	adds	r3, #1
 800485c:	005b      	lsls	r3, r3, #1
 800485e:	607b      	str	r3, [r7, #4]
    sysclockfreq = pllvco/pllr;
 8004860:	697a      	ldr	r2, [r7, #20]
 8004862:	687b      	ldr	r3, [r7, #4]
 8004864:	fbb2 f3f3 	udiv	r3, r2, r3
 8004868:	613b      	str	r3, [r7, #16]
 800486a:	e001      	b.n	8004870 <HAL_RCC_GetSysClockFreq+0xa8>
  }
  else
  {
    sysclockfreq = 0U;
 800486c:	2300      	movs	r3, #0
 800486e:	613b      	str	r3, [r7, #16]
  }

  return sysclockfreq;
 8004870:	693b      	ldr	r3, [r7, #16]
}
 8004872:	4618      	mov	r0, r3
 8004874:	371c      	adds	r7, #28
 8004876:	46bd      	mov	sp, r7
 8004878:	f85d 7b04 	ldr.w	r7, [sp], #4
 800487c:	4770      	bx	lr
 800487e:	bf00      	nop
 8004880:	40021000 	.word	0x40021000
 8004884:	00f42400 	.word	0x00f42400
 8004888:	016e3600 	.word	0x016e3600

0800488c <HAL_RCC_GetHCLKFreq>:
  *
  * @note   The SystemCoreClock CMSIS variable is used to store System Clock Frequency.
  * @retval HCLK frequency in Hz
  */
uint32_t HAL_RCC_GetHCLKFreq(void)
{
 800488c:	b480      	push	{r7}
 800488e:	af00      	add	r7, sp, #0
  return SystemCoreClock;
 8004890:	4b03      	ldr	r3, [pc, #12]	; (80048a0 <HAL_RCC_GetHCLKFreq+0x14>)
 8004892:	681b      	ldr	r3, [r3, #0]
}
 8004894:	4618      	mov	r0, r3
 8004896:	46bd      	mov	sp, r7
 8004898:	f85d 7b04 	ldr.w	r7, [sp], #4
 800489c:	4770      	bx	lr
 800489e:	bf00      	nop
 80048a0:	20000018 	.word	0x20000018

080048a4 <HAL_RCC_GetPCLK1Freq>:
  * @note   Each time PCLK1 changes, this function must be called to update the
  *         right PCLK1 value. Otherwise, any configuration based on this function will be incorrect.
  * @retval PCLK1 frequency in Hz
  */
uint32_t HAL_RCC_GetPCLK1Freq(void)
{
 80048a4:	b580      	push	{r7, lr}
 80048a6:	af00      	add	r7, sp, #0
  /* Get HCLK source and Compute PCLK1 frequency ---------------------------*/
  return (HAL_RCC_GetHCLKFreq() >> (APBPrescTable[READ_BIT(RCC->CFGR, RCC_CFGR_PPRE1) >> RCC_CFGR_PPRE1_Pos] & 0x1FU));
 80048a8:	f7ff fff0 	bl	800488c <HAL_RCC_GetHCLKFreq>
 80048ac:	4602      	mov	r2, r0
 80048ae:	4b06      	ldr	r3, [pc, #24]	; (80048c8 <HAL_RCC_GetPCLK1Freq+0x24>)
 80048b0:	689b      	ldr	r3, [r3, #8]
 80048b2:	0a1b      	lsrs	r3, r3, #8
 80048b4:	f003 0307 	and.w	r3, r3, #7
 80048b8:	4904      	ldr	r1, [pc, #16]	; (80048cc <HAL_RCC_GetPCLK1Freq+0x28>)
 80048ba:	5ccb      	ldrb	r3, [r1, r3]
 80048bc:	f003 031f 	and.w	r3, r3, #31
 80048c0:	fa22 f303 	lsr.w	r3, r2, r3
}
 80048c4:	4618      	mov	r0, r3
 80048c6:	bd80      	pop	{r7, pc}
 80048c8:	40021000 	.word	0x40021000
 80048cc:	08007544 	.word	0x08007544

080048d0 <HAL_RCC_GetPCLK2Freq>:
  * @note   Each time PCLK2 changes, this function must be called to update the
  *         right PCLK2 value. Otherwise, any configuration based on this function will be incorrect.
  * @retval PCLK2 frequency in Hz
  */
uint32_t HAL_RCC_GetPCLK2Freq(void)
{
 80048d0:	b580      	push	{r7, lr}
 80048d2:	af00      	add	r7, sp, #0
  /* Get HCLK source and Compute PCLK2 frequency ---------------------------*/
  return (HAL_RCC_GetHCLKFreq()>> (APBPrescTable[READ_BIT(RCC->CFGR, RCC_CFGR_PPRE2) >> RCC_CFGR_PPRE2_Pos] & 0x1FU));
 80048d4:	f7ff ffda 	bl	800488c <HAL_RCC_GetHCLKFreq>
 80048d8:	4602      	mov	r2, r0
 80048da:	4b06      	ldr	r3, [pc, #24]	; (80048f4 <HAL_RCC_GetPCLK2Freq+0x24>)
 80048dc:	689b      	ldr	r3, [r3, #8]
 80048de:	0adb      	lsrs	r3, r3, #11
 80048e0:	f003 0307 	and.w	r3, r3, #7
 80048e4:	4904      	ldr	r1, [pc, #16]	; (80048f8 <HAL_RCC_GetPCLK2Freq+0x28>)
 80048e6:	5ccb      	ldrb	r3, [r1, r3]
 80048e8:	f003 031f 	and.w	r3, r3, #31
 80048ec:	fa22 f303 	lsr.w	r3, r2, r3
}
 80048f0:	4618      	mov	r0, r3
 80048f2:	bd80      	pop	{r7, pc}
 80048f4:	40021000 	.word	0x40021000
 80048f8:	08007544 	.word	0x08007544

080048fc <RCC_GetSysClockFreqFromPLLSource>:
/**
  * @brief  Compute SYSCLK frequency based on PLL SYSCLK source.
  * @retval SYSCLK frequency
  */
static uint32_t RCC_GetSysClockFreqFromPLLSource(void)
{
 80048fc:	b480      	push	{r7}
 80048fe:	b087      	sub	sp, #28
 8004900:	af00      	add	r7, sp, #0
  uint32_t sysclockfreq;

  /* PLL_VCO = (HSE_VALUE or HSI_VALUE/ PLLM) * PLLN
     SYSCLK = PLL_VCO / PLLR
   */
  pllsource = READ_BIT(RCC->PLLCFGR, RCC_PLLCFGR_PLLSRC);
 8004902:	4b1e      	ldr	r3, [pc, #120]	; (800497c <RCC_GetSysClockFreqFromPLLSource+0x80>)
 8004904:	68db      	ldr	r3, [r3, #12]
 8004906:	f003 0303 	and.w	r3, r3, #3
 800490a:	613b      	str	r3, [r7, #16]
  pllm = (READ_BIT(RCC->PLLCFGR, RCC_PLLCFGR_PLLM) >> RCC_PLLCFGR_PLLM_Pos) + 1U ;
 800490c:	4b1b      	ldr	r3, [pc, #108]	; (800497c <RCC_GetSysClockFreqFromPLLSource+0x80>)
 800490e:	68db      	ldr	r3, [r3, #12]
 8004910:	091b      	lsrs	r3, r3, #4
 8004912:	f003 030f 	and.w	r3, r3, #15
 8004916:	3301      	adds	r3, #1
 8004918:	60fb      	str	r3, [r7, #12]

  switch (pllsource)
 800491a:	693b      	ldr	r3, [r7, #16]
 800491c:	2b03      	cmp	r3, #3
 800491e:	d10c      	bne.n	800493a <RCC_GetSysClockFreqFromPLLSource+0x3e>
  {
  case RCC_PLLSOURCE_HSE:  /* HSE used as PLL clock source */
    pllvco = (HSE_VALUE / pllm) * (READ_BIT(RCC->PLLCFGR, RCC_PLLCFGR_PLLN) >> RCC_PLLCFGR_PLLN_Pos);
 8004920:	4a17      	ldr	r2, [pc, #92]	; (8004980 <RCC_GetSysClockFreqFromPLLSource+0x84>)
 8004922:	68fb      	ldr	r3, [r7, #12]
 8004924:	fbb2 f3f3 	udiv	r3, r2, r3
 8004928:	4a14      	ldr	r2, [pc, #80]	; (800497c <RCC_GetSysClockFreqFromPLLSource+0x80>)
 800492a:	68d2      	ldr	r2, [r2, #12]
 800492c:	0a12      	lsrs	r2, r2, #8
 800492e:	f002 027f 	and.w	r2, r2, #127	; 0x7f
 8004932:	fb02 f303 	mul.w	r3, r2, r3
 8004936:	617b      	str	r3, [r7, #20]
    break;
 8004938:	e00c      	b.n	8004954 <RCC_GetSysClockFreqFromPLLSource+0x58>

  case RCC_PLLSOURCE_HSI:  /* HSI used as PLL clock source */
  default:
    pllvco = (HSI_VALUE / pllm) * (READ_BIT(RCC->PLLCFGR, RCC_PLLCFGR_PLLN) >> RCC_PLLCFGR_PLLN_Pos);
 800493a:	4a12      	ldr	r2, [pc, #72]	; (8004984 <RCC_GetSysClockFreqFromPLLSource+0x88>)
 800493c:	68fb      	ldr	r3, [r7, #12]
 800493e:	fbb2 f3f3 	udiv	r3, r2, r3
 8004942:	4a0e      	ldr	r2, [pc, #56]	; (800497c <RCC_GetSysClockFreqFromPLLSource+0x80>)
 8004944:	68d2      	ldr	r2, [r2, #12]
 8004946:	0a12      	lsrs	r2, r2, #8
 8004948:	f002 027f 	and.w	r2, r2, #127	; 0x7f
 800494c:	fb02 f303 	mul.w	r3, r2, r3
 8004950:	617b      	str	r3, [r7, #20]
    break;
 8004952:	bf00      	nop
  }

  pllr = ((READ_BIT(RCC->PLLCFGR, RCC_PLLCFGR_PLLR) >> RCC_PLLCFGR_PLLR_Pos) + 1U ) * 2U;
 8004954:	4b09      	ldr	r3, [pc, #36]	; (800497c <RCC_GetSysClockFreqFromPLLSource+0x80>)
 8004956:	68db      	ldr	r3, [r3, #12]
 8004958:	0e5b      	lsrs	r3, r3, #25
 800495a:	f003 0303 	and.w	r3, r3, #3
 800495e:	3301      	adds	r3, #1
 8004960:	005b      	lsls	r3, r3, #1
 8004962:	60bb      	str	r3, [r7, #8]
  sysclockfreq = pllvco/pllr;
 8004964:	697a      	ldr	r2, [r7, #20]
 8004966:	68bb      	ldr	r3, [r7, #8]
 8004968:	fbb2 f3f3 	udiv	r3, r2, r3
 800496c:	607b      	str	r3, [r7, #4]

  return sysclockfreq;
 800496e:	687b      	ldr	r3, [r7, #4]
}
 8004970:	4618      	mov	r0, r3
 8004972:	371c      	adds	r7, #28
 8004974:	46bd      	mov	sp, r7
 8004976:	f85d 7b04 	ldr.w	r7, [sp], #4
 800497a:	4770      	bx	lr
 800497c:	40021000 	.word	0x40021000
 8004980:	016e3600 	.word	0x016e3600
 8004984:	00f42400 	.word	0x00f42400

08004988 <HAL_RCCEx_PeriphCLKConfig>:
  *         the RTC clock source: in this case the access to Backup domain is enabled.
  *
  * @retval HAL status
  */
HAL_StatusTypeDef HAL_RCCEx_PeriphCLKConfig(RCC_PeriphCLKInitTypeDef  *PeriphClkInit)
{
 8004988:	b580      	push	{r7, lr}
 800498a:	b086      	sub	sp, #24
 800498c:	af00      	add	r7, sp, #0
 800498e:	6078      	str	r0, [r7, #4]
  uint32_t tmpregister;
  uint32_t tickstart;
  HAL_StatusTypeDef ret = HAL_OK;      /* Intermediate status */
 8004990:	2300      	movs	r3, #0
 8004992:	74fb      	strb	r3, [r7, #19]
  HAL_StatusTypeDef status = HAL_OK;   /* Final status */
 8004994:	2300      	movs	r3, #0
 8004996:	74bb      	strb	r3, [r7, #18]

  /* Check the parameters */
  assert_param(IS_RCC_PERIPHCLOCK(PeriphClkInit->PeriphClockSelection));

  /*-------------------------- RTC clock source configuration ----------------------*/
  if((PeriphClkInit->PeriphClockSelection & RCC_PERIPHCLK_RTC) == RCC_PERIPHCLK_RTC)
 8004998:	687b      	ldr	r3, [r7, #4]
 800499a:	681b      	ldr	r3, [r3, #0]
 800499c:	f403 2300 	and.w	r3, r3, #524288	; 0x80000
 80049a0:	2b00      	cmp	r3, #0
 80049a2:	f000 8098 	beq.w	8004ad6 <HAL_RCCEx_PeriphCLKConfig+0x14e>
  {
    FlagStatus       pwrclkchanged = RESET;
 80049a6:	2300      	movs	r3, #0
 80049a8:	747b      	strb	r3, [r7, #17]
    
    /* Check for RTC Parameters used to output RTCCLK */
    assert_param(IS_RCC_RTCCLKSOURCE(PeriphClkInit->RTCClockSelection));

    /* Enable Power Clock */
    if(__HAL_RCC_PWR_IS_CLK_DISABLED())
 80049aa:	4b43      	ldr	r3, [pc, #268]	; (8004ab8 <HAL_RCCEx_PeriphCLKConfig+0x130>)
 80049ac:	6d9b      	ldr	r3, [r3, #88]	; 0x58
 80049ae:	f003 5380 	and.w	r3, r3, #268435456	; 0x10000000
 80049b2:	2b00      	cmp	r3, #0
 80049b4:	d10d      	bne.n	80049d2 <HAL_RCCEx_PeriphCLKConfig+0x4a>
    {
      __HAL_RCC_PWR_CLK_ENABLE();
 80049b6:	4b40      	ldr	r3, [pc, #256]	; (8004ab8 <HAL_RCCEx_PeriphCLKConfig+0x130>)
 80049b8:	6d9b      	ldr	r3, [r3, #88]	; 0x58
 80049ba:	4a3f      	ldr	r2, [pc, #252]	; (8004ab8 <HAL_RCCEx_PeriphCLKConfig+0x130>)
 80049bc:	f043 5380 	orr.w	r3, r3, #268435456	; 0x10000000
 80049c0:	6593      	str	r3, [r2, #88]	; 0x58
 80049c2:	4b3d      	ldr	r3, [pc, #244]	; (8004ab8 <HAL_RCCEx_PeriphCLKConfig+0x130>)
 80049c4:	6d9b      	ldr	r3, [r3, #88]	; 0x58
 80049c6:	f003 5380 	and.w	r3, r3, #268435456	; 0x10000000
 80049ca:	60bb      	str	r3, [r7, #8]
 80049cc:	68bb      	ldr	r3, [r7, #8]
      pwrclkchanged = SET;
 80049ce:	2301      	movs	r3, #1
 80049d0:	747b      	strb	r3, [r7, #17]
    }
      
    /* Enable write access to Backup domain */
    SET_BIT(PWR->CR1, PWR_CR1_DBP);
 80049d2:	4b3a      	ldr	r3, [pc, #232]	; (8004abc <HAL_RCCEx_PeriphCLKConfig+0x134>)
 80049d4:	681b      	ldr	r3, [r3, #0]
 80049d6:	4a39      	ldr	r2, [pc, #228]	; (8004abc <HAL_RCCEx_PeriphCLKConfig+0x134>)
 80049d8:	f443 7380 	orr.w	r3, r3, #256	; 0x100
 80049dc:	6013      	str	r3, [r2, #0]

    /* Wait for Backup domain Write protection disable */
    tickstart = HAL_GetTick();
 80049de:	f7fc fe7d 	bl	80016dc <HAL_GetTick>
 80049e2:	60f8      	str	r0, [r7, #12]

    while((PWR->CR1 & PWR_CR1_DBP) == 0U)
 80049e4:	e009      	b.n	80049fa <HAL_RCCEx_PeriphCLKConfig+0x72>
    {
      if((HAL_GetTick() - tickstart) > RCC_DBP_TIMEOUT_VALUE)
 80049e6:	f7fc fe79 	bl	80016dc <HAL_GetTick>
 80049ea:	4602      	mov	r2, r0
 80049ec:	68fb      	ldr	r3, [r7, #12]
 80049ee:	1ad3      	subs	r3, r2, r3
 80049f0:	2b02      	cmp	r3, #2
 80049f2:	d902      	bls.n	80049fa <HAL_RCCEx_PeriphCLKConfig+0x72>
      {
        ret = HAL_TIMEOUT;
 80049f4:	2303      	movs	r3, #3
 80049f6:	74fb      	strb	r3, [r7, #19]
        break;
 80049f8:	e005      	b.n	8004a06 <HAL_RCCEx_PeriphCLKConfig+0x7e>
    while((PWR->CR1 & PWR_CR1_DBP) == 0U)
 80049fa:	4b30      	ldr	r3, [pc, #192]	; (8004abc <HAL_RCCEx_PeriphCLKConfig+0x134>)
 80049fc:	681b      	ldr	r3, [r3, #0]
 80049fe:	f403 7380 	and.w	r3, r3, #256	; 0x100
 8004a02:	2b00      	cmp	r3, #0
 8004a04:	d0ef      	beq.n	80049e6 <HAL_RCCEx_PeriphCLKConfig+0x5e>
      }
    }

    if(ret == HAL_OK)
 8004a06:	7cfb      	ldrb	r3, [r7, #19]
 8004a08:	2b00      	cmp	r3, #0
 8004a0a:	d159      	bne.n	8004ac0 <HAL_RCCEx_PeriphCLKConfig+0x138>
    { 
      /* Reset the Backup domain only if the RTC Clock source selection is modified from default */
      tmpregister = READ_BIT(RCC->BDCR, RCC_BDCR_RTCSEL);
 8004a0c:	4b2a      	ldr	r3, [pc, #168]	; (8004ab8 <HAL_RCCEx_PeriphCLKConfig+0x130>)
 8004a0e:	f8d3 3090 	ldr.w	r3, [r3, #144]	; 0x90
 8004a12:	f403 7340 	and.w	r3, r3, #768	; 0x300
 8004a16:	617b      	str	r3, [r7, #20]
      
      if((tmpregister != RCC_RTCCLKSOURCE_NONE) && (tmpregister != PeriphClkInit->RTCClockSelection))
 8004a18:	697b      	ldr	r3, [r7, #20]
 8004a1a:	2b00      	cmp	r3, #0
 8004a1c:	d01e      	beq.n	8004a5c <HAL_RCCEx_PeriphCLKConfig+0xd4>
 8004a1e:	687b      	ldr	r3, [r7, #4]
 8004a20:	6d1b      	ldr	r3, [r3, #80]	; 0x50
 8004a22:	697a      	ldr	r2, [r7, #20]
 8004a24:	429a      	cmp	r2, r3
 8004a26:	d019      	beq.n	8004a5c <HAL_RCCEx_PeriphCLKConfig+0xd4>
      {
        /* Store the content of BDCR register before the reset of Backup Domain */
        tmpregister = READ_BIT(RCC->BDCR, ~(RCC_BDCR_RTCSEL));
 8004a28:	4b23      	ldr	r3, [pc, #140]	; (8004ab8 <HAL_RCCEx_PeriphCLKConfig+0x130>)
 8004a2a:	f8d3 3090 	ldr.w	r3, [r3, #144]	; 0x90
 8004a2e:	f423 7340 	bic.w	r3, r3, #768	; 0x300
 8004a32:	617b      	str	r3, [r7, #20]
        /* RTC Clock selection can be changed only if the Backup Domain is reset */
        __HAL_RCC_BACKUPRESET_FORCE();
 8004a34:	4b20      	ldr	r3, [pc, #128]	; (8004ab8 <HAL_RCCEx_PeriphCLKConfig+0x130>)
 8004a36:	f8d3 3090 	ldr.w	r3, [r3, #144]	; 0x90
 8004a3a:	4a1f      	ldr	r2, [pc, #124]	; (8004ab8 <HAL_RCCEx_PeriphCLKConfig+0x130>)
 8004a3c:	f443 3380 	orr.w	r3, r3, #65536	; 0x10000
 8004a40:	f8c2 3090 	str.w	r3, [r2, #144]	; 0x90
        __HAL_RCC_BACKUPRESET_RELEASE();
 8004a44:	4b1c      	ldr	r3, [pc, #112]	; (8004ab8 <HAL_RCCEx_PeriphCLKConfig+0x130>)
 8004a46:	f8d3 3090 	ldr.w	r3, [r3, #144]	; 0x90
 8004a4a:	4a1b      	ldr	r2, [pc, #108]	; (8004ab8 <HAL_RCCEx_PeriphCLKConfig+0x130>)
 8004a4c:	f423 3380 	bic.w	r3, r3, #65536	; 0x10000
 8004a50:	f8c2 3090 	str.w	r3, [r2, #144]	; 0x90
        /* Restore the Content of BDCR register */
        RCC->BDCR = tmpregister;
 8004a54:	4a18      	ldr	r2, [pc, #96]	; (8004ab8 <HAL_RCCEx_PeriphCLKConfig+0x130>)
 8004a56:	697b      	ldr	r3, [r7, #20]
 8004a58:	f8c2 3090 	str.w	r3, [r2, #144]	; 0x90
      }

      /* Wait for LSE reactivation if LSE was enable prior to Backup Domain reset */
      if (HAL_IS_BIT_SET(tmpregister, RCC_BDCR_LSEON))
 8004a5c:	697b      	ldr	r3, [r7, #20]
 8004a5e:	f003 0301 	and.w	r3, r3, #1
 8004a62:	2b00      	cmp	r3, #0
 8004a64:	d016      	beq.n	8004a94 <HAL_RCCEx_PeriphCLKConfig+0x10c>
      {
        /* Get Start Tick*/
        tickstart = HAL_GetTick();
 8004a66:	f7fc fe39 	bl	80016dc <HAL_GetTick>
 8004a6a:	60f8      	str	r0, [r7, #12]

        /* Wait till LSE is ready */
        while(READ_BIT(RCC->BDCR, RCC_BDCR_LSERDY) == 0U)
 8004a6c:	e00b      	b.n	8004a86 <HAL_RCCEx_PeriphCLKConfig+0xfe>
        {
          if((HAL_GetTick() - tickstart) > RCC_LSE_TIMEOUT_VALUE)
 8004a6e:	f7fc fe35 	bl	80016dc <HAL_GetTick>
 8004a72:	4602      	mov	r2, r0
 8004a74:	68fb      	ldr	r3, [r7, #12]
 8004a76:	1ad3      	subs	r3, r2, r3
 8004a78:	f241 3288 	movw	r2, #5000	; 0x1388
 8004a7c:	4293      	cmp	r3, r2
 8004a7e:	d902      	bls.n	8004a86 <HAL_RCCEx_PeriphCLKConfig+0xfe>
          {
            ret = HAL_TIMEOUT;
 8004a80:	2303      	movs	r3, #3
 8004a82:	74fb      	strb	r3, [r7, #19]
            break;
 8004a84:	e006      	b.n	8004a94 <HAL_RCCEx_PeriphCLKConfig+0x10c>
        while(READ_BIT(RCC->BDCR, RCC_BDCR_LSERDY) == 0U)
 8004a86:	4b0c      	ldr	r3, [pc, #48]	; (8004ab8 <HAL_RCCEx_PeriphCLKConfig+0x130>)
 8004a88:	f8d3 3090 	ldr.w	r3, [r3, #144]	; 0x90
 8004a8c:	f003 0302 	and.w	r3, r3, #2
 8004a90:	2b00      	cmp	r3, #0
 8004a92:	d0ec      	beq.n	8004a6e <HAL_RCCEx_PeriphCLKConfig+0xe6>
          }
        }
      }
      
      if(ret == HAL_OK)
 8004a94:	7cfb      	ldrb	r3, [r7, #19]
 8004a96:	2b00      	cmp	r3, #0
 8004a98:	d10b      	bne.n	8004ab2 <HAL_RCCEx_PeriphCLKConfig+0x12a>
      {
        /* Apply new RTC clock source selection */
        __HAL_RCC_RTC_CONFIG(PeriphClkInit->RTCClockSelection);
 8004a9a:	4b07      	ldr	r3, [pc, #28]	; (8004ab8 <HAL_RCCEx_PeriphCLKConfig+0x130>)
 8004a9c:	f8d3 3090 	ldr.w	r3, [r3, #144]	; 0x90
 8004aa0:	f423 7240 	bic.w	r2, r3, #768	; 0x300
 8004aa4:	687b      	ldr	r3, [r7, #4]
 8004aa6:	6d1b      	ldr	r3, [r3, #80]	; 0x50
 8004aa8:	4903      	ldr	r1, [pc, #12]	; (8004ab8 <HAL_RCCEx_PeriphCLKConfig+0x130>)
 8004aaa:	4313      	orrs	r3, r2
 8004aac:	f8c1 3090 	str.w	r3, [r1, #144]	; 0x90
 8004ab0:	e008      	b.n	8004ac4 <HAL_RCCEx_PeriphCLKConfig+0x13c>
      }
      else
      {
        /* set overall return value */
        status = ret;
 8004ab2:	7cfb      	ldrb	r3, [r7, #19]
 8004ab4:	74bb      	strb	r3, [r7, #18]
 8004ab6:	e005      	b.n	8004ac4 <HAL_RCCEx_PeriphCLKConfig+0x13c>
 8004ab8:	40021000 	.word	0x40021000
 8004abc:	40007000 	.word	0x40007000
      }
    }
    else
    {
      /* set overall return value */
      status = ret;
 8004ac0:	7cfb      	ldrb	r3, [r7, #19]
 8004ac2:	74bb      	strb	r3, [r7, #18]
    }

    /* Restore clock configuration if changed */
    if(pwrclkchanged == SET)
 8004ac4:	7c7b      	ldrb	r3, [r7, #17]
 8004ac6:	2b01      	cmp	r3, #1
 8004ac8:	d105      	bne.n	8004ad6 <HAL_RCCEx_PeriphCLKConfig+0x14e>
    {
      __HAL_RCC_PWR_CLK_DISABLE();
 8004aca:	4ba7      	ldr	r3, [pc, #668]	; (8004d68 <HAL_RCCEx_PeriphCLKConfig+0x3e0>)
 8004acc:	6d9b      	ldr	r3, [r3, #88]	; 0x58
 8004ace:	4aa6      	ldr	r2, [pc, #664]	; (8004d68 <HAL_RCCEx_PeriphCLKConfig+0x3e0>)
 8004ad0:	f023 5380 	bic.w	r3, r3, #268435456	; 0x10000000
 8004ad4:	6593      	str	r3, [r2, #88]	; 0x58
    }
  }

  /*-------------------------- USART1 clock source configuration -------------------*/
  if(((PeriphClkInit->PeriphClockSelection) & RCC_PERIPHCLK_USART1) == RCC_PERIPHCLK_USART1)
 8004ad6:	687b      	ldr	r3, [r7, #4]
 8004ad8:	681b      	ldr	r3, [r3, #0]
 8004ada:	f003 0301 	and.w	r3, r3, #1
 8004ade:	2b00      	cmp	r3, #0
 8004ae0:	d00a      	beq.n	8004af8 <HAL_RCCEx_PeriphCLKConfig+0x170>
  {
    /* Check the parameters */
    assert_param(IS_RCC_USART1CLKSOURCE(PeriphClkInit->Usart1ClockSelection));

    /* Configure the USART1 clock source */
    __HAL_RCC_USART1_CONFIG(PeriphClkInit->Usart1ClockSelection);
 8004ae2:	4ba1      	ldr	r3, [pc, #644]	; (8004d68 <HAL_RCCEx_PeriphCLKConfig+0x3e0>)
 8004ae4:	f8d3 3088 	ldr.w	r3, [r3, #136]	; 0x88
 8004ae8:	f023 0203 	bic.w	r2, r3, #3
 8004aec:	687b      	ldr	r3, [r7, #4]
 8004aee:	685b      	ldr	r3, [r3, #4]
 8004af0:	499d      	ldr	r1, [pc, #628]	; (8004d68 <HAL_RCCEx_PeriphCLKConfig+0x3e0>)
 8004af2:	4313      	orrs	r3, r2
 8004af4:	f8c1 3088 	str.w	r3, [r1, #136]	; 0x88
  }

  /*-------------------------- USART2 clock source configuration -------------------*/
  if(((PeriphClkInit->PeriphClockSelection) & RCC_PERIPHCLK_USART2) == RCC_PERIPHCLK_USART2)
 8004af8:	687b      	ldr	r3, [r7, #4]
 8004afa:	681b      	ldr	r3, [r3, #0]
 8004afc:	f003 0302 	and.w	r3, r3, #2
 8004b00:	2b00      	cmp	r3, #0
 8004b02:	d00a      	beq.n	8004b1a <HAL_RCCEx_PeriphCLKConfig+0x192>
  {
    /* Check the parameters */
    assert_param(IS_RCC_USART2CLKSOURCE(PeriphClkInit->Usart2ClockSelection));

    /* Configure the USART2 clock source */
    __HAL_RCC_USART2_CONFIG(PeriphClkInit->Usart2ClockSelection);
 8004b04:	4b98      	ldr	r3, [pc, #608]	; (8004d68 <HAL_RCCEx_PeriphCLKConfig+0x3e0>)
 8004b06:	f8d3 3088 	ldr.w	r3, [r3, #136]	; 0x88
 8004b0a:	f023 020c 	bic.w	r2, r3, #12
 8004b0e:	687b      	ldr	r3, [r7, #4]
 8004b10:	689b      	ldr	r3, [r3, #8]
 8004b12:	4995      	ldr	r1, [pc, #596]	; (8004d68 <HAL_RCCEx_PeriphCLKConfig+0x3e0>)
 8004b14:	4313      	orrs	r3, r2
 8004b16:	f8c1 3088 	str.w	r3, [r1, #136]	; 0x88
  }

  /*-------------------------- USART3 clock source configuration -------------------*/
  if(((PeriphClkInit->PeriphClockSelection) & RCC_PERIPHCLK_USART3) == RCC_PERIPHCLK_USART3)
 8004b1a:	687b      	ldr	r3, [r7, #4]
 8004b1c:	681b      	ldr	r3, [r3, #0]
 8004b1e:	f003 0304 	and.w	r3, r3, #4
 8004b22:	2b00      	cmp	r3, #0
 8004b24:	d00a      	beq.n	8004b3c <HAL_RCCEx_PeriphCLKConfig+0x1b4>
  {
    /* Check the parameters */
    assert_param(IS_RCC_USART3CLKSOURCE(PeriphClkInit->Usart3ClockSelection));

    /* Configure the USART3 clock source */
    __HAL_RCC_USART3_CONFIG(PeriphClkInit->Usart3ClockSelection);
 8004b26:	4b90      	ldr	r3, [pc, #576]	; (8004d68 <HAL_RCCEx_PeriphCLKConfig+0x3e0>)
 8004b28:	f8d3 3088 	ldr.w	r3, [r3, #136]	; 0x88
 8004b2c:	f023 0230 	bic.w	r2, r3, #48	; 0x30
 8004b30:	687b      	ldr	r3, [r7, #4]
 8004b32:	68db      	ldr	r3, [r3, #12]
 8004b34:	498c      	ldr	r1, [pc, #560]	; (8004d68 <HAL_RCCEx_PeriphCLKConfig+0x3e0>)
 8004b36:	4313      	orrs	r3, r2
 8004b38:	f8c1 3088 	str.w	r3, [r1, #136]	; 0x88
  }

#if defined(UART4)
  /*-------------------------- UART4 clock source configuration --------------------*/
  if(((PeriphClkInit->PeriphClockSelection) & RCC_PERIPHCLK_UART4) == RCC_PERIPHCLK_UART4)
 8004b3c:	687b      	ldr	r3, [r7, #4]
 8004b3e:	681b      	ldr	r3, [r3, #0]
 8004b40:	f003 0308 	and.w	r3, r3, #8
 8004b44:	2b00      	cmp	r3, #0
 8004b46:	d00a      	beq.n	8004b5e <HAL_RCCEx_PeriphCLKConfig+0x1d6>
  {
    /* Check the parameters */
    assert_param(IS_RCC_UART4CLKSOURCE(PeriphClkInit->Uart4ClockSelection));

    /* Configure the UART4 clock source */
    __HAL_RCC_UART4_CONFIG(PeriphClkInit->Uart4ClockSelection);
 8004b48:	4b87      	ldr	r3, [pc, #540]	; (8004d68 <HAL_RCCEx_PeriphCLKConfig+0x3e0>)
 8004b4a:	f8d3 3088 	ldr.w	r3, [r3, #136]	; 0x88
 8004b4e:	f023 02c0 	bic.w	r2, r3, #192	; 0xc0
 8004b52:	687b      	ldr	r3, [r7, #4]
 8004b54:	691b      	ldr	r3, [r3, #16]
 8004b56:	4984      	ldr	r1, [pc, #528]	; (8004d68 <HAL_RCCEx_PeriphCLKConfig+0x3e0>)
 8004b58:	4313      	orrs	r3, r2
 8004b5a:	f8c1 3088 	str.w	r3, [r1, #136]	; 0x88
#endif /* UART4 */

#if defined(UART5)

  /*-------------------------- UART5 clock source configuration --------------------*/
  if(((PeriphClkInit->PeriphClockSelection) & RCC_PERIPHCLK_UART5) == RCC_PERIPHCLK_UART5)
 8004b5e:	687b      	ldr	r3, [r7, #4]
 8004b60:	681b      	ldr	r3, [r3, #0]
 8004b62:	f003 0310 	and.w	r3, r3, #16
 8004b66:	2b00      	cmp	r3, #0
 8004b68:	d00a      	beq.n	8004b80 <HAL_RCCEx_PeriphCLKConfig+0x1f8>
  {
    /* Check the parameters */
    assert_param(IS_RCC_UART5CLKSOURCE(PeriphClkInit->Uart5ClockSelection));

    /* Configure the UART5 clock source */
    __HAL_RCC_UART5_CONFIG(PeriphClkInit->Uart5ClockSelection);
 8004b6a:	4b7f      	ldr	r3, [pc, #508]	; (8004d68 <HAL_RCCEx_PeriphCLKConfig+0x3e0>)
 8004b6c:	f8d3 3088 	ldr.w	r3, [r3, #136]	; 0x88
 8004b70:	f423 7240 	bic.w	r2, r3, #768	; 0x300
 8004b74:	687b      	ldr	r3, [r7, #4]
 8004b76:	695b      	ldr	r3, [r3, #20]
 8004b78:	497b      	ldr	r1, [pc, #492]	; (8004d68 <HAL_RCCEx_PeriphCLKConfig+0x3e0>)
 8004b7a:	4313      	orrs	r3, r2
 8004b7c:	f8c1 3088 	str.w	r3, [r1, #136]	; 0x88
  }

#endif /* UART5 */

  /*-------------------------- LPUART1 clock source configuration ------------------*/
  if(((PeriphClkInit->PeriphClockSelection) & RCC_PERIPHCLK_LPUART1) == RCC_PERIPHCLK_LPUART1)
 8004b80:	687b      	ldr	r3, [r7, #4]
 8004b82:	681b      	ldr	r3, [r3, #0]
 8004b84:	f003 0320 	and.w	r3, r3, #32
 8004b88:	2b00      	cmp	r3, #0
 8004b8a:	d00a      	beq.n	8004ba2 <HAL_RCCEx_PeriphCLKConfig+0x21a>
  {
    /* Check the parameters */
    assert_param(IS_RCC_LPUART1CLKSOURCE(PeriphClkInit->Lpuart1ClockSelection));

    /* Configure the LPUAR1 clock source */
    __HAL_RCC_LPUART1_CONFIG(PeriphClkInit->Lpuart1ClockSelection);
 8004b8c:	4b76      	ldr	r3, [pc, #472]	; (8004d68 <HAL_RCCEx_PeriphCLKConfig+0x3e0>)
 8004b8e:	f8d3 3088 	ldr.w	r3, [r3, #136]	; 0x88
 8004b92:	f423 6240 	bic.w	r2, r3, #3072	; 0xc00
 8004b96:	687b      	ldr	r3, [r7, #4]
 8004b98:	699b      	ldr	r3, [r3, #24]
 8004b9a:	4973      	ldr	r1, [pc, #460]	; (8004d68 <HAL_RCCEx_PeriphCLKConfig+0x3e0>)
 8004b9c:	4313      	orrs	r3, r2
 8004b9e:	f8c1 3088 	str.w	r3, [r1, #136]	; 0x88
  }

  /*-------------------------- I2C1 clock source configuration ---------------------*/
  if(((PeriphClkInit->PeriphClockSelection) & RCC_PERIPHCLK_I2C1) == RCC_PERIPHCLK_I2C1)
 8004ba2:	687b      	ldr	r3, [r7, #4]
 8004ba4:	681b      	ldr	r3, [r3, #0]
 8004ba6:	f003 0340 	and.w	r3, r3, #64	; 0x40
 8004baa:	2b00      	cmp	r3, #0
 8004bac:	d00a      	beq.n	8004bc4 <HAL_RCCEx_PeriphCLKConfig+0x23c>
  {
    /* Check the parameters */
    assert_param(IS_RCC_I2C1CLKSOURCE(PeriphClkInit->I2c1ClockSelection));

    /* Configure the I2C1 clock source */
    __HAL_RCC_I2C1_CONFIG(PeriphClkInit->I2c1ClockSelection);
 8004bae:	4b6e      	ldr	r3, [pc, #440]	; (8004d68 <HAL_RCCEx_PeriphCLKConfig+0x3e0>)
 8004bb0:	f8d3 3088 	ldr.w	r3, [r3, #136]	; 0x88
 8004bb4:	f423 5240 	bic.w	r2, r3, #12288	; 0x3000
 8004bb8:	687b      	ldr	r3, [r7, #4]
 8004bba:	69db      	ldr	r3, [r3, #28]
 8004bbc:	496a      	ldr	r1, [pc, #424]	; (8004d68 <HAL_RCCEx_PeriphCLKConfig+0x3e0>)
 8004bbe:	4313      	orrs	r3, r2
 8004bc0:	f8c1 3088 	str.w	r3, [r1, #136]	; 0x88
  }

  /*-------------------------- I2C2 clock source configuration ---------------------*/
  if(((PeriphClkInit->PeriphClockSelection) & RCC_PERIPHCLK_I2C2) == RCC_PERIPHCLK_I2C2)
 8004bc4:	687b      	ldr	r3, [r7, #4]
 8004bc6:	681b      	ldr	r3, [r3, #0]
 8004bc8:	f003 0380 	and.w	r3, r3, #128	; 0x80
 8004bcc:	2b00      	cmp	r3, #0
 8004bce:	d00a      	beq.n	8004be6 <HAL_RCCEx_PeriphCLKConfig+0x25e>
  {
    /* Check the parameters */
    assert_param(IS_RCC_I2C2CLKSOURCE(PeriphClkInit->I2c2ClockSelection));

    /* Configure the I2C2 clock source */
    __HAL_RCC_I2C2_CONFIG(PeriphClkInit->I2c2ClockSelection);
 8004bd0:	4b65      	ldr	r3, [pc, #404]	; (8004d68 <HAL_RCCEx_PeriphCLKConfig+0x3e0>)
 8004bd2:	f8d3 3088 	ldr.w	r3, [r3, #136]	; 0x88
 8004bd6:	f423 4240 	bic.w	r2, r3, #49152	; 0xc000
 8004bda:	687b      	ldr	r3, [r7, #4]
 8004bdc:	6a1b      	ldr	r3, [r3, #32]
 8004bde:	4962      	ldr	r1, [pc, #392]	; (8004d68 <HAL_RCCEx_PeriphCLKConfig+0x3e0>)
 8004be0:	4313      	orrs	r3, r2
 8004be2:	f8c1 3088 	str.w	r3, [r1, #136]	; 0x88
  }

  /*-------------------------- I2C3 clock source configuration ---------------------*/
  if(((PeriphClkInit->PeriphClockSelection) & RCC_PERIPHCLK_I2C3) == RCC_PERIPHCLK_I2C3)
 8004be6:	687b      	ldr	r3, [r7, #4]
 8004be8:	681b      	ldr	r3, [r3, #0]
 8004bea:	f403 7380 	and.w	r3, r3, #256	; 0x100
 8004bee:	2b00      	cmp	r3, #0
 8004bf0:	d00a      	beq.n	8004c08 <HAL_RCCEx_PeriphCLKConfig+0x280>
  {
    /* Check the parameters */
    assert_param(IS_RCC_I2C3CLKSOURCE(PeriphClkInit->I2c3ClockSelection));

    /* Configure the I2C3 clock source */
    __HAL_RCC_I2C3_CONFIG(PeriphClkInit->I2c3ClockSelection);
 8004bf2:	4b5d      	ldr	r3, [pc, #372]	; (8004d68 <HAL_RCCEx_PeriphCLKConfig+0x3e0>)
 8004bf4:	f8d3 3088 	ldr.w	r3, [r3, #136]	; 0x88
 8004bf8:	f423 3240 	bic.w	r2, r3, #196608	; 0x30000
 8004bfc:	687b      	ldr	r3, [r7, #4]
 8004bfe:	6a5b      	ldr	r3, [r3, #36]	; 0x24
 8004c00:	4959      	ldr	r1, [pc, #356]	; (8004d68 <HAL_RCCEx_PeriphCLKConfig+0x3e0>)
 8004c02:	4313      	orrs	r3, r2
 8004c04:	f8c1 3088 	str.w	r3, [r1, #136]	; 0x88
  }

#if defined(I2C4)  

  /*-------------------------- I2C4 clock source configuration ---------------------*/
  if(((PeriphClkInit->PeriphClockSelection) & RCC_PERIPHCLK_I2C4) == RCC_PERIPHCLK_I2C4)
 8004c08:	687b      	ldr	r3, [r7, #4]
 8004c0a:	681b      	ldr	r3, [r3, #0]
 8004c0c:	f403 3300 	and.w	r3, r3, #131072	; 0x20000
 8004c10:	2b00      	cmp	r3, #0
 8004c12:	d00a      	beq.n	8004c2a <HAL_RCCEx_PeriphCLKConfig+0x2a2>
  {
    /* Check the parameters */
    assert_param(IS_RCC_I2C4CLKSOURCE(PeriphClkInit->I2c4ClockSelection));

    /* Configure the I2C4 clock source */
    __HAL_RCC_I2C4_CONFIG(PeriphClkInit->I2c4ClockSelection);
 8004c14:	4b54      	ldr	r3, [pc, #336]	; (8004d68 <HAL_RCCEx_PeriphCLKConfig+0x3e0>)
 8004c16:	f8d3 309c 	ldr.w	r3, [r3, #156]	; 0x9c
 8004c1a:	f023 0203 	bic.w	r2, r3, #3
 8004c1e:	687b      	ldr	r3, [r7, #4]
 8004c20:	6a9b      	ldr	r3, [r3, #40]	; 0x28
 8004c22:	4951      	ldr	r1, [pc, #324]	; (8004d68 <HAL_RCCEx_PeriphCLKConfig+0x3e0>)
 8004c24:	4313      	orrs	r3, r2
 8004c26:	f8c1 309c 	str.w	r3, [r1, #156]	; 0x9c
  }

#endif /* I2C4 */

  /*-------------------------- LPTIM1 clock source configuration ---------------------*/
  if(((PeriphClkInit->PeriphClockSelection) & RCC_PERIPHCLK_LPTIM1) == RCC_PERIPHCLK_LPTIM1)
 8004c2a:	687b      	ldr	r3, [r7, #4]
 8004c2c:	681b      	ldr	r3, [r3, #0]
 8004c2e:	f403 7300 	and.w	r3, r3, #512	; 0x200
 8004c32:	2b00      	cmp	r3, #0
 8004c34:	d00a      	beq.n	8004c4c <HAL_RCCEx_PeriphCLKConfig+0x2c4>
  {
    /* Check the parameters */
    assert_param(IS_RCC_LPTIM1CLKSOURCE(PeriphClkInit->Lptim1ClockSelection));

    /* Configure the LPTIM1 clock source */
    __HAL_RCC_LPTIM1_CONFIG(PeriphClkInit->Lptim1ClockSelection);
 8004c36:	4b4c      	ldr	r3, [pc, #304]	; (8004d68 <HAL_RCCEx_PeriphCLKConfig+0x3e0>)
 8004c38:	f8d3 3088 	ldr.w	r3, [r3, #136]	; 0x88
 8004c3c:	f423 2240 	bic.w	r2, r3, #786432	; 0xc0000
 8004c40:	687b      	ldr	r3, [r7, #4]
 8004c42:	6adb      	ldr	r3, [r3, #44]	; 0x2c
 8004c44:	4948      	ldr	r1, [pc, #288]	; (8004d68 <HAL_RCCEx_PeriphCLKConfig+0x3e0>)
 8004c46:	4313      	orrs	r3, r2
 8004c48:	f8c1 3088 	str.w	r3, [r1, #136]	; 0x88
  }

  /*-------------------------- SAI1 clock source configuration ---------------------*/
  if(((PeriphClkInit->PeriphClockSelection) & RCC_PERIPHCLK_SAI1) == RCC_PERIPHCLK_SAI1)
 8004c4c:	687b      	ldr	r3, [r7, #4]
 8004c4e:	681b      	ldr	r3, [r3, #0]
 8004c50:	f403 6380 	and.w	r3, r3, #1024	; 0x400
 8004c54:	2b00      	cmp	r3, #0
 8004c56:	d015      	beq.n	8004c84 <HAL_RCCEx_PeriphCLKConfig+0x2fc>
  {
    /* Check the parameters */
    assert_param(IS_RCC_SAI1CLKSOURCE(PeriphClkInit->Sai1ClockSelection));

    /* Configure the SAI1 interface clock source */
    __HAL_RCC_SAI1_CONFIG(PeriphClkInit->Sai1ClockSelection);
 8004c58:	4b43      	ldr	r3, [pc, #268]	; (8004d68 <HAL_RCCEx_PeriphCLKConfig+0x3e0>)
 8004c5a:	f8d3 3088 	ldr.w	r3, [r3, #136]	; 0x88
 8004c5e:	f423 1240 	bic.w	r2, r3, #3145728	; 0x300000
 8004c62:	687b      	ldr	r3, [r7, #4]
 8004c64:	6b1b      	ldr	r3, [r3, #48]	; 0x30
 8004c66:	4940      	ldr	r1, [pc, #256]	; (8004d68 <HAL_RCCEx_PeriphCLKConfig+0x3e0>)
 8004c68:	4313      	orrs	r3, r2
 8004c6a:	f8c1 3088 	str.w	r3, [r1, #136]	; 0x88
    
    if(PeriphClkInit->Sai1ClockSelection == RCC_SAI1CLKSOURCE_PLL)
 8004c6e:	687b      	ldr	r3, [r7, #4]
 8004c70:	6b1b      	ldr	r3, [r3, #48]	; 0x30
 8004c72:	f5b3 1f80 	cmp.w	r3, #1048576	; 0x100000
 8004c76:	d105      	bne.n	8004c84 <HAL_RCCEx_PeriphCLKConfig+0x2fc>
    {
      /* Enable PLL48M1CLK output */
      __HAL_RCC_PLLCLKOUT_ENABLE(RCC_PLL_48M1CLK);
 8004c78:	4b3b      	ldr	r3, [pc, #236]	; (8004d68 <HAL_RCCEx_PeriphCLKConfig+0x3e0>)
 8004c7a:	68db      	ldr	r3, [r3, #12]
 8004c7c:	4a3a      	ldr	r2, [pc, #232]	; (8004d68 <HAL_RCCEx_PeriphCLKConfig+0x3e0>)
 8004c7e:	f443 1380 	orr.w	r3, r3, #1048576	; 0x100000
 8004c82:	60d3      	str	r3, [r2, #12]
    }
  }

  /*-------------------------- I2S clock source configuration ---------------------*/
  if(((PeriphClkInit->PeriphClockSelection) & RCC_PERIPHCLK_I2S) == RCC_PERIPHCLK_I2S)
 8004c84:	687b      	ldr	r3, [r7, #4]
 8004c86:	681b      	ldr	r3, [r3, #0]
 8004c88:	f403 6300 	and.w	r3, r3, #2048	; 0x800
 8004c8c:	2b00      	cmp	r3, #0
 8004c8e:	d015      	beq.n	8004cbc <HAL_RCCEx_PeriphCLKConfig+0x334>
  {
    /* Check the parameters */
    assert_param(IS_RCC_I2SCLKSOURCE(PeriphClkInit->I2sClockSelection));

    /* Configure the I2S interface clock source */
    __HAL_RCC_I2S_CONFIG(PeriphClkInit->I2sClockSelection);
 8004c90:	4b35      	ldr	r3, [pc, #212]	; (8004d68 <HAL_RCCEx_PeriphCLKConfig+0x3e0>)
 8004c92:	f8d3 3088 	ldr.w	r3, [r3, #136]	; 0x88
 8004c96:	f423 0240 	bic.w	r2, r3, #12582912	; 0xc00000
 8004c9a:	687b      	ldr	r3, [r7, #4]
 8004c9c:	6b5b      	ldr	r3, [r3, #52]	; 0x34
 8004c9e:	4932      	ldr	r1, [pc, #200]	; (8004d68 <HAL_RCCEx_PeriphCLKConfig+0x3e0>)
 8004ca0:	4313      	orrs	r3, r2
 8004ca2:	f8c1 3088 	str.w	r3, [r1, #136]	; 0x88
    
    if(PeriphClkInit->I2sClockSelection == RCC_I2SCLKSOURCE_PLL)
 8004ca6:	687b      	ldr	r3, [r7, #4]
 8004ca8:	6b5b      	ldr	r3, [r3, #52]	; 0x34
 8004caa:	f5b3 0f80 	cmp.w	r3, #4194304	; 0x400000
 8004cae:	d105      	bne.n	8004cbc <HAL_RCCEx_PeriphCLKConfig+0x334>
    {
      /* Enable PLL48M1CLK output */
      __HAL_RCC_PLLCLKOUT_ENABLE(RCC_PLL_48M1CLK);
 8004cb0:	4b2d      	ldr	r3, [pc, #180]	; (8004d68 <HAL_RCCEx_PeriphCLKConfig+0x3e0>)
 8004cb2:	68db      	ldr	r3, [r3, #12]
 8004cb4:	4a2c      	ldr	r2, [pc, #176]	; (8004d68 <HAL_RCCEx_PeriphCLKConfig+0x3e0>)
 8004cb6:	f443 1380 	orr.w	r3, r3, #1048576	; 0x100000
 8004cba:	60d3      	str	r3, [r2, #12]
    }
  }

#if defined(FDCAN1)
  /*-------------------------- FDCAN clock source configuration ---------------------*/
  if(((PeriphClkInit->PeriphClockSelection) & RCC_PERIPHCLK_FDCAN) == RCC_PERIPHCLK_FDCAN)
 8004cbc:	687b      	ldr	r3, [r7, #4]
 8004cbe:	681b      	ldr	r3, [r3, #0]
 8004cc0:	f403 5380 	and.w	r3, r3, #4096	; 0x1000
 8004cc4:	2b00      	cmp	r3, #0
 8004cc6:	d015      	beq.n	8004cf4 <HAL_RCCEx_PeriphCLKConfig+0x36c>
  {
    /* Check the parameters */
    assert_param(IS_RCC_FDCANCLKSOURCE(PeriphClkInit->FdcanClockSelection));

    /* Configure the FDCAN interface clock source */
    __HAL_RCC_FDCAN_CONFIG(PeriphClkInit->FdcanClockSelection);
 8004cc8:	4b27      	ldr	r3, [pc, #156]	; (8004d68 <HAL_RCCEx_PeriphCLKConfig+0x3e0>)
 8004cca:	f8d3 3088 	ldr.w	r3, [r3, #136]	; 0x88
 8004cce:	f023 7240 	bic.w	r2, r3, #50331648	; 0x3000000
 8004cd2:	687b      	ldr	r3, [r7, #4]
 8004cd4:	6b9b      	ldr	r3, [r3, #56]	; 0x38
 8004cd6:	4924      	ldr	r1, [pc, #144]	; (8004d68 <HAL_RCCEx_PeriphCLKConfig+0x3e0>)
 8004cd8:	4313      	orrs	r3, r2
 8004cda:	f8c1 3088 	str.w	r3, [r1, #136]	; 0x88
    
    if(PeriphClkInit->FdcanClockSelection == RCC_FDCANCLKSOURCE_PLL)
 8004cde:	687b      	ldr	r3, [r7, #4]
 8004ce0:	6b9b      	ldr	r3, [r3, #56]	; 0x38
 8004ce2:	f1b3 7f80 	cmp.w	r3, #16777216	; 0x1000000
 8004ce6:	d105      	bne.n	8004cf4 <HAL_RCCEx_PeriphCLKConfig+0x36c>
    {
      /* Enable PLL48M1CLK output */
      __HAL_RCC_PLLCLKOUT_ENABLE(RCC_PLL_48M1CLK);
 8004ce8:	4b1f      	ldr	r3, [pc, #124]	; (8004d68 <HAL_RCCEx_PeriphCLKConfig+0x3e0>)
 8004cea:	68db      	ldr	r3, [r3, #12]
 8004cec:	4a1e      	ldr	r2, [pc, #120]	; (8004d68 <HAL_RCCEx_PeriphCLKConfig+0x3e0>)
 8004cee:	f443 1380 	orr.w	r3, r3, #1048576	; 0x100000
 8004cf2:	60d3      	str	r3, [r2, #12]
#endif /* FDCAN1 */

#if defined(USB)

  /*-------------------------- USB clock source configuration ----------------------*/
  if(((PeriphClkInit->PeriphClockSelection) & RCC_PERIPHCLK_USB) == (RCC_PERIPHCLK_USB))
 8004cf4:	687b      	ldr	r3, [r7, #4]
 8004cf6:	681b      	ldr	r3, [r3, #0]
 8004cf8:	f403 5300 	and.w	r3, r3, #8192	; 0x2000
 8004cfc:	2b00      	cmp	r3, #0
 8004cfe:	d015      	beq.n	8004d2c <HAL_RCCEx_PeriphCLKConfig+0x3a4>
  {
    assert_param(IS_RCC_USBCLKSOURCE(PeriphClkInit->UsbClockSelection));
    __HAL_RCC_USB_CONFIG(PeriphClkInit->UsbClockSelection);
 8004d00:	4b19      	ldr	r3, [pc, #100]	; (8004d68 <HAL_RCCEx_PeriphCLKConfig+0x3e0>)
 8004d02:	f8d3 3088 	ldr.w	r3, [r3, #136]	; 0x88
 8004d06:	f023 6240 	bic.w	r2, r3, #201326592	; 0xc000000
 8004d0a:	687b      	ldr	r3, [r7, #4]
 8004d0c:	6bdb      	ldr	r3, [r3, #60]	; 0x3c
 8004d0e:	4916      	ldr	r1, [pc, #88]	; (8004d68 <HAL_RCCEx_PeriphCLKConfig+0x3e0>)
 8004d10:	4313      	orrs	r3, r2
 8004d12:	f8c1 3088 	str.w	r3, [r1, #136]	; 0x88

    if(PeriphClkInit->UsbClockSelection == RCC_USBCLKSOURCE_PLL)
 8004d16:	687b      	ldr	r3, [r7, #4]
 8004d18:	6bdb      	ldr	r3, [r3, #60]	; 0x3c
 8004d1a:	f1b3 6f00 	cmp.w	r3, #134217728	; 0x8000000
 8004d1e:	d105      	bne.n	8004d2c <HAL_RCCEx_PeriphCLKConfig+0x3a4>
    {
      /* Enable PLL48M1CLK output */
      __HAL_RCC_PLLCLKOUT_ENABLE(RCC_PLL_48M1CLK);
 8004d20:	4b11      	ldr	r3, [pc, #68]	; (8004d68 <HAL_RCCEx_PeriphCLKConfig+0x3e0>)
 8004d22:	68db      	ldr	r3, [r3, #12]
 8004d24:	4a10      	ldr	r2, [pc, #64]	; (8004d68 <HAL_RCCEx_PeriphCLKConfig+0x3e0>)
 8004d26:	f443 1380 	orr.w	r3, r3, #1048576	; 0x100000
 8004d2a:	60d3      	str	r3, [r2, #12]
  }

#endif /* USB */

  /*-------------------------- RNG clock source configuration ----------------------*/
  if(((PeriphClkInit->PeriphClockSelection) & RCC_PERIPHCLK_RNG) == (RCC_PERIPHCLK_RNG))
 8004d2c:	687b      	ldr	r3, [r7, #4]
 8004d2e:	681b      	ldr	r3, [r3, #0]
 8004d30:	f403 4380 	and.w	r3, r3, #16384	; 0x4000
 8004d34:	2b00      	cmp	r3, #0
 8004d36:	d019      	beq.n	8004d6c <HAL_RCCEx_PeriphCLKConfig+0x3e4>
  {
    assert_param(IS_RCC_RNGCLKSOURCE(PeriphClkInit->RngClockSelection));
    __HAL_RCC_RNG_CONFIG(PeriphClkInit->RngClockSelection);
 8004d38:	4b0b      	ldr	r3, [pc, #44]	; (8004d68 <HAL_RCCEx_PeriphCLKConfig+0x3e0>)
 8004d3a:	f8d3 3088 	ldr.w	r3, [r3, #136]	; 0x88
 8004d3e:	f023 6240 	bic.w	r2, r3, #201326592	; 0xc000000
 8004d42:	687b      	ldr	r3, [r7, #4]
 8004d44:	6c1b      	ldr	r3, [r3, #64]	; 0x40
 8004d46:	4908      	ldr	r1, [pc, #32]	; (8004d68 <HAL_RCCEx_PeriphCLKConfig+0x3e0>)
 8004d48:	4313      	orrs	r3, r2
 8004d4a:	f8c1 3088 	str.w	r3, [r1, #136]	; 0x88

    if(PeriphClkInit->RngClockSelection == RCC_RNGCLKSOURCE_PLL)
 8004d4e:	687b      	ldr	r3, [r7, #4]
 8004d50:	6c1b      	ldr	r3, [r3, #64]	; 0x40
 8004d52:	f1b3 6f00 	cmp.w	r3, #134217728	; 0x8000000
 8004d56:	d109      	bne.n	8004d6c <HAL_RCCEx_PeriphCLKConfig+0x3e4>
    {
      /* Enable PLL48M1CLK output */
      __HAL_RCC_PLLCLKOUT_ENABLE(RCC_PLL_48M1CLK);
 8004d58:	4b03      	ldr	r3, [pc, #12]	; (8004d68 <HAL_RCCEx_PeriphCLKConfig+0x3e0>)
 8004d5a:	68db      	ldr	r3, [r3, #12]
 8004d5c:	4a02      	ldr	r2, [pc, #8]	; (8004d68 <HAL_RCCEx_PeriphCLKConfig+0x3e0>)
 8004d5e:	f443 1380 	orr.w	r3, r3, #1048576	; 0x100000
 8004d62:	60d3      	str	r3, [r2, #12]
 8004d64:	e002      	b.n	8004d6c <HAL_RCCEx_PeriphCLKConfig+0x3e4>
 8004d66:	bf00      	nop
 8004d68:	40021000 	.word	0x40021000
    }
  }

  /*-------------------------- ADC12 clock source configuration ----------------------*/
  if(((PeriphClkInit->PeriphClockSelection) & RCC_PERIPHCLK_ADC12) == RCC_PERIPHCLK_ADC12)
 8004d6c:	687b      	ldr	r3, [r7, #4]
 8004d6e:	681b      	ldr	r3, [r3, #0]
 8004d70:	f403 4300 	and.w	r3, r3, #32768	; 0x8000
 8004d74:	2b00      	cmp	r3, #0
 8004d76:	d015      	beq.n	8004da4 <HAL_RCCEx_PeriphCLKConfig+0x41c>
  {
    /* Check the parameters */
    assert_param(IS_RCC_ADC12CLKSOURCE(PeriphClkInit->Adc12ClockSelection));

    /* Configure the ADC12 interface clock source */
    __HAL_RCC_ADC12_CONFIG(PeriphClkInit->Adc12ClockSelection);
 8004d78:	4b29      	ldr	r3, [pc, #164]	; (8004e20 <HAL_RCCEx_PeriphCLKConfig+0x498>)
 8004d7a:	f8d3 3088 	ldr.w	r3, [r3, #136]	; 0x88
 8004d7e:	f023 5240 	bic.w	r2, r3, #805306368	; 0x30000000
 8004d82:	687b      	ldr	r3, [r7, #4]
 8004d84:	6c5b      	ldr	r3, [r3, #68]	; 0x44
 8004d86:	4926      	ldr	r1, [pc, #152]	; (8004e20 <HAL_RCCEx_PeriphCLKConfig+0x498>)
 8004d88:	4313      	orrs	r3, r2
 8004d8a:	f8c1 3088 	str.w	r3, [r1, #136]	; 0x88
    
    if(PeriphClkInit->Adc12ClockSelection == RCC_ADC12CLKSOURCE_PLL)
 8004d8e:	687b      	ldr	r3, [r7, #4]
 8004d90:	6c5b      	ldr	r3, [r3, #68]	; 0x44
 8004d92:	f1b3 5f80 	cmp.w	r3, #268435456	; 0x10000000
 8004d96:	d105      	bne.n	8004da4 <HAL_RCCEx_PeriphCLKConfig+0x41c>
    {
      /* Enable PLLADCCLK output */
      __HAL_RCC_PLLCLKOUT_ENABLE(RCC_PLL_ADCCLK);
 8004d98:	4b21      	ldr	r3, [pc, #132]	; (8004e20 <HAL_RCCEx_PeriphCLKConfig+0x498>)
 8004d9a:	68db      	ldr	r3, [r3, #12]
 8004d9c:	4a20      	ldr	r2, [pc, #128]	; (8004e20 <HAL_RCCEx_PeriphCLKConfig+0x498>)
 8004d9e:	f443 3380 	orr.w	r3, r3, #65536	; 0x10000
 8004da2:	60d3      	str	r3, [r2, #12]
    }
  }
  
#if defined(ADC345_COMMON)
  /*-------------------------- ADC345 clock source configuration ----------------------*/
  if(((PeriphClkInit->PeriphClockSelection) & RCC_PERIPHCLK_ADC345) == RCC_PERIPHCLK_ADC345)
 8004da4:	687b      	ldr	r3, [r7, #4]
 8004da6:	681b      	ldr	r3, [r3, #0]
 8004da8:	f403 3380 	and.w	r3, r3, #65536	; 0x10000
 8004dac:	2b00      	cmp	r3, #0
 8004dae:	d015      	beq.n	8004ddc <HAL_RCCEx_PeriphCLKConfig+0x454>
  {
    /* Check the parameters */
    assert_param(IS_RCC_ADC345CLKSOURCE(PeriphClkInit->Adc345ClockSelection));

    /* Configure the ADC345 interface clock source */
    __HAL_RCC_ADC345_CONFIG(PeriphClkInit->Adc345ClockSelection);
 8004db0:	4b1b      	ldr	r3, [pc, #108]	; (8004e20 <HAL_RCCEx_PeriphCLKConfig+0x498>)
 8004db2:	f8d3 3088 	ldr.w	r3, [r3, #136]	; 0x88
 8004db6:	f023 4240 	bic.w	r2, r3, #3221225472	; 0xc0000000
 8004dba:	687b      	ldr	r3, [r7, #4]
 8004dbc:	6c9b      	ldr	r3, [r3, #72]	; 0x48
 8004dbe:	4918      	ldr	r1, [pc, #96]	; (8004e20 <HAL_RCCEx_PeriphCLKConfig+0x498>)
 8004dc0:	4313      	orrs	r3, r2
 8004dc2:	f8c1 3088 	str.w	r3, [r1, #136]	; 0x88
    
    if(PeriphClkInit->Adc345ClockSelection == RCC_ADC345CLKSOURCE_PLL)
 8004dc6:	687b      	ldr	r3, [r7, #4]
 8004dc8:	6c9b      	ldr	r3, [r3, #72]	; 0x48
 8004dca:	f1b3 4f80 	cmp.w	r3, #1073741824	; 0x40000000
 8004dce:	d105      	bne.n	8004ddc <HAL_RCCEx_PeriphCLKConfig+0x454>
    {
      /* Enable PLLADCCLK output */
      __HAL_RCC_PLLCLKOUT_ENABLE(RCC_PLL_ADCCLK);
 8004dd0:	4b13      	ldr	r3, [pc, #76]	; (8004e20 <HAL_RCCEx_PeriphCLKConfig+0x498>)
 8004dd2:	68db      	ldr	r3, [r3, #12]
 8004dd4:	4a12      	ldr	r2, [pc, #72]	; (8004e20 <HAL_RCCEx_PeriphCLKConfig+0x498>)
 8004dd6:	f443 3380 	orr.w	r3, r3, #65536	; 0x10000
 8004dda:	60d3      	str	r3, [r2, #12]
#endif /* ADC345_COMMON */

#if defined(QUADSPI)

  /*-------------------------- QuadSPIx clock source configuration ----------------*/
  if(((PeriphClkInit->PeriphClockSelection) & RCC_PERIPHCLK_QSPI) == RCC_PERIPHCLK_QSPI)
 8004ddc:	687b      	ldr	r3, [r7, #4]
 8004dde:	681b      	ldr	r3, [r3, #0]
 8004de0:	f403 2380 	and.w	r3, r3, #262144	; 0x40000
 8004de4:	2b00      	cmp	r3, #0
 8004de6:	d015      	beq.n	8004e14 <HAL_RCCEx_PeriphCLKConfig+0x48c>
  {
    /* Check the parameters */
    assert_param(IS_RCC_QSPICLKSOURCE(PeriphClkInit->QspiClockSelection));

    /* Configure the QuadSPI clock source */
    __HAL_RCC_QSPI_CONFIG(PeriphClkInit->QspiClockSelection);
 8004de8:	4b0d      	ldr	r3, [pc, #52]	; (8004e20 <HAL_RCCEx_PeriphCLKConfig+0x498>)
 8004dea:	f8d3 309c 	ldr.w	r3, [r3, #156]	; 0x9c
 8004dee:	f423 1240 	bic.w	r2, r3, #3145728	; 0x300000
 8004df2:	687b      	ldr	r3, [r7, #4]
 8004df4:	6cdb      	ldr	r3, [r3, #76]	; 0x4c
 8004df6:	490a      	ldr	r1, [pc, #40]	; (8004e20 <HAL_RCCEx_PeriphCLKConfig+0x498>)
 8004df8:	4313      	orrs	r3, r2
 8004dfa:	f8c1 309c 	str.w	r3, [r1, #156]	; 0x9c

    if(PeriphClkInit->QspiClockSelection == RCC_QSPICLKSOURCE_PLL)
 8004dfe:	687b      	ldr	r3, [r7, #4]
 8004e00:	6cdb      	ldr	r3, [r3, #76]	; 0x4c
 8004e02:	f5b3 1f00 	cmp.w	r3, #2097152	; 0x200000
 8004e06:	d105      	bne.n	8004e14 <HAL_RCCEx_PeriphCLKConfig+0x48c>
    {
      /* Enable PLL48M1CLK output */
      __HAL_RCC_PLLCLKOUT_ENABLE(RCC_PLL_48M1CLK);
 8004e08:	4b05      	ldr	r3, [pc, #20]	; (8004e20 <HAL_RCCEx_PeriphCLKConfig+0x498>)
 8004e0a:	68db      	ldr	r3, [r3, #12]
 8004e0c:	4a04      	ldr	r2, [pc, #16]	; (8004e20 <HAL_RCCEx_PeriphCLKConfig+0x498>)
 8004e0e:	f443 1380 	orr.w	r3, r3, #1048576	; 0x100000
 8004e12:	60d3      	str	r3, [r2, #12]
    }
  }

#endif /* QUADSPI */

  return status;
 8004e14:	7cbb      	ldrb	r3, [r7, #18]
}
 8004e16:	4618      	mov	r0, r3
 8004e18:	3718      	adds	r7, #24
 8004e1a:	46bd      	mov	sp, r7
 8004e1c:	bd80      	pop	{r7, pc}
 8004e1e:	bf00      	nop
 8004e20:	40021000 	.word	0x40021000

08004e24 <HAL_SPI_Init>:
  * @param  hspi pointer to a SPI_HandleTypeDef structure that contains
  *               the configuration information for SPI module.
  * @retval HAL status
  */
HAL_StatusTypeDef HAL_SPI_Init(SPI_HandleTypeDef *hspi)
{
 8004e24:	b580      	push	{r7, lr}
 8004e26:	b084      	sub	sp, #16
 8004e28:	af00      	add	r7, sp, #0
 8004e2a:	6078      	str	r0, [r7, #4]
  uint32_t frxth;

  /* Check the SPI handle allocation */
  if (hspi == NULL)
 8004e2c:	687b      	ldr	r3, [r7, #4]
 8004e2e:	2b00      	cmp	r3, #0
 8004e30:	d101      	bne.n	8004e36 <HAL_SPI_Init+0x12>
  {
    return HAL_ERROR;
 8004e32:	2301      	movs	r3, #1
 8004e34:	e09d      	b.n	8004f72 <HAL_SPI_Init+0x14e>
  assert_param(IS_SPI_NSS(hspi->Init.NSS));
  assert_param(IS_SPI_NSSP(hspi->Init.NSSPMode));
  assert_param(IS_SPI_BAUDRATE_PRESCALER(hspi->Init.BaudRatePrescaler));
  assert_param(IS_SPI_FIRST_BIT(hspi->Init.FirstBit));
  assert_param(IS_SPI_TIMODE(hspi->Init.TIMode));
  if (hspi->Init.TIMode == SPI_TIMODE_DISABLE)
 8004e36:	687b      	ldr	r3, [r7, #4]
 8004e38:	6a5b      	ldr	r3, [r3, #36]	; 0x24
 8004e3a:	2b00      	cmp	r3, #0
 8004e3c:	d108      	bne.n	8004e50 <HAL_SPI_Init+0x2c>
  {
    assert_param(IS_SPI_CPOL(hspi->Init.CLKPolarity));
    assert_param(IS_SPI_CPHA(hspi->Init.CLKPhase));

    if (hspi->Init.Mode == SPI_MODE_MASTER)
 8004e3e:	687b      	ldr	r3, [r7, #4]
 8004e40:	685b      	ldr	r3, [r3, #4]
 8004e42:	f5b3 7f82 	cmp.w	r3, #260	; 0x104
 8004e46:	d009      	beq.n	8004e5c <HAL_SPI_Init+0x38>
      assert_param(IS_SPI_BAUDRATE_PRESCALER(hspi->Init.BaudRatePrescaler));
    }
    else
    {
      /* Baudrate prescaler not use in Motoraola Slave mode. force to default value */
      hspi->Init.BaudRatePrescaler = SPI_BAUDRATEPRESCALER_2;
 8004e48:	687b      	ldr	r3, [r7, #4]
 8004e4a:	2200      	movs	r2, #0
 8004e4c:	61da      	str	r2, [r3, #28]
 8004e4e:	e005      	b.n	8004e5c <HAL_SPI_Init+0x38>
  else
  {
    assert_param(IS_SPI_BAUDRATE_PRESCALER(hspi->Init.BaudRatePrescaler));

    /* Force polarity and phase to TI protocaol requirements */
    hspi->Init.CLKPolarity = SPI_POLARITY_LOW;
 8004e50:	687b      	ldr	r3, [r7, #4]
 8004e52:	2200      	movs	r2, #0
 8004e54:	611a      	str	r2, [r3, #16]
    hspi->Init.CLKPhase    = SPI_PHASE_1EDGE;
 8004e56:	687b      	ldr	r3, [r7, #4]
 8004e58:	2200      	movs	r2, #0
 8004e5a:	615a      	str	r2, [r3, #20]
  {
    assert_param(IS_SPI_CRC_POLYNOMIAL(hspi->Init.CRCPolynomial));
    assert_param(IS_SPI_CRC_LENGTH(hspi->Init.CRCLength));
  }
#else
  hspi->Init.CRCCalculation = SPI_CRCCALCULATION_DISABLE;
 8004e5c:	687b      	ldr	r3, [r7, #4]
 8004e5e:	2200      	movs	r2, #0
 8004e60:	629a      	str	r2, [r3, #40]	; 0x28
#endif /* USE_SPI_CRC */

  if (hspi->State == HAL_SPI_STATE_RESET)
 8004e62:	687b      	ldr	r3, [r7, #4]
 8004e64:	f893 305d 	ldrb.w	r3, [r3, #93]	; 0x5d
 8004e68:	b2db      	uxtb	r3, r3
 8004e6a:	2b00      	cmp	r3, #0
 8004e6c:	d106      	bne.n	8004e7c <HAL_SPI_Init+0x58>
  {
    /* Allocate lock resource and initialize it */
    hspi->Lock = HAL_UNLOCKED;
 8004e6e:	687b      	ldr	r3, [r7, #4]
 8004e70:	2200      	movs	r2, #0
 8004e72:	f883 205c 	strb.w	r2, [r3, #92]	; 0x5c

    /* Init the low level hardware : GPIO, CLOCK, NVIC... */
    hspi->MspInitCallback(hspi);
#else
    /* Init the low level hardware : GPIO, CLOCK, NVIC... */
    HAL_SPI_MspInit(hspi);
 8004e76:	6878      	ldr	r0, [r7, #4]
 8004e78:	f7fc fa1a 	bl	80012b0 <HAL_SPI_MspInit>
#endif /* USE_HAL_SPI_REGISTER_CALLBACKS */
  }

  hspi->State = HAL_SPI_STATE_BUSY;
 8004e7c:	687b      	ldr	r3, [r7, #4]
 8004e7e:	2202      	movs	r2, #2
 8004e80:	f883 205d 	strb.w	r2, [r3, #93]	; 0x5d

  /* Disable the selected SPI peripheral */
  __HAL_SPI_DISABLE(hspi);
 8004e84:	687b      	ldr	r3, [r7, #4]
 8004e86:	681b      	ldr	r3, [r3, #0]
 8004e88:	681a      	ldr	r2, [r3, #0]
 8004e8a:	687b      	ldr	r3, [r7, #4]
 8004e8c:	681b      	ldr	r3, [r3, #0]
 8004e8e:	f022 0240 	bic.w	r2, r2, #64	; 0x40
 8004e92:	601a      	str	r2, [r3, #0]

  /* Align by default the rs fifo threshold on the data size */
  if (hspi->Init.DataSize > SPI_DATASIZE_8BIT)
 8004e94:	687b      	ldr	r3, [r7, #4]
 8004e96:	68db      	ldr	r3, [r3, #12]
 8004e98:	f5b3 6fe0 	cmp.w	r3, #1792	; 0x700
 8004e9c:	d902      	bls.n	8004ea4 <HAL_SPI_Init+0x80>
  {
    frxth = SPI_RXFIFO_THRESHOLD_HF;
 8004e9e:	2300      	movs	r3, #0
 8004ea0:	60fb      	str	r3, [r7, #12]
 8004ea2:	e002      	b.n	8004eaa <HAL_SPI_Init+0x86>
  }
  else
  {
    frxth = SPI_RXFIFO_THRESHOLD_QF;
 8004ea4:	f44f 5380 	mov.w	r3, #4096	; 0x1000
 8004ea8:	60fb      	str	r3, [r7, #12]
  }

  /* CRC calculation is valid only for 16Bit and 8 Bit */
  if ((hspi->Init.DataSize != SPI_DATASIZE_16BIT) && (hspi->Init.DataSize != SPI_DATASIZE_8BIT))
 8004eaa:	687b      	ldr	r3, [r7, #4]
 8004eac:	68db      	ldr	r3, [r3, #12]
 8004eae:	f5b3 6f70 	cmp.w	r3, #3840	; 0xf00
 8004eb2:	d007      	beq.n	8004ec4 <HAL_SPI_Init+0xa0>
 8004eb4:	687b      	ldr	r3, [r7, #4]
 8004eb6:	68db      	ldr	r3, [r3, #12]
 8004eb8:	f5b3 6fe0 	cmp.w	r3, #1792	; 0x700
 8004ebc:	d002      	beq.n	8004ec4 <HAL_SPI_Init+0xa0>
  {
    /* CRC must be disabled */
    hspi->Init.CRCCalculation = SPI_CRCCALCULATION_DISABLE;
 8004ebe:	687b      	ldr	r3, [r7, #4]
 8004ec0:	2200      	movs	r2, #0
 8004ec2:	629a      	str	r2, [r3, #40]	; 0x28
  }

  /*----------------------- SPIx CR1 & CR2 Configuration ---------------------*/
  /* Configure : SPI Mode, Communication Mode, Clock polarity and phase, NSS management,
  Communication speed, First bit and CRC calculation state */
  WRITE_REG(hspi->Instance->CR1, ((hspi->Init.Mode & (SPI_CR1_MSTR | SPI_CR1_SSI)) |
 8004ec4:	687b      	ldr	r3, [r7, #4]
 8004ec6:	685b      	ldr	r3, [r3, #4]
 8004ec8:	f403 7282 	and.w	r2, r3, #260	; 0x104
 8004ecc:	687b      	ldr	r3, [r7, #4]
 8004ece:	689b      	ldr	r3, [r3, #8]
 8004ed0:	f403 4304 	and.w	r3, r3, #33792	; 0x8400
 8004ed4:	431a      	orrs	r2, r3
 8004ed6:	687b      	ldr	r3, [r7, #4]
 8004ed8:	691b      	ldr	r3, [r3, #16]
 8004eda:	f003 0302 	and.w	r3, r3, #2
 8004ede:	431a      	orrs	r2, r3
 8004ee0:	687b      	ldr	r3, [r7, #4]
 8004ee2:	695b      	ldr	r3, [r3, #20]
 8004ee4:	f003 0301 	and.w	r3, r3, #1
 8004ee8:	431a      	orrs	r2, r3
 8004eea:	687b      	ldr	r3, [r7, #4]
 8004eec:	699b      	ldr	r3, [r3, #24]
 8004eee:	f403 7300 	and.w	r3, r3, #512	; 0x200
 8004ef2:	431a      	orrs	r2, r3
 8004ef4:	687b      	ldr	r3, [r7, #4]
 8004ef6:	69db      	ldr	r3, [r3, #28]
 8004ef8:	f003 0338 	and.w	r3, r3, #56	; 0x38
 8004efc:	431a      	orrs	r2, r3
 8004efe:	687b      	ldr	r3, [r7, #4]
 8004f00:	6a1b      	ldr	r3, [r3, #32]
 8004f02:	f003 0380 	and.w	r3, r3, #128	; 0x80
 8004f06:	ea42 0103 	orr.w	r1, r2, r3
 8004f0a:	687b      	ldr	r3, [r7, #4]
 8004f0c:	6a9b      	ldr	r3, [r3, #40]	; 0x28
 8004f0e:	f403 5200 	and.w	r2, r3, #8192	; 0x2000
 8004f12:	687b      	ldr	r3, [r7, #4]
 8004f14:	681b      	ldr	r3, [r3, #0]
 8004f16:	430a      	orrs	r2, r1
 8004f18:	601a      	str	r2, [r3, #0]
    }
  }
#endif /* USE_SPI_CRC */

  /* Configure : NSS management, TI Mode, NSS Pulse, Data size and Rx Fifo threshold */
  WRITE_REG(hspi->Instance->CR2, (((hspi->Init.NSS >> 16U) & SPI_CR2_SSOE) |
 8004f1a:	687b      	ldr	r3, [r7, #4]
 8004f1c:	699b      	ldr	r3, [r3, #24]
 8004f1e:	0c1b      	lsrs	r3, r3, #16
 8004f20:	f003 0204 	and.w	r2, r3, #4
 8004f24:	687b      	ldr	r3, [r7, #4]
 8004f26:	6a5b      	ldr	r3, [r3, #36]	; 0x24
 8004f28:	f003 0310 	and.w	r3, r3, #16
 8004f2c:	431a      	orrs	r2, r3
 8004f2e:	687b      	ldr	r3, [r7, #4]
 8004f30:	6b5b      	ldr	r3, [r3, #52]	; 0x34
 8004f32:	f003 0308 	and.w	r3, r3, #8
 8004f36:	431a      	orrs	r2, r3
 8004f38:	687b      	ldr	r3, [r7, #4]
 8004f3a:	68db      	ldr	r3, [r3, #12]
 8004f3c:	f403 6370 	and.w	r3, r3, #3840	; 0xf00
 8004f40:	ea42 0103 	orr.w	r1, r2, r3
 8004f44:	68fb      	ldr	r3, [r7, #12]
 8004f46:	f403 5280 	and.w	r2, r3, #4096	; 0x1000
 8004f4a:	687b      	ldr	r3, [r7, #4]
 8004f4c:	681b      	ldr	r3, [r3, #0]
 8004f4e:	430a      	orrs	r2, r1
 8004f50:	605a      	str	r2, [r3, #4]
  }
#endif /* USE_SPI_CRC */

#if defined(SPI_I2SCFGR_I2SMOD)
  /* Activate the SPI mode (Make sure that I2SMOD bit in I2SCFGR register is reset) */
  CLEAR_BIT(hspi->Instance->I2SCFGR, SPI_I2SCFGR_I2SMOD);
 8004f52:	687b      	ldr	r3, [r7, #4]
 8004f54:	681b      	ldr	r3, [r3, #0]
 8004f56:	69da      	ldr	r2, [r3, #28]
 8004f58:	687b      	ldr	r3, [r7, #4]
 8004f5a:	681b      	ldr	r3, [r3, #0]
 8004f5c:	f422 6200 	bic.w	r2, r2, #2048	; 0x800
 8004f60:	61da      	str	r2, [r3, #28]
#endif /* SPI_I2SCFGR_I2SMOD */

  hspi->ErrorCode = HAL_SPI_ERROR_NONE;
 8004f62:	687b      	ldr	r3, [r7, #4]
 8004f64:	2200      	movs	r2, #0
 8004f66:	661a      	str	r2, [r3, #96]	; 0x60
  hspi->State     = HAL_SPI_STATE_READY;
 8004f68:	687b      	ldr	r3, [r7, #4]
 8004f6a:	2201      	movs	r2, #1
 8004f6c:	f883 205d 	strb.w	r2, [r3, #93]	; 0x5d

  return HAL_OK;
 8004f70:	2300      	movs	r3, #0
}
 8004f72:	4618      	mov	r0, r3
 8004f74:	3710      	adds	r7, #16
 8004f76:	46bd      	mov	sp, r7
 8004f78:	bd80      	pop	{r7, pc}
	...

08004f7c <HAL_SPI_TransmitReceive_IT>:
  * @param  pRxData pointer to reception data buffer
  * @param  Size amount of data to be sent and received
  * @retval HAL status
  */
HAL_StatusTypeDef HAL_SPI_TransmitReceive_IT(SPI_HandleTypeDef *hspi, uint8_t *pTxData, uint8_t *pRxData, uint16_t Size)
{
 8004f7c:	b480      	push	{r7}
 8004f7e:	b087      	sub	sp, #28
 8004f80:	af00      	add	r7, sp, #0
 8004f82:	60f8      	str	r0, [r7, #12]
 8004f84:	60b9      	str	r1, [r7, #8]
 8004f86:	607a      	str	r2, [r7, #4]
 8004f88:	807b      	strh	r3, [r7, #2]
  uint32_t             tmp_mode;
  HAL_SPI_StateTypeDef tmp_state;
  HAL_StatusTypeDef    errorcode = HAL_OK;
 8004f8a:	2300      	movs	r3, #0
 8004f8c:	75fb      	strb	r3, [r7, #23]

  /* Check Direction parameter */
  assert_param(IS_SPI_DIRECTION_2LINES(hspi->Init.Direction));

  /* Init temporary variables */
  tmp_state           = hspi->State;
 8004f8e:	68fb      	ldr	r3, [r7, #12]
 8004f90:	f893 305d 	ldrb.w	r3, [r3, #93]	; 0x5d
 8004f94:	75bb      	strb	r3, [r7, #22]
  tmp_mode            = hspi->Init.Mode;
 8004f96:	68fb      	ldr	r3, [r7, #12]
 8004f98:	685b      	ldr	r3, [r3, #4]
 8004f9a:	613b      	str	r3, [r7, #16]

  if (!((tmp_state == HAL_SPI_STATE_READY) || \
 8004f9c:	7dbb      	ldrb	r3, [r7, #22]
 8004f9e:	2b01      	cmp	r3, #1
 8004fa0:	d00d      	beq.n	8004fbe <HAL_SPI_TransmitReceive_IT+0x42>
 8004fa2:	693b      	ldr	r3, [r7, #16]
 8004fa4:	f5b3 7f82 	cmp.w	r3, #260	; 0x104
 8004fa8:	d106      	bne.n	8004fb8 <HAL_SPI_TransmitReceive_IT+0x3c>
        ((tmp_mode == SPI_MODE_MASTER) && (hspi->Init.Direction == SPI_DIRECTION_2LINES) && (tmp_state == HAL_SPI_STATE_BUSY_RX))))
 8004faa:	68fb      	ldr	r3, [r7, #12]
 8004fac:	689b      	ldr	r3, [r3, #8]
 8004fae:	2b00      	cmp	r3, #0
 8004fb0:	d102      	bne.n	8004fb8 <HAL_SPI_TransmitReceive_IT+0x3c>
 8004fb2:	7dbb      	ldrb	r3, [r7, #22]
 8004fb4:	2b04      	cmp	r3, #4
 8004fb6:	d002      	beq.n	8004fbe <HAL_SPI_TransmitReceive_IT+0x42>
  {
    errorcode = HAL_BUSY;
 8004fb8:	2302      	movs	r3, #2
 8004fba:	75fb      	strb	r3, [r7, #23]
    goto error;
 8004fbc:	e07d      	b.n	80050ba <HAL_SPI_TransmitReceive_IT+0x13e>
  }

  if ((pTxData == NULL) || (pRxData == NULL) || (Size == 0U))
 8004fbe:	68bb      	ldr	r3, [r7, #8]
 8004fc0:	2b00      	cmp	r3, #0
 8004fc2:	d005      	beq.n	8004fd0 <HAL_SPI_TransmitReceive_IT+0x54>
 8004fc4:	687b      	ldr	r3, [r7, #4]
 8004fc6:	2b00      	cmp	r3, #0
 8004fc8:	d002      	beq.n	8004fd0 <HAL_SPI_TransmitReceive_IT+0x54>
 8004fca:	887b      	ldrh	r3, [r7, #2]
 8004fcc:	2b00      	cmp	r3, #0
 8004fce:	d102      	bne.n	8004fd6 <HAL_SPI_TransmitReceive_IT+0x5a>
  {
    errorcode = HAL_ERROR;
 8004fd0:	2301      	movs	r3, #1
 8004fd2:	75fb      	strb	r3, [r7, #23]
    goto error;
 8004fd4:	e071      	b.n	80050ba <HAL_SPI_TransmitReceive_IT+0x13e>
  }

  /* Process locked */
  __HAL_LOCK(hspi);
 8004fd6:	68fb      	ldr	r3, [r7, #12]
 8004fd8:	f893 305c 	ldrb.w	r3, [r3, #92]	; 0x5c
 8004fdc:	2b01      	cmp	r3, #1
 8004fde:	d101      	bne.n	8004fe4 <HAL_SPI_TransmitReceive_IT+0x68>
 8004fe0:	2302      	movs	r3, #2
 8004fe2:	e06b      	b.n	80050bc <HAL_SPI_TransmitReceive_IT+0x140>
 8004fe4:	68fb      	ldr	r3, [r7, #12]
 8004fe6:	2201      	movs	r2, #1
 8004fe8:	f883 205c 	strb.w	r2, [r3, #92]	; 0x5c

  /* Don't overwrite in case of HAL_SPI_STATE_BUSY_RX */
  if (hspi->State != HAL_SPI_STATE_BUSY_RX)
 8004fec:	68fb      	ldr	r3, [r7, #12]
 8004fee:	f893 305d 	ldrb.w	r3, [r3, #93]	; 0x5d
 8004ff2:	b2db      	uxtb	r3, r3
 8004ff4:	2b04      	cmp	r3, #4
 8004ff6:	d003      	beq.n	8005000 <HAL_SPI_TransmitReceive_IT+0x84>
  {
    hspi->State = HAL_SPI_STATE_BUSY_TX_RX;
 8004ff8:	68fb      	ldr	r3, [r7, #12]
 8004ffa:	2205      	movs	r2, #5
 8004ffc:	f883 205d 	strb.w	r2, [r3, #93]	; 0x5d
  }

  /* Set the transaction information */
  hspi->ErrorCode   = HAL_SPI_ERROR_NONE;
 8005000:	68fb      	ldr	r3, [r7, #12]
 8005002:	2200      	movs	r2, #0
 8005004:	661a      	str	r2, [r3, #96]	; 0x60
  hspi->pTxBuffPtr  = (uint8_t *)pTxData;
 8005006:	68fb      	ldr	r3, [r7, #12]
 8005008:	68ba      	ldr	r2, [r7, #8]
 800500a:	639a      	str	r2, [r3, #56]	; 0x38
  hspi->TxXferSize  = Size;
 800500c:	68fb      	ldr	r3, [r7, #12]
 800500e:	887a      	ldrh	r2, [r7, #2]
 8005010:	879a      	strh	r2, [r3, #60]	; 0x3c
  hspi->TxXferCount = Size;
 8005012:	68fb      	ldr	r3, [r7, #12]
 8005014:	887a      	ldrh	r2, [r7, #2]
 8005016:	87da      	strh	r2, [r3, #62]	; 0x3e
  hspi->pRxBuffPtr  = (uint8_t *)pRxData;
 8005018:	68fb      	ldr	r3, [r7, #12]
 800501a:	687a      	ldr	r2, [r7, #4]
 800501c:	641a      	str	r2, [r3, #64]	; 0x40
  hspi->RxXferSize  = Size;
 800501e:	68fb      	ldr	r3, [r7, #12]
 8005020:	887a      	ldrh	r2, [r7, #2]
 8005022:	f8a3 2044 	strh.w	r2, [r3, #68]	; 0x44
  hspi->RxXferCount = Size;
 8005026:	68fb      	ldr	r3, [r7, #12]
 8005028:	887a      	ldrh	r2, [r7, #2]
 800502a:	f8a3 2046 	strh.w	r2, [r3, #70]	; 0x46

  /* Set the function for IT treatment */
  if (hspi->Init.DataSize > SPI_DATASIZE_8BIT)
 800502e:	68fb      	ldr	r3, [r7, #12]
 8005030:	68db      	ldr	r3, [r3, #12]
 8005032:	f5b3 6fe0 	cmp.w	r3, #1792	; 0x700
 8005036:	d906      	bls.n	8005046 <HAL_SPI_TransmitReceive_IT+0xca>
  {
    hspi->RxISR     = SPI_2linesRxISR_16BIT;
 8005038:	68fb      	ldr	r3, [r7, #12]
 800503a:	4a23      	ldr	r2, [pc, #140]	; (80050c8 <HAL_SPI_TransmitReceive_IT+0x14c>)
 800503c:	64da      	str	r2, [r3, #76]	; 0x4c
    hspi->TxISR     = SPI_2linesTxISR_16BIT;
 800503e:	68fb      	ldr	r3, [r7, #12]
 8005040:	4a22      	ldr	r2, [pc, #136]	; (80050cc <HAL_SPI_TransmitReceive_IT+0x150>)
 8005042:	651a      	str	r2, [r3, #80]	; 0x50
 8005044:	e005      	b.n	8005052 <HAL_SPI_TransmitReceive_IT+0xd6>
  }
  else
  {
    hspi->RxISR     = SPI_2linesRxISR_8BIT;
 8005046:	68fb      	ldr	r3, [r7, #12]
 8005048:	4a21      	ldr	r2, [pc, #132]	; (80050d0 <HAL_SPI_TransmitReceive_IT+0x154>)
 800504a:	64da      	str	r2, [r3, #76]	; 0x4c
    hspi->TxISR     = SPI_2linesTxISR_8BIT;
 800504c:	68fb      	ldr	r3, [r7, #12]
 800504e:	4a21      	ldr	r2, [pc, #132]	; (80050d4 <HAL_SPI_TransmitReceive_IT+0x158>)
 8005050:	651a      	str	r2, [r3, #80]	; 0x50
    hspi->CRCSize = 0U;
  }
#endif /* USE_SPI_CRC */

  /* Check if packing mode is enabled and if there is more than 2 data to receive */
  if ((hspi->Init.DataSize > SPI_DATASIZE_8BIT) || (Size >= 2U))
 8005052:	68fb      	ldr	r3, [r7, #12]
 8005054:	68db      	ldr	r3, [r3, #12]
 8005056:	f5b3 6fe0 	cmp.w	r3, #1792	; 0x700
 800505a:	d802      	bhi.n	8005062 <HAL_SPI_TransmitReceive_IT+0xe6>
 800505c:	887b      	ldrh	r3, [r7, #2]
 800505e:	2b01      	cmp	r3, #1
 8005060:	d908      	bls.n	8005074 <HAL_SPI_TransmitReceive_IT+0xf8>
  {
    /* Set RX Fifo threshold according the reception data length: 16 bit */
    CLEAR_BIT(hspi->Instance->CR2, SPI_RXFIFO_THRESHOLD);
 8005062:	68fb      	ldr	r3, [r7, #12]
 8005064:	681b      	ldr	r3, [r3, #0]
 8005066:	685a      	ldr	r2, [r3, #4]
 8005068:	68fb      	ldr	r3, [r7, #12]
 800506a:	681b      	ldr	r3, [r3, #0]
 800506c:	f422 5280 	bic.w	r2, r2, #4096	; 0x1000
 8005070:	605a      	str	r2, [r3, #4]
 8005072:	e007      	b.n	8005084 <HAL_SPI_TransmitReceive_IT+0x108>
  }
  else
  {
    /* Set RX Fifo threshold according the reception data length: 8 bit */
    SET_BIT(hspi->Instance->CR2, SPI_RXFIFO_THRESHOLD);
 8005074:	68fb      	ldr	r3, [r7, #12]
 8005076:	681b      	ldr	r3, [r3, #0]
 8005078:	685a      	ldr	r2, [r3, #4]
 800507a:	68fb      	ldr	r3, [r7, #12]
 800507c:	681b      	ldr	r3, [r3, #0]
 800507e:	f442 5280 	orr.w	r2, r2, #4096	; 0x1000
 8005082:	605a      	str	r2, [r3, #4]
  }


  /* Check if the SPI is already enabled */
  if ((hspi->Instance->CR1 & SPI_CR1_SPE) != SPI_CR1_SPE)
 8005084:	68fb      	ldr	r3, [r7, #12]
 8005086:	681b      	ldr	r3, [r3, #0]
 8005088:	681b      	ldr	r3, [r3, #0]
 800508a:	f003 0340 	and.w	r3, r3, #64	; 0x40
 800508e:	2b40      	cmp	r3, #64	; 0x40
 8005090:	d007      	beq.n	80050a2 <HAL_SPI_TransmitReceive_IT+0x126>
  {
    /* Enable SPI peripheral */
    __HAL_SPI_ENABLE(hspi);
 8005092:	68fb      	ldr	r3, [r7, #12]
 8005094:	681b      	ldr	r3, [r3, #0]
 8005096:	681a      	ldr	r2, [r3, #0]
 8005098:	68fb      	ldr	r3, [r7, #12]
 800509a:	681b      	ldr	r3, [r3, #0]
 800509c:	f042 0240 	orr.w	r2, r2, #64	; 0x40
 80050a0:	601a      	str	r2, [r3, #0]
  }

  /* Process Unlocked */
  __HAL_UNLOCK(hspi);
 80050a2:	68fb      	ldr	r3, [r7, #12]
 80050a4:	2200      	movs	r2, #0
 80050a6:	f883 205c 	strb.w	r2, [r3, #92]	; 0x5c
  /* Enable TXE, RXNE and ERR interrupt */
  __HAL_SPI_ENABLE_IT(hspi, (SPI_IT_TXE | SPI_IT_RXNE | SPI_IT_ERR));
 80050aa:	68fb      	ldr	r3, [r7, #12]
 80050ac:	681b      	ldr	r3, [r3, #0]
 80050ae:	685a      	ldr	r2, [r3, #4]
 80050b0:	68fb      	ldr	r3, [r7, #12]
 80050b2:	681b      	ldr	r3, [r3, #0]
 80050b4:	f042 02e0 	orr.w	r2, r2, #224	; 0xe0
 80050b8:	605a      	str	r2, [r3, #4]

error :
  return errorcode;
 80050ba:	7dfb      	ldrb	r3, [r7, #23]
}
 80050bc:	4618      	mov	r0, r3
 80050be:	371c      	adds	r7, #28
 80050c0:	46bd      	mov	sp, r7
 80050c2:	f85d 7b04 	ldr.w	r7, [sp], #4
 80050c6:	4770      	bx	lr
 80050c8:	08005463 	.word	0x08005463
 80050cc:	080054c9 	.word	0x080054c9
 80050d0:	08005313 	.word	0x08005313
 80050d4:	080053d1 	.word	0x080053d1

080050d8 <HAL_SPI_IRQHandler>:
  * @param  hspi pointer to a SPI_HandleTypeDef structure that contains
  *               the configuration information for the specified SPI module.
  * @retval None
  */
void HAL_SPI_IRQHandler(SPI_HandleTypeDef *hspi)
{
 80050d8:	b580      	push	{r7, lr}
 80050da:	b088      	sub	sp, #32
 80050dc:	af00      	add	r7, sp, #0
 80050de:	6078      	str	r0, [r7, #4]
  uint32_t itsource = hspi->Instance->CR2;
 80050e0:	687b      	ldr	r3, [r7, #4]
 80050e2:	681b      	ldr	r3, [r3, #0]
 80050e4:	685b      	ldr	r3, [r3, #4]
 80050e6:	61fb      	str	r3, [r7, #28]
  uint32_t itflag   = hspi->Instance->SR;
 80050e8:	687b      	ldr	r3, [r7, #4]
 80050ea:	681b      	ldr	r3, [r3, #0]
 80050ec:	689b      	ldr	r3, [r3, #8]
 80050ee:	61bb      	str	r3, [r7, #24]

  /* SPI in mode Receiver ----------------------------------------------------*/
  if ((SPI_CHECK_FLAG(itflag, SPI_FLAG_OVR) == RESET) &&
 80050f0:	69bb      	ldr	r3, [r7, #24]
 80050f2:	f003 0340 	and.w	r3, r3, #64	; 0x40
 80050f6:	2b00      	cmp	r3, #0
 80050f8:	d10e      	bne.n	8005118 <HAL_SPI_IRQHandler+0x40>
      (SPI_CHECK_FLAG(itflag, SPI_FLAG_RXNE) != RESET) && (SPI_CHECK_IT_SOURCE(itsource, SPI_IT_RXNE) != RESET))
 80050fa:	69bb      	ldr	r3, [r7, #24]
 80050fc:	f003 0301 	and.w	r3, r3, #1
  if ((SPI_CHECK_FLAG(itflag, SPI_FLAG_OVR) == RESET) &&
 8005100:	2b00      	cmp	r3, #0
 8005102:	d009      	beq.n	8005118 <HAL_SPI_IRQHandler+0x40>
      (SPI_CHECK_FLAG(itflag, SPI_FLAG_RXNE) != RESET) && (SPI_CHECK_IT_SOURCE(itsource, SPI_IT_RXNE) != RESET))
 8005104:	69fb      	ldr	r3, [r7, #28]
 8005106:	f003 0340 	and.w	r3, r3, #64	; 0x40
 800510a:	2b00      	cmp	r3, #0
 800510c:	d004      	beq.n	8005118 <HAL_SPI_IRQHandler+0x40>
  {
    hspi->RxISR(hspi);
 800510e:	687b      	ldr	r3, [r7, #4]
 8005110:	6cdb      	ldr	r3, [r3, #76]	; 0x4c
 8005112:	6878      	ldr	r0, [r7, #4]
 8005114:	4798      	blx	r3
    return;
 8005116:	e0ce      	b.n	80052b6 <HAL_SPI_IRQHandler+0x1de>
  }

  /* SPI in mode Transmitter -------------------------------------------------*/
  if ((SPI_CHECK_FLAG(itflag, SPI_FLAG_TXE) != RESET) && (SPI_CHECK_IT_SOURCE(itsource, SPI_IT_TXE) != RESET))
 8005118:	69bb      	ldr	r3, [r7, #24]
 800511a:	f003 0302 	and.w	r3, r3, #2
 800511e:	2b00      	cmp	r3, #0
 8005120:	d009      	beq.n	8005136 <HAL_SPI_IRQHandler+0x5e>
 8005122:	69fb      	ldr	r3, [r7, #28]
 8005124:	f003 0380 	and.w	r3, r3, #128	; 0x80
 8005128:	2b00      	cmp	r3, #0
 800512a:	d004      	beq.n	8005136 <HAL_SPI_IRQHandler+0x5e>
  {
    hspi->TxISR(hspi);
 800512c:	687b      	ldr	r3, [r7, #4]
 800512e:	6d1b      	ldr	r3, [r3, #80]	; 0x50
 8005130:	6878      	ldr	r0, [r7, #4]
 8005132:	4798      	blx	r3
    return;
 8005134:	e0bf      	b.n	80052b6 <HAL_SPI_IRQHandler+0x1de>
  }

  /* SPI in Error Treatment --------------------------------------------------*/
  if (((SPI_CHECK_FLAG(itflag, SPI_FLAG_MODF) != RESET) || (SPI_CHECK_FLAG(itflag, SPI_FLAG_OVR) != RESET)
 8005136:	69bb      	ldr	r3, [r7, #24]
 8005138:	f003 0320 	and.w	r3, r3, #32
 800513c:	2b00      	cmp	r3, #0
 800513e:	d10a      	bne.n	8005156 <HAL_SPI_IRQHandler+0x7e>
 8005140:	69bb      	ldr	r3, [r7, #24]
 8005142:	f003 0340 	and.w	r3, r3, #64	; 0x40
 8005146:	2b00      	cmp	r3, #0
 8005148:	d105      	bne.n	8005156 <HAL_SPI_IRQHandler+0x7e>
       || (SPI_CHECK_FLAG(itflag, SPI_FLAG_FRE) != RESET)) && (SPI_CHECK_IT_SOURCE(itsource, SPI_IT_ERR) != RESET))
 800514a:	69bb      	ldr	r3, [r7, #24]
 800514c:	f403 7380 	and.w	r3, r3, #256	; 0x100
 8005150:	2b00      	cmp	r3, #0
 8005152:	f000 80b0 	beq.w	80052b6 <HAL_SPI_IRQHandler+0x1de>
 8005156:	69fb      	ldr	r3, [r7, #28]
 8005158:	f003 0320 	and.w	r3, r3, #32
 800515c:	2b00      	cmp	r3, #0
 800515e:	f000 80aa 	beq.w	80052b6 <HAL_SPI_IRQHandler+0x1de>
  {
    /* SPI Overrun error interrupt occurred ----------------------------------*/
    if (SPI_CHECK_FLAG(itflag, SPI_FLAG_OVR) != RESET)
 8005162:	69bb      	ldr	r3, [r7, #24]
 8005164:	f003 0340 	and.w	r3, r3, #64	; 0x40
 8005168:	2b00      	cmp	r3, #0
 800516a:	d023      	beq.n	80051b4 <HAL_SPI_IRQHandler+0xdc>
    {
      if (hspi->State != HAL_SPI_STATE_BUSY_TX)
 800516c:	687b      	ldr	r3, [r7, #4]
 800516e:	f893 305d 	ldrb.w	r3, [r3, #93]	; 0x5d
 8005172:	b2db      	uxtb	r3, r3
 8005174:	2b03      	cmp	r3, #3
 8005176:	d011      	beq.n	800519c <HAL_SPI_IRQHandler+0xc4>
      {
        SET_BIT(hspi->ErrorCode, HAL_SPI_ERROR_OVR);
 8005178:	687b      	ldr	r3, [r7, #4]
 800517a:	6e1b      	ldr	r3, [r3, #96]	; 0x60
 800517c:	f043 0204 	orr.w	r2, r3, #4
 8005180:	687b      	ldr	r3, [r7, #4]
 8005182:	661a      	str	r2, [r3, #96]	; 0x60
        __HAL_SPI_CLEAR_OVRFLAG(hspi);
 8005184:	2300      	movs	r3, #0
 8005186:	617b      	str	r3, [r7, #20]
 8005188:	687b      	ldr	r3, [r7, #4]
 800518a:	681b      	ldr	r3, [r3, #0]
 800518c:	68db      	ldr	r3, [r3, #12]
 800518e:	617b      	str	r3, [r7, #20]
 8005190:	687b      	ldr	r3, [r7, #4]
 8005192:	681b      	ldr	r3, [r3, #0]
 8005194:	689b      	ldr	r3, [r3, #8]
 8005196:	617b      	str	r3, [r7, #20]
 8005198:	697b      	ldr	r3, [r7, #20]
 800519a:	e00b      	b.n	80051b4 <HAL_SPI_IRQHandler+0xdc>
      }
      else
      {
        __HAL_SPI_CLEAR_OVRFLAG(hspi);
 800519c:	2300      	movs	r3, #0
 800519e:	613b      	str	r3, [r7, #16]
 80051a0:	687b      	ldr	r3, [r7, #4]
 80051a2:	681b      	ldr	r3, [r3, #0]
 80051a4:	68db      	ldr	r3, [r3, #12]
 80051a6:	613b      	str	r3, [r7, #16]
 80051a8:	687b      	ldr	r3, [r7, #4]
 80051aa:	681b      	ldr	r3, [r3, #0]
 80051ac:	689b      	ldr	r3, [r3, #8]
 80051ae:	613b      	str	r3, [r7, #16]
 80051b0:	693b      	ldr	r3, [r7, #16]
        return;
 80051b2:	e080      	b.n	80052b6 <HAL_SPI_IRQHandler+0x1de>
      }
    }

    /* SPI Mode Fault error interrupt occurred -------------------------------*/
    if (SPI_CHECK_FLAG(itflag, SPI_FLAG_MODF) != RESET)
 80051b4:	69bb      	ldr	r3, [r7, #24]
 80051b6:	f003 0320 	and.w	r3, r3, #32
 80051ba:	2b00      	cmp	r3, #0
 80051bc:	d014      	beq.n	80051e8 <HAL_SPI_IRQHandler+0x110>
    {
      SET_BIT(hspi->ErrorCode, HAL_SPI_ERROR_MODF);
 80051be:	687b      	ldr	r3, [r7, #4]
 80051c0:	6e1b      	ldr	r3, [r3, #96]	; 0x60
 80051c2:	f043 0201 	orr.w	r2, r3, #1
 80051c6:	687b      	ldr	r3, [r7, #4]
 80051c8:	661a      	str	r2, [r3, #96]	; 0x60
      __HAL_SPI_CLEAR_MODFFLAG(hspi);
 80051ca:	2300      	movs	r3, #0
 80051cc:	60fb      	str	r3, [r7, #12]
 80051ce:	687b      	ldr	r3, [r7, #4]
 80051d0:	681b      	ldr	r3, [r3, #0]
 80051d2:	689b      	ldr	r3, [r3, #8]
 80051d4:	60fb      	str	r3, [r7, #12]
 80051d6:	687b      	ldr	r3, [r7, #4]
 80051d8:	681b      	ldr	r3, [r3, #0]
 80051da:	681a      	ldr	r2, [r3, #0]
 80051dc:	687b      	ldr	r3, [r7, #4]
 80051de:	681b      	ldr	r3, [r3, #0]
 80051e0:	f022 0240 	bic.w	r2, r2, #64	; 0x40
 80051e4:	601a      	str	r2, [r3, #0]
 80051e6:	68fb      	ldr	r3, [r7, #12]
    }

    /* SPI Frame error interrupt occurred ------------------------------------*/
    if (SPI_CHECK_FLAG(itflag, SPI_FLAG_FRE) != RESET)
 80051e8:	69bb      	ldr	r3, [r7, #24]
 80051ea:	f403 7380 	and.w	r3, r3, #256	; 0x100
 80051ee:	2b00      	cmp	r3, #0
 80051f0:	d00c      	beq.n	800520c <HAL_SPI_IRQHandler+0x134>
    {
      SET_BIT(hspi->ErrorCode, HAL_SPI_ERROR_FRE);
 80051f2:	687b      	ldr	r3, [r7, #4]
 80051f4:	6e1b      	ldr	r3, [r3, #96]	; 0x60
 80051f6:	f043 0208 	orr.w	r2, r3, #8
 80051fa:	687b      	ldr	r3, [r7, #4]
 80051fc:	661a      	str	r2, [r3, #96]	; 0x60
      __HAL_SPI_CLEAR_FREFLAG(hspi);
 80051fe:	2300      	movs	r3, #0
 8005200:	60bb      	str	r3, [r7, #8]
 8005202:	687b      	ldr	r3, [r7, #4]
 8005204:	681b      	ldr	r3, [r3, #0]
 8005206:	689b      	ldr	r3, [r3, #8]
 8005208:	60bb      	str	r3, [r7, #8]
 800520a:	68bb      	ldr	r3, [r7, #8]
    }

    if (hspi->ErrorCode != HAL_SPI_ERROR_NONE)
 800520c:	687b      	ldr	r3, [r7, #4]
 800520e:	6e1b      	ldr	r3, [r3, #96]	; 0x60
 8005210:	2b00      	cmp	r3, #0
 8005212:	d04f      	beq.n	80052b4 <HAL_SPI_IRQHandler+0x1dc>
    {
      /* Disable all interrupts */
      __HAL_SPI_DISABLE_IT(hspi, SPI_IT_RXNE | SPI_IT_TXE | SPI_IT_ERR);
 8005214:	687b      	ldr	r3, [r7, #4]
 8005216:	681b      	ldr	r3, [r3, #0]
 8005218:	685a      	ldr	r2, [r3, #4]
 800521a:	687b      	ldr	r3, [r7, #4]
 800521c:	681b      	ldr	r3, [r3, #0]
 800521e:	f022 02e0 	bic.w	r2, r2, #224	; 0xe0
 8005222:	605a      	str	r2, [r3, #4]

      hspi->State = HAL_SPI_STATE_READY;
 8005224:	687b      	ldr	r3, [r7, #4]
 8005226:	2201      	movs	r2, #1
 8005228:	f883 205d 	strb.w	r2, [r3, #93]	; 0x5d
      /* Disable the SPI DMA requests if enabled */
      if ((HAL_IS_BIT_SET(itsource, SPI_CR2_TXDMAEN)) || (HAL_IS_BIT_SET(itsource, SPI_CR2_RXDMAEN)))
 800522c:	69fb      	ldr	r3, [r7, #28]
 800522e:	f003 0302 	and.w	r3, r3, #2
 8005232:	2b00      	cmp	r3, #0
 8005234:	d104      	bne.n	8005240 <HAL_SPI_IRQHandler+0x168>
 8005236:	69fb      	ldr	r3, [r7, #28]
 8005238:	f003 0301 	and.w	r3, r3, #1
 800523c:	2b00      	cmp	r3, #0
 800523e:	d034      	beq.n	80052aa <HAL_SPI_IRQHandler+0x1d2>
      {
        CLEAR_BIT(hspi->Instance->CR2, (SPI_CR2_TXDMAEN | SPI_CR2_RXDMAEN));
 8005240:	687b      	ldr	r3, [r7, #4]
 8005242:	681b      	ldr	r3, [r3, #0]
 8005244:	685a      	ldr	r2, [r3, #4]
 8005246:	687b      	ldr	r3, [r7, #4]
 8005248:	681b      	ldr	r3, [r3, #0]
 800524a:	f022 0203 	bic.w	r2, r2, #3
 800524e:	605a      	str	r2, [r3, #4]

        /* Abort the SPI DMA Rx channel */
        if (hspi->hdmarx != NULL)
 8005250:	687b      	ldr	r3, [r7, #4]
 8005252:	6d9b      	ldr	r3, [r3, #88]	; 0x58
 8005254:	2b00      	cmp	r3, #0
 8005256:	d011      	beq.n	800527c <HAL_SPI_IRQHandler+0x1a4>
        {
          /* Set the SPI DMA Abort callback :
          will lead to call HAL_SPI_ErrorCallback() at end of DMA abort procedure */
          hspi->hdmarx->XferAbortCallback = SPI_DMAAbortOnError;
 8005258:	687b      	ldr	r3, [r7, #4]
 800525a:	6d9b      	ldr	r3, [r3, #88]	; 0x58
 800525c:	4a17      	ldr	r2, [pc, #92]	; (80052bc <HAL_SPI_IRQHandler+0x1e4>)
 800525e:	639a      	str	r2, [r3, #56]	; 0x38
          if (HAL_OK != HAL_DMA_Abort_IT(hspi->hdmarx))
 8005260:	687b      	ldr	r3, [r7, #4]
 8005262:	6d9b      	ldr	r3, [r3, #88]	; 0x58
 8005264:	4618      	mov	r0, r3
 8005266:	f7fc fc1f 	bl	8001aa8 <HAL_DMA_Abort_IT>
 800526a:	4603      	mov	r3, r0
 800526c:	2b00      	cmp	r3, #0
 800526e:	d005      	beq.n	800527c <HAL_SPI_IRQHandler+0x1a4>
          {
            SET_BIT(hspi->ErrorCode, HAL_SPI_ERROR_ABORT);
 8005270:	687b      	ldr	r3, [r7, #4]
 8005272:	6e1b      	ldr	r3, [r3, #96]	; 0x60
 8005274:	f043 0240 	orr.w	r2, r3, #64	; 0x40
 8005278:	687b      	ldr	r3, [r7, #4]
 800527a:	661a      	str	r2, [r3, #96]	; 0x60
          }
        }
        /* Abort the SPI DMA Tx channel */
        if (hspi->hdmatx != NULL)
 800527c:	687b      	ldr	r3, [r7, #4]
 800527e:	6d5b      	ldr	r3, [r3, #84]	; 0x54
 8005280:	2b00      	cmp	r3, #0
 8005282:	d016      	beq.n	80052b2 <HAL_SPI_IRQHandler+0x1da>
        {
          /* Set the SPI DMA Abort callback :
          will lead to call HAL_SPI_ErrorCallback() at end of DMA abort procedure */
          hspi->hdmatx->XferAbortCallback = SPI_DMAAbortOnError;
 8005284:	687b      	ldr	r3, [r7, #4]
 8005286:	6d5b      	ldr	r3, [r3, #84]	; 0x54
 8005288:	4a0c      	ldr	r2, [pc, #48]	; (80052bc <HAL_SPI_IRQHandler+0x1e4>)
 800528a:	639a      	str	r2, [r3, #56]	; 0x38
          if (HAL_OK != HAL_DMA_Abort_IT(hspi->hdmatx))
 800528c:	687b      	ldr	r3, [r7, #4]
 800528e:	6d5b      	ldr	r3, [r3, #84]	; 0x54
 8005290:	4618      	mov	r0, r3
 8005292:	f7fc fc09 	bl	8001aa8 <HAL_DMA_Abort_IT>
 8005296:	4603      	mov	r3, r0
 8005298:	2b00      	cmp	r3, #0
 800529a:	d00a      	beq.n	80052b2 <HAL_SPI_IRQHandler+0x1da>
          {
            SET_BIT(hspi->ErrorCode, HAL_SPI_ERROR_ABORT);
 800529c:	687b      	ldr	r3, [r7, #4]
 800529e:	6e1b      	ldr	r3, [r3, #96]	; 0x60
 80052a0:	f043 0240 	orr.w	r2, r3, #64	; 0x40
 80052a4:	687b      	ldr	r3, [r7, #4]
 80052a6:	661a      	str	r2, [r3, #96]	; 0x60
        if (hspi->hdmatx != NULL)
 80052a8:	e003      	b.n	80052b2 <HAL_SPI_IRQHandler+0x1da>
      {
        /* Call user error callback */
#if (USE_HAL_SPI_REGISTER_CALLBACKS == 1U)
        hspi->ErrorCallback(hspi);
#else
        HAL_SPI_ErrorCallback(hspi);
 80052aa:	6878      	ldr	r0, [r7, #4]
 80052ac:	f000 f812 	bl	80052d4 <HAL_SPI_ErrorCallback>
#endif /* USE_HAL_SPI_REGISTER_CALLBACKS */
      }
    }
    return;
 80052b0:	e000      	b.n	80052b4 <HAL_SPI_IRQHandler+0x1dc>
        if (hspi->hdmatx != NULL)
 80052b2:	bf00      	nop
    return;
 80052b4:	bf00      	nop
  }
}
 80052b6:	3720      	adds	r7, #32
 80052b8:	46bd      	mov	sp, r7
 80052ba:	bd80      	pop	{r7, pc}
 80052bc:	080052e9 	.word	0x080052e9

080052c0 <HAL_SPI_RxCpltCallback>:
  * @param  hspi pointer to a SPI_HandleTypeDef structure that contains
  *               the configuration information for SPI module.
  * @retval None
  */
__weak void HAL_SPI_RxCpltCallback(SPI_HandleTypeDef *hspi)
{
 80052c0:	b480      	push	{r7}
 80052c2:	b083      	sub	sp, #12
 80052c4:	af00      	add	r7, sp, #0
 80052c6:	6078      	str	r0, [r7, #4]
  UNUSED(hspi);

  /* NOTE : This function should not be modified, when the callback is needed,
            the HAL_SPI_RxCpltCallback should be implemented in the user file
   */
}
 80052c8:	bf00      	nop
 80052ca:	370c      	adds	r7, #12
 80052cc:	46bd      	mov	sp, r7
 80052ce:	f85d 7b04 	ldr.w	r7, [sp], #4
 80052d2:	4770      	bx	lr

080052d4 <HAL_SPI_ErrorCallback>:
  * @param  hspi pointer to a SPI_HandleTypeDef structure that contains
  *               the configuration information for SPI module.
  * @retval None
  */
__weak void HAL_SPI_ErrorCallback(SPI_HandleTypeDef *hspi)
{
 80052d4:	b480      	push	{r7}
 80052d6:	b083      	sub	sp, #12
 80052d8:	af00      	add	r7, sp, #0
 80052da:	6078      	str	r0, [r7, #4]
            the HAL_SPI_ErrorCallback should be implemented in the user file
   */
  /* NOTE : The ErrorCode parameter in the hspi handle is updated by the SPI processes
            and user can use HAL_SPI_GetError() API to check the latest error occurred
   */
}
 80052dc:	bf00      	nop
 80052de:	370c      	adds	r7, #12
 80052e0:	46bd      	mov	sp, r7
 80052e2:	f85d 7b04 	ldr.w	r7, [sp], #4
 80052e6:	4770      	bx	lr

080052e8 <SPI_DMAAbortOnError>:
  *         (To be called at end of DMA Abort procedure following error occurrence).
  * @param  hdma DMA handle.
  * @retval None
  */
static void SPI_DMAAbortOnError(DMA_HandleTypeDef *hdma)
{
 80052e8:	b580      	push	{r7, lr}
 80052ea:	b084      	sub	sp, #16
 80052ec:	af00      	add	r7, sp, #0
 80052ee:	6078      	str	r0, [r7, #4]
  SPI_HandleTypeDef *hspi = (SPI_HandleTypeDef *)(((DMA_HandleTypeDef *)hdma)->Parent); /* Derogation MISRAC2012-Rule-11.5 */
 80052f0:	687b      	ldr	r3, [r7, #4]
 80052f2:	6a9b      	ldr	r3, [r3, #40]	; 0x28
 80052f4:	60fb      	str	r3, [r7, #12]
  hspi->RxXferCount = 0U;
 80052f6:	68fb      	ldr	r3, [r7, #12]
 80052f8:	2200      	movs	r2, #0
 80052fa:	f8a3 2046 	strh.w	r2, [r3, #70]	; 0x46
  hspi->TxXferCount = 0U;
 80052fe:	68fb      	ldr	r3, [r7, #12]
 8005300:	2200      	movs	r2, #0
 8005302:	87da      	strh	r2, [r3, #62]	; 0x3e

  /* Call user error callback */
#if (USE_HAL_SPI_REGISTER_CALLBACKS == 1U)
  hspi->ErrorCallback(hspi);
#else
  HAL_SPI_ErrorCallback(hspi);
 8005304:	68f8      	ldr	r0, [r7, #12]
 8005306:	f7ff ffe5 	bl	80052d4 <HAL_SPI_ErrorCallback>
#endif /* USE_HAL_SPI_REGISTER_CALLBACKS */
}
 800530a:	bf00      	nop
 800530c:	3710      	adds	r7, #16
 800530e:	46bd      	mov	sp, r7
 8005310:	bd80      	pop	{r7, pc}

08005312 <SPI_2linesRxISR_8BIT>:
  * @param  hspi pointer to a SPI_HandleTypeDef structure that contains
  *               the configuration information for SPI module.
  * @retval None
  */
static void SPI_2linesRxISR_8BIT(struct __SPI_HandleTypeDef *hspi)
{
 8005312:	b580      	push	{r7, lr}
 8005314:	b082      	sub	sp, #8
 8005316:	af00      	add	r7, sp, #0
 8005318:	6078      	str	r0, [r7, #4]
  /* Receive data in packing mode */
  if (hspi->RxXferCount > 1U)
 800531a:	687b      	ldr	r3, [r7, #4]
 800531c:	f8b3 3046 	ldrh.w	r3, [r3, #70]	; 0x46
 8005320:	b29b      	uxth	r3, r3
 8005322:	2b01      	cmp	r3, #1
 8005324:	d923      	bls.n	800536e <SPI_2linesRxISR_8BIT+0x5c>
  {
    *((uint16_t *)hspi->pRxBuffPtr) = (uint16_t)(hspi->Instance->DR);
 8005326:	687b      	ldr	r3, [r7, #4]
 8005328:	681b      	ldr	r3, [r3, #0]
 800532a:	68da      	ldr	r2, [r3, #12]
 800532c:	687b      	ldr	r3, [r7, #4]
 800532e:	6c1b      	ldr	r3, [r3, #64]	; 0x40
 8005330:	b292      	uxth	r2, r2
 8005332:	801a      	strh	r2, [r3, #0]
    hspi->pRxBuffPtr += sizeof(uint16_t);
 8005334:	687b      	ldr	r3, [r7, #4]
 8005336:	6c1b      	ldr	r3, [r3, #64]	; 0x40
 8005338:	1c9a      	adds	r2, r3, #2
 800533a:	687b      	ldr	r3, [r7, #4]
 800533c:	641a      	str	r2, [r3, #64]	; 0x40
    hspi->RxXferCount -= 2U;
 800533e:	687b      	ldr	r3, [r7, #4]
 8005340:	f8b3 3046 	ldrh.w	r3, [r3, #70]	; 0x46
 8005344:	b29b      	uxth	r3, r3
 8005346:	3b02      	subs	r3, #2
 8005348:	b29a      	uxth	r2, r3
 800534a:	687b      	ldr	r3, [r7, #4]
 800534c:	f8a3 2046 	strh.w	r2, [r3, #70]	; 0x46
    if (hspi->RxXferCount == 1U)
 8005350:	687b      	ldr	r3, [r7, #4]
 8005352:	f8b3 3046 	ldrh.w	r3, [r3, #70]	; 0x46
 8005356:	b29b      	uxth	r3, r3
 8005358:	2b01      	cmp	r3, #1
 800535a:	d11f      	bne.n	800539c <SPI_2linesRxISR_8BIT+0x8a>
    {
      /* Set RX Fifo threshold according the reception data length: 8bit */
      SET_BIT(hspi->Instance->CR2, SPI_RXFIFO_THRESHOLD);
 800535c:	687b      	ldr	r3, [r7, #4]
 800535e:	681b      	ldr	r3, [r3, #0]
 8005360:	685a      	ldr	r2, [r3, #4]
 8005362:	687b      	ldr	r3, [r7, #4]
 8005364:	681b      	ldr	r3, [r3, #0]
 8005366:	f442 5280 	orr.w	r2, r2, #4096	; 0x1000
 800536a:	605a      	str	r2, [r3, #4]
 800536c:	e016      	b.n	800539c <SPI_2linesRxISR_8BIT+0x8a>
    }
  }
  /* Receive data in 8 Bit mode */
  else
  {
    *hspi->pRxBuffPtr = *((__IO uint8_t *)&hspi->Instance->DR);
 800536e:	687b      	ldr	r3, [r7, #4]
 8005370:	681b      	ldr	r3, [r3, #0]
 8005372:	f103 020c 	add.w	r2, r3, #12
 8005376:	687b      	ldr	r3, [r7, #4]
 8005378:	6c1b      	ldr	r3, [r3, #64]	; 0x40
 800537a:	7812      	ldrb	r2, [r2, #0]
 800537c:	b2d2      	uxtb	r2, r2
 800537e:	701a      	strb	r2, [r3, #0]
    hspi->pRxBuffPtr++;
 8005380:	687b      	ldr	r3, [r7, #4]
 8005382:	6c1b      	ldr	r3, [r3, #64]	; 0x40
 8005384:	1c5a      	adds	r2, r3, #1
 8005386:	687b      	ldr	r3, [r7, #4]
 8005388:	641a      	str	r2, [r3, #64]	; 0x40
    hspi->RxXferCount--;
 800538a:	687b      	ldr	r3, [r7, #4]
 800538c:	f8b3 3046 	ldrh.w	r3, [r3, #70]	; 0x46
 8005390:	b29b      	uxth	r3, r3
 8005392:	3b01      	subs	r3, #1
 8005394:	b29a      	uxth	r2, r3
 8005396:	687b      	ldr	r3, [r7, #4]
 8005398:	f8a3 2046 	strh.w	r2, [r3, #70]	; 0x46
  }

  /* Check end of the reception */
  if (hspi->RxXferCount == 0U)
 800539c:	687b      	ldr	r3, [r7, #4]
 800539e:	f8b3 3046 	ldrh.w	r3, [r3, #70]	; 0x46
 80053a2:	b29b      	uxth	r3, r3
 80053a4:	2b00      	cmp	r3, #0
 80053a6:	d10f      	bne.n	80053c8 <SPI_2linesRxISR_8BIT+0xb6>
      return;
    }
#endif /* USE_SPI_CRC */

    /* Disable RXNE  and ERR interrupt */
    __HAL_SPI_DISABLE_IT(hspi, (SPI_IT_RXNE | SPI_IT_ERR));
 80053a8:	687b      	ldr	r3, [r7, #4]
 80053aa:	681b      	ldr	r3, [r3, #0]
 80053ac:	685a      	ldr	r2, [r3, #4]
 80053ae:	687b      	ldr	r3, [r7, #4]
 80053b0:	681b      	ldr	r3, [r3, #0]
 80053b2:	f022 0260 	bic.w	r2, r2, #96	; 0x60
 80053b6:	605a      	str	r2, [r3, #4]

    if (hspi->TxXferCount == 0U)
 80053b8:	687b      	ldr	r3, [r7, #4]
 80053ba:	8fdb      	ldrh	r3, [r3, #62]	; 0x3e
 80053bc:	b29b      	uxth	r3, r3
 80053be:	2b00      	cmp	r3, #0
 80053c0:	d102      	bne.n	80053c8 <SPI_2linesRxISR_8BIT+0xb6>
    {
      SPI_CloseRxTx_ISR(hspi);
 80053c2:	6878      	ldr	r0, [r7, #4]
 80053c4:	f000 fa14 	bl	80057f0 <SPI_CloseRxTx_ISR>
    }
  }
}
 80053c8:	bf00      	nop
 80053ca:	3708      	adds	r7, #8
 80053cc:	46bd      	mov	sp, r7
 80053ce:	bd80      	pop	{r7, pc}

080053d0 <SPI_2linesTxISR_8BIT>:
  * @param  hspi pointer to a SPI_HandleTypeDef structure that contains
  *               the configuration information for SPI module.
  * @retval None
  */
static void SPI_2linesTxISR_8BIT(struct __SPI_HandleTypeDef *hspi)
{
 80053d0:	b580      	push	{r7, lr}
 80053d2:	b082      	sub	sp, #8
 80053d4:	af00      	add	r7, sp, #0
 80053d6:	6078      	str	r0, [r7, #4]
  /* Transmit data in packing Bit mode */
  if (hspi->TxXferCount >= 2U)
 80053d8:	687b      	ldr	r3, [r7, #4]
 80053da:	8fdb      	ldrh	r3, [r3, #62]	; 0x3e
 80053dc:	b29b      	uxth	r3, r3
 80053de:	2b01      	cmp	r3, #1
 80053e0:	d912      	bls.n	8005408 <SPI_2linesTxISR_8BIT+0x38>
  {
    hspi->Instance->DR = *((uint16_t *)hspi->pTxBuffPtr);
 80053e2:	687b      	ldr	r3, [r7, #4]
 80053e4:	6b9b      	ldr	r3, [r3, #56]	; 0x38
 80053e6:	881a      	ldrh	r2, [r3, #0]
 80053e8:	687b      	ldr	r3, [r7, #4]
 80053ea:	681b      	ldr	r3, [r3, #0]
 80053ec:	60da      	str	r2, [r3, #12]
    hspi->pTxBuffPtr += sizeof(uint16_t);
 80053ee:	687b      	ldr	r3, [r7, #4]
 80053f0:	6b9b      	ldr	r3, [r3, #56]	; 0x38
 80053f2:	1c9a      	adds	r2, r3, #2
 80053f4:	687b      	ldr	r3, [r7, #4]
 80053f6:	639a      	str	r2, [r3, #56]	; 0x38
    hspi->TxXferCount -= 2U;
 80053f8:	687b      	ldr	r3, [r7, #4]
 80053fa:	8fdb      	ldrh	r3, [r3, #62]	; 0x3e
 80053fc:	b29b      	uxth	r3, r3
 80053fe:	3b02      	subs	r3, #2
 8005400:	b29a      	uxth	r2, r3
 8005402:	687b      	ldr	r3, [r7, #4]
 8005404:	87da      	strh	r2, [r3, #62]	; 0x3e
 8005406:	e012      	b.n	800542e <SPI_2linesTxISR_8BIT+0x5e>
  }
  /* Transmit data in 8 Bit mode */
  else
  {
    *(__IO uint8_t *)&hspi->Instance->DR = (*hspi->pTxBuffPtr);
 8005408:	687b      	ldr	r3, [r7, #4]
 800540a:	6b9a      	ldr	r2, [r3, #56]	; 0x38
 800540c:	687b      	ldr	r3, [r7, #4]
 800540e:	681b      	ldr	r3, [r3, #0]
 8005410:	330c      	adds	r3, #12
 8005412:	7812      	ldrb	r2, [r2, #0]
 8005414:	701a      	strb	r2, [r3, #0]
    hspi->pTxBuffPtr++;
 8005416:	687b      	ldr	r3, [r7, #4]
 8005418:	6b9b      	ldr	r3, [r3, #56]	; 0x38
 800541a:	1c5a      	adds	r2, r3, #1
 800541c:	687b      	ldr	r3, [r7, #4]
 800541e:	639a      	str	r2, [r3, #56]	; 0x38
    hspi->TxXferCount--;
 8005420:	687b      	ldr	r3, [r7, #4]
 8005422:	8fdb      	ldrh	r3, [r3, #62]	; 0x3e
 8005424:	b29b      	uxth	r3, r3
 8005426:	3b01      	subs	r3, #1
 8005428:	b29a      	uxth	r2, r3
 800542a:	687b      	ldr	r3, [r7, #4]
 800542c:	87da      	strh	r2, [r3, #62]	; 0x3e
  }

  /* Check the end of the transmission */
  if (hspi->TxXferCount == 0U)
 800542e:	687b      	ldr	r3, [r7, #4]
 8005430:	8fdb      	ldrh	r3, [r3, #62]	; 0x3e
 8005432:	b29b      	uxth	r3, r3
 8005434:	2b00      	cmp	r3, #0
 8005436:	d110      	bne.n	800545a <SPI_2linesTxISR_8BIT+0x8a>
      return;
    }
#endif /* USE_SPI_CRC */

    /* Disable TXE interrupt */
    __HAL_SPI_DISABLE_IT(hspi, SPI_IT_TXE);
 8005438:	687b      	ldr	r3, [r7, #4]
 800543a:	681b      	ldr	r3, [r3, #0]
 800543c:	685a      	ldr	r2, [r3, #4]
 800543e:	687b      	ldr	r3, [r7, #4]
 8005440:	681b      	ldr	r3, [r3, #0]
 8005442:	f022 0280 	bic.w	r2, r2, #128	; 0x80
 8005446:	605a      	str	r2, [r3, #4]

    if (hspi->RxXferCount == 0U)
 8005448:	687b      	ldr	r3, [r7, #4]
 800544a:	f8b3 3046 	ldrh.w	r3, [r3, #70]	; 0x46
 800544e:	b29b      	uxth	r3, r3
 8005450:	2b00      	cmp	r3, #0
 8005452:	d102      	bne.n	800545a <SPI_2linesTxISR_8BIT+0x8a>
    {
      SPI_CloseRxTx_ISR(hspi);
 8005454:	6878      	ldr	r0, [r7, #4]
 8005456:	f000 f9cb 	bl	80057f0 <SPI_CloseRxTx_ISR>
    }
  }
}
 800545a:	bf00      	nop
 800545c:	3708      	adds	r7, #8
 800545e:	46bd      	mov	sp, r7
 8005460:	bd80      	pop	{r7, pc}

08005462 <SPI_2linesRxISR_16BIT>:
  * @param  hspi pointer to a SPI_HandleTypeDef structure that contains
  *               the configuration information for SPI module.
  * @retval None
  */
static void SPI_2linesRxISR_16BIT(struct __SPI_HandleTypeDef *hspi)
{
 8005462:	b580      	push	{r7, lr}
 8005464:	b082      	sub	sp, #8
 8005466:	af00      	add	r7, sp, #0
 8005468:	6078      	str	r0, [r7, #4]
  /* Receive data in 16 Bit mode */
  *((uint16_t *)hspi->pRxBuffPtr) = (uint16_t)(hspi->Instance->DR);
 800546a:	687b      	ldr	r3, [r7, #4]
 800546c:	681b      	ldr	r3, [r3, #0]
 800546e:	68da      	ldr	r2, [r3, #12]
 8005470:	687b      	ldr	r3, [r7, #4]
 8005472:	6c1b      	ldr	r3, [r3, #64]	; 0x40
 8005474:	b292      	uxth	r2, r2
 8005476:	801a      	strh	r2, [r3, #0]
  hspi->pRxBuffPtr += sizeof(uint16_t);
 8005478:	687b      	ldr	r3, [r7, #4]
 800547a:	6c1b      	ldr	r3, [r3, #64]	; 0x40
 800547c:	1c9a      	adds	r2, r3, #2
 800547e:	687b      	ldr	r3, [r7, #4]
 8005480:	641a      	str	r2, [r3, #64]	; 0x40
  hspi->RxXferCount--;
 8005482:	687b      	ldr	r3, [r7, #4]
 8005484:	f8b3 3046 	ldrh.w	r3, [r3, #70]	; 0x46
 8005488:	b29b      	uxth	r3, r3
 800548a:	3b01      	subs	r3, #1
 800548c:	b29a      	uxth	r2, r3
 800548e:	687b      	ldr	r3, [r7, #4]
 8005490:	f8a3 2046 	strh.w	r2, [r3, #70]	; 0x46

  if (hspi->RxXferCount == 0U)
 8005494:	687b      	ldr	r3, [r7, #4]
 8005496:	f8b3 3046 	ldrh.w	r3, [r3, #70]	; 0x46
 800549a:	b29b      	uxth	r3, r3
 800549c:	2b00      	cmp	r3, #0
 800549e:	d10f      	bne.n	80054c0 <SPI_2linesRxISR_16BIT+0x5e>
      return;
    }
#endif /* USE_SPI_CRC */

    /* Disable RXNE interrupt */
    __HAL_SPI_DISABLE_IT(hspi, SPI_IT_RXNE);
 80054a0:	687b      	ldr	r3, [r7, #4]
 80054a2:	681b      	ldr	r3, [r3, #0]
 80054a4:	685a      	ldr	r2, [r3, #4]
 80054a6:	687b      	ldr	r3, [r7, #4]
 80054a8:	681b      	ldr	r3, [r3, #0]
 80054aa:	f022 0240 	bic.w	r2, r2, #64	; 0x40
 80054ae:	605a      	str	r2, [r3, #4]

    if (hspi->TxXferCount == 0U)
 80054b0:	687b      	ldr	r3, [r7, #4]
 80054b2:	8fdb      	ldrh	r3, [r3, #62]	; 0x3e
 80054b4:	b29b      	uxth	r3, r3
 80054b6:	2b00      	cmp	r3, #0
 80054b8:	d102      	bne.n	80054c0 <SPI_2linesRxISR_16BIT+0x5e>
    {
      SPI_CloseRxTx_ISR(hspi);
 80054ba:	6878      	ldr	r0, [r7, #4]
 80054bc:	f000 f998 	bl	80057f0 <SPI_CloseRxTx_ISR>
    }
  }
}
 80054c0:	bf00      	nop
 80054c2:	3708      	adds	r7, #8
 80054c4:	46bd      	mov	sp, r7
 80054c6:	bd80      	pop	{r7, pc}

080054c8 <SPI_2linesTxISR_16BIT>:
  * @param  hspi pointer to a SPI_HandleTypeDef structure that contains
  *               the configuration information for SPI module.
  * @retval None
  */
static void SPI_2linesTxISR_16BIT(struct __SPI_HandleTypeDef *hspi)
{
 80054c8:	b580      	push	{r7, lr}
 80054ca:	b082      	sub	sp, #8
 80054cc:	af00      	add	r7, sp, #0
 80054ce:	6078      	str	r0, [r7, #4]
  /* Transmit data in 16 Bit mode */
  hspi->Instance->DR = *((uint16_t *)hspi->pTxBuffPtr);
 80054d0:	687b      	ldr	r3, [r7, #4]
 80054d2:	6b9b      	ldr	r3, [r3, #56]	; 0x38
 80054d4:	881a      	ldrh	r2, [r3, #0]
 80054d6:	687b      	ldr	r3, [r7, #4]
 80054d8:	681b      	ldr	r3, [r3, #0]
 80054da:	60da      	str	r2, [r3, #12]
  hspi->pTxBuffPtr += sizeof(uint16_t);
 80054dc:	687b      	ldr	r3, [r7, #4]
 80054de:	6b9b      	ldr	r3, [r3, #56]	; 0x38
 80054e0:	1c9a      	adds	r2, r3, #2
 80054e2:	687b      	ldr	r3, [r7, #4]
 80054e4:	639a      	str	r2, [r3, #56]	; 0x38
  hspi->TxXferCount--;
 80054e6:	687b      	ldr	r3, [r7, #4]
 80054e8:	8fdb      	ldrh	r3, [r3, #62]	; 0x3e
 80054ea:	b29b      	uxth	r3, r3
 80054ec:	3b01      	subs	r3, #1
 80054ee:	b29a      	uxth	r2, r3
 80054f0:	687b      	ldr	r3, [r7, #4]
 80054f2:	87da      	strh	r2, [r3, #62]	; 0x3e

  /* Enable CRC Transmission */
  if (hspi->TxXferCount == 0U)
 80054f4:	687b      	ldr	r3, [r7, #4]
 80054f6:	8fdb      	ldrh	r3, [r3, #62]	; 0x3e
 80054f8:	b29b      	uxth	r3, r3
 80054fa:	2b00      	cmp	r3, #0
 80054fc:	d110      	bne.n	8005520 <SPI_2linesTxISR_16BIT+0x58>
      return;
    }
#endif /* USE_SPI_CRC */

    /* Disable TXE interrupt */
    __HAL_SPI_DISABLE_IT(hspi, SPI_IT_TXE);
 80054fe:	687b      	ldr	r3, [r7, #4]
 8005500:	681b      	ldr	r3, [r3, #0]
 8005502:	685a      	ldr	r2, [r3, #4]
 8005504:	687b      	ldr	r3, [r7, #4]
 8005506:	681b      	ldr	r3, [r3, #0]
 8005508:	f022 0280 	bic.w	r2, r2, #128	; 0x80
 800550c:	605a      	str	r2, [r3, #4]

    if (hspi->RxXferCount == 0U)
 800550e:	687b      	ldr	r3, [r7, #4]
 8005510:	f8b3 3046 	ldrh.w	r3, [r3, #70]	; 0x46
 8005514:	b29b      	uxth	r3, r3
 8005516:	2b00      	cmp	r3, #0
 8005518:	d102      	bne.n	8005520 <SPI_2linesTxISR_16BIT+0x58>
    {
      SPI_CloseRxTx_ISR(hspi);
 800551a:	6878      	ldr	r0, [r7, #4]
 800551c:	f000 f968 	bl	80057f0 <SPI_CloseRxTx_ISR>
    }
  }
}
 8005520:	bf00      	nop
 8005522:	3708      	adds	r7, #8
 8005524:	46bd      	mov	sp, r7
 8005526:	bd80      	pop	{r7, pc}

08005528 <SPI_WaitFlagStateUntilTimeout>:
  * @param  Tickstart tick start value
  * @retval HAL status
  */
static HAL_StatusTypeDef SPI_WaitFlagStateUntilTimeout(SPI_HandleTypeDef *hspi, uint32_t Flag, FlagStatus State,
                                                       uint32_t Timeout, uint32_t Tickstart)
{
 8005528:	b580      	push	{r7, lr}
 800552a:	b088      	sub	sp, #32
 800552c:	af00      	add	r7, sp, #0
 800552e:	60f8      	str	r0, [r7, #12]
 8005530:	60b9      	str	r1, [r7, #8]
 8005532:	603b      	str	r3, [r7, #0]
 8005534:	4613      	mov	r3, r2
 8005536:	71fb      	strb	r3, [r7, #7]
  __IO uint32_t count;
  uint32_t tmp_timeout;
  uint32_t tmp_tickstart;

  /* Adjust Timeout value  in case of end of transfer */
  tmp_timeout   = Timeout - (HAL_GetTick() - Tickstart);
 8005538:	f7fc f8d0 	bl	80016dc <HAL_GetTick>
 800553c:	4602      	mov	r2, r0
 800553e:	6abb      	ldr	r3, [r7, #40]	; 0x28
 8005540:	1a9b      	subs	r3, r3, r2
 8005542:	683a      	ldr	r2, [r7, #0]
 8005544:	4413      	add	r3, r2
 8005546:	61fb      	str	r3, [r7, #28]
  tmp_tickstart = HAL_GetTick();
 8005548:	f7fc f8c8 	bl	80016dc <HAL_GetTick>
 800554c:	61b8      	str	r0, [r7, #24]

  /* Calculate Timeout based on a software loop to avoid blocking issue if Systick is disabled */
  count = tmp_timeout * ((SystemCoreClock * 32U) >> 20U);
 800554e:	4b39      	ldr	r3, [pc, #228]	; (8005634 <SPI_WaitFlagStateUntilTimeout+0x10c>)
 8005550:	681b      	ldr	r3, [r3, #0]
 8005552:	015b      	lsls	r3, r3, #5
 8005554:	0d1b      	lsrs	r3, r3, #20
 8005556:	69fa      	ldr	r2, [r7, #28]
 8005558:	fb02 f303 	mul.w	r3, r2, r3
 800555c:	617b      	str	r3, [r7, #20]

  while ((__HAL_SPI_GET_FLAG(hspi, Flag) ? SET : RESET) != State)
 800555e:	e054      	b.n	800560a <SPI_WaitFlagStateUntilTimeout+0xe2>
  {
    if (Timeout != HAL_MAX_DELAY)
 8005560:	683b      	ldr	r3, [r7, #0]
 8005562:	f1b3 3fff 	cmp.w	r3, #4294967295
 8005566:	d050      	beq.n	800560a <SPI_WaitFlagStateUntilTimeout+0xe2>
    {
      if (((HAL_GetTick() - tmp_tickstart) >= tmp_timeout) || (tmp_timeout == 0U))
 8005568:	f7fc f8b8 	bl	80016dc <HAL_GetTick>
 800556c:	4602      	mov	r2, r0
 800556e:	69bb      	ldr	r3, [r7, #24]
 8005570:	1ad3      	subs	r3, r2, r3
 8005572:	69fa      	ldr	r2, [r7, #28]
 8005574:	429a      	cmp	r2, r3
 8005576:	d902      	bls.n	800557e <SPI_WaitFlagStateUntilTimeout+0x56>
 8005578:	69fb      	ldr	r3, [r7, #28]
 800557a:	2b00      	cmp	r3, #0
 800557c:	d13d      	bne.n	80055fa <SPI_WaitFlagStateUntilTimeout+0xd2>
        /* Disable the SPI and reset the CRC: the CRC value should be cleared
           on both master and slave sides in order to resynchronize the master
           and slave for their respective CRC calculation */

        /* Disable TXE, RXNE and ERR interrupts for the interrupt process */
        __HAL_SPI_DISABLE_IT(hspi, (SPI_IT_TXE | SPI_IT_RXNE | SPI_IT_ERR));
 800557e:	68fb      	ldr	r3, [r7, #12]
 8005580:	681b      	ldr	r3, [r3, #0]
 8005582:	685a      	ldr	r2, [r3, #4]
 8005584:	68fb      	ldr	r3, [r7, #12]
 8005586:	681b      	ldr	r3, [r3, #0]
 8005588:	f022 02e0 	bic.w	r2, r2, #224	; 0xe0
 800558c:	605a      	str	r2, [r3, #4]

        if ((hspi->Init.Mode == SPI_MODE_MASTER) && ((hspi->Init.Direction == SPI_DIRECTION_1LINE)
 800558e:	68fb      	ldr	r3, [r7, #12]
 8005590:	685b      	ldr	r3, [r3, #4]
 8005592:	f5b3 7f82 	cmp.w	r3, #260	; 0x104
 8005596:	d111      	bne.n	80055bc <SPI_WaitFlagStateUntilTimeout+0x94>
 8005598:	68fb      	ldr	r3, [r7, #12]
 800559a:	689b      	ldr	r3, [r3, #8]
 800559c:	f5b3 4f00 	cmp.w	r3, #32768	; 0x8000
 80055a0:	d004      	beq.n	80055ac <SPI_WaitFlagStateUntilTimeout+0x84>
                                                     || (hspi->Init.Direction == SPI_DIRECTION_2LINES_RXONLY)))
 80055a2:	68fb      	ldr	r3, [r7, #12]
 80055a4:	689b      	ldr	r3, [r3, #8]
 80055a6:	f5b3 6f80 	cmp.w	r3, #1024	; 0x400
 80055aa:	d107      	bne.n	80055bc <SPI_WaitFlagStateUntilTimeout+0x94>
        {
          /* Disable SPI peripheral */
          __HAL_SPI_DISABLE(hspi);
 80055ac:	68fb      	ldr	r3, [r7, #12]
 80055ae:	681b      	ldr	r3, [r3, #0]
 80055b0:	681a      	ldr	r2, [r3, #0]
 80055b2:	68fb      	ldr	r3, [r7, #12]
 80055b4:	681b      	ldr	r3, [r3, #0]
 80055b6:	f022 0240 	bic.w	r2, r2, #64	; 0x40
 80055ba:	601a      	str	r2, [r3, #0]
        }

        /* Reset CRC Calculation */
        if (hspi->Init.CRCCalculation == SPI_CRCCALCULATION_ENABLE)
 80055bc:	68fb      	ldr	r3, [r7, #12]
 80055be:	6a9b      	ldr	r3, [r3, #40]	; 0x28
 80055c0:	f5b3 5f00 	cmp.w	r3, #8192	; 0x2000
 80055c4:	d10f      	bne.n	80055e6 <SPI_WaitFlagStateUntilTimeout+0xbe>
        {
          SPI_RESET_CRC(hspi);
 80055c6:	68fb      	ldr	r3, [r7, #12]
 80055c8:	681b      	ldr	r3, [r3, #0]
 80055ca:	681a      	ldr	r2, [r3, #0]
 80055cc:	68fb      	ldr	r3, [r7, #12]
 80055ce:	681b      	ldr	r3, [r3, #0]
 80055d0:	f422 5200 	bic.w	r2, r2, #8192	; 0x2000
 80055d4:	601a      	str	r2, [r3, #0]
 80055d6:	68fb      	ldr	r3, [r7, #12]
 80055d8:	681b      	ldr	r3, [r3, #0]
 80055da:	681a      	ldr	r2, [r3, #0]
 80055dc:	68fb      	ldr	r3, [r7, #12]
 80055de:	681b      	ldr	r3, [r3, #0]
 80055e0:	f442 5200 	orr.w	r2, r2, #8192	; 0x2000
 80055e4:	601a      	str	r2, [r3, #0]
        }

        hspi->State = HAL_SPI_STATE_READY;
 80055e6:	68fb      	ldr	r3, [r7, #12]
 80055e8:	2201      	movs	r2, #1
 80055ea:	f883 205d 	strb.w	r2, [r3, #93]	; 0x5d

        /* Process Unlocked */
        __HAL_UNLOCK(hspi);
 80055ee:	68fb      	ldr	r3, [r7, #12]
 80055f0:	2200      	movs	r2, #0
 80055f2:	f883 205c 	strb.w	r2, [r3, #92]	; 0x5c

        return HAL_TIMEOUT;
 80055f6:	2303      	movs	r3, #3
 80055f8:	e017      	b.n	800562a <SPI_WaitFlagStateUntilTimeout+0x102>
      }
      /* If Systick is disabled or not incremented, deactivate timeout to go in disable loop procedure */
      if (count == 0U)
 80055fa:	697b      	ldr	r3, [r7, #20]
 80055fc:	2b00      	cmp	r3, #0
 80055fe:	d101      	bne.n	8005604 <SPI_WaitFlagStateUntilTimeout+0xdc>
      {
        tmp_timeout = 0U;
 8005600:	2300      	movs	r3, #0
 8005602:	61fb      	str	r3, [r7, #28]
      }
      count--;
 8005604:	697b      	ldr	r3, [r7, #20]
 8005606:	3b01      	subs	r3, #1
 8005608:	617b      	str	r3, [r7, #20]
  while ((__HAL_SPI_GET_FLAG(hspi, Flag) ? SET : RESET) != State)
 800560a:	68fb      	ldr	r3, [r7, #12]
 800560c:	681b      	ldr	r3, [r3, #0]
 800560e:	689a      	ldr	r2, [r3, #8]
 8005610:	68bb      	ldr	r3, [r7, #8]
 8005612:	4013      	ands	r3, r2
 8005614:	68ba      	ldr	r2, [r7, #8]
 8005616:	429a      	cmp	r2, r3
 8005618:	bf0c      	ite	eq
 800561a:	2301      	moveq	r3, #1
 800561c:	2300      	movne	r3, #0
 800561e:	b2db      	uxtb	r3, r3
 8005620:	461a      	mov	r2, r3
 8005622:	79fb      	ldrb	r3, [r7, #7]
 8005624:	429a      	cmp	r2, r3
 8005626:	d19b      	bne.n	8005560 <SPI_WaitFlagStateUntilTimeout+0x38>
    }
  }

  return HAL_OK;
 8005628:	2300      	movs	r3, #0
}
 800562a:	4618      	mov	r0, r3
 800562c:	3720      	adds	r7, #32
 800562e:	46bd      	mov	sp, r7
 8005630:	bd80      	pop	{r7, pc}
 8005632:	bf00      	nop
 8005634:	20000018 	.word	0x20000018

08005638 <SPI_WaitFifoStateUntilTimeout>:
  * @param  Tickstart tick start value
  * @retval HAL status
  */
static HAL_StatusTypeDef SPI_WaitFifoStateUntilTimeout(SPI_HandleTypeDef *hspi, uint32_t Fifo, uint32_t State,
                                                       uint32_t Timeout, uint32_t Tickstart)
{
 8005638:	b580      	push	{r7, lr}
 800563a:	b08a      	sub	sp, #40	; 0x28
 800563c:	af00      	add	r7, sp, #0
 800563e:	60f8      	str	r0, [r7, #12]
 8005640:	60b9      	str	r1, [r7, #8]
 8005642:	607a      	str	r2, [r7, #4]
 8005644:	603b      	str	r3, [r7, #0]
  __IO uint32_t count;
  uint32_t tmp_timeout;
  uint32_t tmp_tickstart;
  __IO uint8_t  *ptmpreg8;
  __IO uint8_t  tmpreg8 = 0;
 8005646:	2300      	movs	r3, #0
 8005648:	75fb      	strb	r3, [r7, #23]

  /* Adjust Timeout value  in case of end of transfer */
  tmp_timeout = Timeout - (HAL_GetTick() - Tickstart);
 800564a:	f7fc f847 	bl	80016dc <HAL_GetTick>
 800564e:	4602      	mov	r2, r0
 8005650:	6b3b      	ldr	r3, [r7, #48]	; 0x30
 8005652:	1a9b      	subs	r3, r3, r2
 8005654:	683a      	ldr	r2, [r7, #0]
 8005656:	4413      	add	r3, r2
 8005658:	627b      	str	r3, [r7, #36]	; 0x24
  tmp_tickstart = HAL_GetTick();
 800565a:	f7fc f83f 	bl	80016dc <HAL_GetTick>
 800565e:	6238      	str	r0, [r7, #32]

  /* Initialize the 8bit temporary pointer */
  ptmpreg8 = (__IO uint8_t *)&hspi->Instance->DR;
 8005660:	68fb      	ldr	r3, [r7, #12]
 8005662:	681b      	ldr	r3, [r3, #0]
 8005664:	330c      	adds	r3, #12
 8005666:	61fb      	str	r3, [r7, #28]

  /* Calculate Timeout based on a software loop to avoid blocking issue if Systick is disabled */
  count = tmp_timeout * ((SystemCoreClock * 35U) >> 20U);
 8005668:	4b3d      	ldr	r3, [pc, #244]	; (8005760 <SPI_WaitFifoStateUntilTimeout+0x128>)
 800566a:	681a      	ldr	r2, [r3, #0]
 800566c:	4613      	mov	r3, r2
 800566e:	009b      	lsls	r3, r3, #2
 8005670:	4413      	add	r3, r2
 8005672:	00da      	lsls	r2, r3, #3
 8005674:	1ad3      	subs	r3, r2, r3
 8005676:	0d1b      	lsrs	r3, r3, #20
 8005678:	6a7a      	ldr	r2, [r7, #36]	; 0x24
 800567a:	fb02 f303 	mul.w	r3, r2, r3
 800567e:	61bb      	str	r3, [r7, #24]

  while ((hspi->Instance->SR & Fifo) != State)
 8005680:	e060      	b.n	8005744 <SPI_WaitFifoStateUntilTimeout+0x10c>
  {
    if ((Fifo == SPI_SR_FRLVL) && (State == SPI_FRLVL_EMPTY))
 8005682:	68bb      	ldr	r3, [r7, #8]
 8005684:	f5b3 6fc0 	cmp.w	r3, #1536	; 0x600
 8005688:	d107      	bne.n	800569a <SPI_WaitFifoStateUntilTimeout+0x62>
 800568a:	687b      	ldr	r3, [r7, #4]
 800568c:	2b00      	cmp	r3, #0
 800568e:	d104      	bne.n	800569a <SPI_WaitFifoStateUntilTimeout+0x62>
    {
      /* Flush Data Register by a blank read */
      tmpreg8 = *ptmpreg8;
 8005690:	69fb      	ldr	r3, [r7, #28]
 8005692:	781b      	ldrb	r3, [r3, #0]
 8005694:	b2db      	uxtb	r3, r3
 8005696:	75fb      	strb	r3, [r7, #23]
      /* To avoid GCC warning */
      UNUSED(tmpreg8);
 8005698:	7dfb      	ldrb	r3, [r7, #23]
    }

    if (Timeout != HAL_MAX_DELAY)
 800569a:	683b      	ldr	r3, [r7, #0]
 800569c:	f1b3 3fff 	cmp.w	r3, #4294967295
 80056a0:	d050      	beq.n	8005744 <SPI_WaitFifoStateUntilTimeout+0x10c>
    {
      if (((HAL_GetTick() - tmp_tickstart) >= tmp_timeout) || (tmp_timeout == 0U))
 80056a2:	f7fc f81b 	bl	80016dc <HAL_GetTick>
 80056a6:	4602      	mov	r2, r0
 80056a8:	6a3b      	ldr	r3, [r7, #32]
 80056aa:	1ad3      	subs	r3, r2, r3
 80056ac:	6a7a      	ldr	r2, [r7, #36]	; 0x24
 80056ae:	429a      	cmp	r2, r3
 80056b0:	d902      	bls.n	80056b8 <SPI_WaitFifoStateUntilTimeout+0x80>
 80056b2:	6a7b      	ldr	r3, [r7, #36]	; 0x24
 80056b4:	2b00      	cmp	r3, #0
 80056b6:	d13d      	bne.n	8005734 <SPI_WaitFifoStateUntilTimeout+0xfc>
        /* Disable the SPI and reset the CRC: the CRC value should be cleared
           on both master and slave sides in order to resynchronize the master
           and slave for their respective CRC calculation */

        /* Disable TXE, RXNE and ERR interrupts for the interrupt process */
        __HAL_SPI_DISABLE_IT(hspi, (SPI_IT_TXE | SPI_IT_RXNE | SPI_IT_ERR));
 80056b8:	68fb      	ldr	r3, [r7, #12]
 80056ba:	681b      	ldr	r3, [r3, #0]
 80056bc:	685a      	ldr	r2, [r3, #4]
 80056be:	68fb      	ldr	r3, [r7, #12]
 80056c0:	681b      	ldr	r3, [r3, #0]
 80056c2:	f022 02e0 	bic.w	r2, r2, #224	; 0xe0
 80056c6:	605a      	str	r2, [r3, #4]

        if ((hspi->Init.Mode == SPI_MODE_MASTER) && ((hspi->Init.Direction == SPI_DIRECTION_1LINE)
 80056c8:	68fb      	ldr	r3, [r7, #12]
 80056ca:	685b      	ldr	r3, [r3, #4]
 80056cc:	f5b3 7f82 	cmp.w	r3, #260	; 0x104
 80056d0:	d111      	bne.n	80056f6 <SPI_WaitFifoStateUntilTimeout+0xbe>
 80056d2:	68fb      	ldr	r3, [r7, #12]
 80056d4:	689b      	ldr	r3, [r3, #8]
 80056d6:	f5b3 4f00 	cmp.w	r3, #32768	; 0x8000
 80056da:	d004      	beq.n	80056e6 <SPI_WaitFifoStateUntilTimeout+0xae>
                                                     || (hspi->Init.Direction == SPI_DIRECTION_2LINES_RXONLY)))
 80056dc:	68fb      	ldr	r3, [r7, #12]
 80056de:	689b      	ldr	r3, [r3, #8]
 80056e0:	f5b3 6f80 	cmp.w	r3, #1024	; 0x400
 80056e4:	d107      	bne.n	80056f6 <SPI_WaitFifoStateUntilTimeout+0xbe>
        {
          /* Disable SPI peripheral */
          __HAL_SPI_DISABLE(hspi);
 80056e6:	68fb      	ldr	r3, [r7, #12]
 80056e8:	681b      	ldr	r3, [r3, #0]
 80056ea:	681a      	ldr	r2, [r3, #0]
 80056ec:	68fb      	ldr	r3, [r7, #12]
 80056ee:	681b      	ldr	r3, [r3, #0]
 80056f0:	f022 0240 	bic.w	r2, r2, #64	; 0x40
 80056f4:	601a      	str	r2, [r3, #0]
        }

        /* Reset CRC Calculation */
        if (hspi->Init.CRCCalculation == SPI_CRCCALCULATION_ENABLE)
 80056f6:	68fb      	ldr	r3, [r7, #12]
 80056f8:	6a9b      	ldr	r3, [r3, #40]	; 0x28
 80056fa:	f5b3 5f00 	cmp.w	r3, #8192	; 0x2000
 80056fe:	d10f      	bne.n	8005720 <SPI_WaitFifoStateUntilTimeout+0xe8>
        {
          SPI_RESET_CRC(hspi);
 8005700:	68fb      	ldr	r3, [r7, #12]
 8005702:	681b      	ldr	r3, [r3, #0]
 8005704:	681a      	ldr	r2, [r3, #0]
 8005706:	68fb      	ldr	r3, [r7, #12]
 8005708:	681b      	ldr	r3, [r3, #0]
 800570a:	f422 5200 	bic.w	r2, r2, #8192	; 0x2000
 800570e:	601a      	str	r2, [r3, #0]
 8005710:	68fb      	ldr	r3, [r7, #12]
 8005712:	681b      	ldr	r3, [r3, #0]
 8005714:	681a      	ldr	r2, [r3, #0]
 8005716:	68fb      	ldr	r3, [r7, #12]
 8005718:	681b      	ldr	r3, [r3, #0]
 800571a:	f442 5200 	orr.w	r2, r2, #8192	; 0x2000
 800571e:	601a      	str	r2, [r3, #0]
        }

        hspi->State = HAL_SPI_STATE_READY;
 8005720:	68fb      	ldr	r3, [r7, #12]
 8005722:	2201      	movs	r2, #1
 8005724:	f883 205d 	strb.w	r2, [r3, #93]	; 0x5d

        /* Process Unlocked */
        __HAL_UNLOCK(hspi);
 8005728:	68fb      	ldr	r3, [r7, #12]
 800572a:	2200      	movs	r2, #0
 800572c:	f883 205c 	strb.w	r2, [r3, #92]	; 0x5c

        return HAL_TIMEOUT;
 8005730:	2303      	movs	r3, #3
 8005732:	e010      	b.n	8005756 <SPI_WaitFifoStateUntilTimeout+0x11e>
      }
      /* If Systick is disabled or not incremented, deactivate timeout to go in disable loop procedure */
      if (count == 0U)
 8005734:	69bb      	ldr	r3, [r7, #24]
 8005736:	2b00      	cmp	r3, #0
 8005738:	d101      	bne.n	800573e <SPI_WaitFifoStateUntilTimeout+0x106>
      {
        tmp_timeout = 0U;
 800573a:	2300      	movs	r3, #0
 800573c:	627b      	str	r3, [r7, #36]	; 0x24
      }
      count--;
 800573e:	69bb      	ldr	r3, [r7, #24]
 8005740:	3b01      	subs	r3, #1
 8005742:	61bb      	str	r3, [r7, #24]
  while ((hspi->Instance->SR & Fifo) != State)
 8005744:	68fb      	ldr	r3, [r7, #12]
 8005746:	681b      	ldr	r3, [r3, #0]
 8005748:	689a      	ldr	r2, [r3, #8]
 800574a:	68bb      	ldr	r3, [r7, #8]
 800574c:	4013      	ands	r3, r2
 800574e:	687a      	ldr	r2, [r7, #4]
 8005750:	429a      	cmp	r2, r3
 8005752:	d196      	bne.n	8005682 <SPI_WaitFifoStateUntilTimeout+0x4a>
    }
  }

  return HAL_OK;
 8005754:	2300      	movs	r3, #0
}
 8005756:	4618      	mov	r0, r3
 8005758:	3728      	adds	r7, #40	; 0x28
 800575a:	46bd      	mov	sp, r7
 800575c:	bd80      	pop	{r7, pc}
 800575e:	bf00      	nop
 8005760:	20000018 	.word	0x20000018

08005764 <SPI_EndRxTxTransaction>:
  * @param  Timeout Timeout duration
  * @param  Tickstart tick start value
  * @retval HAL status
  */
static HAL_StatusTypeDef SPI_EndRxTxTransaction(SPI_HandleTypeDef *hspi, uint32_t Timeout, uint32_t Tickstart)
{
 8005764:	b580      	push	{r7, lr}
 8005766:	b086      	sub	sp, #24
 8005768:	af02      	add	r7, sp, #8
 800576a:	60f8      	str	r0, [r7, #12]
 800576c:	60b9      	str	r1, [r7, #8]
 800576e:	607a      	str	r2, [r7, #4]
  /* Control if the TX fifo is empty */
  if (SPI_WaitFifoStateUntilTimeout(hspi, SPI_FLAG_FTLVL, SPI_FTLVL_EMPTY, Timeout, Tickstart) != HAL_OK)
 8005770:	687b      	ldr	r3, [r7, #4]
 8005772:	9300      	str	r3, [sp, #0]
 8005774:	68bb      	ldr	r3, [r7, #8]
 8005776:	2200      	movs	r2, #0
 8005778:	f44f 51c0 	mov.w	r1, #6144	; 0x1800
 800577c:	68f8      	ldr	r0, [r7, #12]
 800577e:	f7ff ff5b 	bl	8005638 <SPI_WaitFifoStateUntilTimeout>
 8005782:	4603      	mov	r3, r0
 8005784:	2b00      	cmp	r3, #0
 8005786:	d007      	beq.n	8005798 <SPI_EndRxTxTransaction+0x34>
  {
    SET_BIT(hspi->ErrorCode, HAL_SPI_ERROR_FLAG);
 8005788:	68fb      	ldr	r3, [r7, #12]
 800578a:	6e1b      	ldr	r3, [r3, #96]	; 0x60
 800578c:	f043 0220 	orr.w	r2, r3, #32
 8005790:	68fb      	ldr	r3, [r7, #12]
 8005792:	661a      	str	r2, [r3, #96]	; 0x60
    return HAL_TIMEOUT;
 8005794:	2303      	movs	r3, #3
 8005796:	e027      	b.n	80057e8 <SPI_EndRxTxTransaction+0x84>
  }

  /* Control the BSY flag */
  if (SPI_WaitFlagStateUntilTimeout(hspi, SPI_FLAG_BSY, RESET, Timeout, Tickstart) != HAL_OK)
 8005798:	687b      	ldr	r3, [r7, #4]
 800579a:	9300      	str	r3, [sp, #0]
 800579c:	68bb      	ldr	r3, [r7, #8]
 800579e:	2200      	movs	r2, #0
 80057a0:	2180      	movs	r1, #128	; 0x80
 80057a2:	68f8      	ldr	r0, [r7, #12]
 80057a4:	f7ff fec0 	bl	8005528 <SPI_WaitFlagStateUntilTimeout>
 80057a8:	4603      	mov	r3, r0
 80057aa:	2b00      	cmp	r3, #0
 80057ac:	d007      	beq.n	80057be <SPI_EndRxTxTransaction+0x5a>
  {
    SET_BIT(hspi->ErrorCode, HAL_SPI_ERROR_FLAG);
 80057ae:	68fb      	ldr	r3, [r7, #12]
 80057b0:	6e1b      	ldr	r3, [r3, #96]	; 0x60
 80057b2:	f043 0220 	orr.w	r2, r3, #32
 80057b6:	68fb      	ldr	r3, [r7, #12]
 80057b8:	661a      	str	r2, [r3, #96]	; 0x60
    return HAL_TIMEOUT;
 80057ba:	2303      	movs	r3, #3
 80057bc:	e014      	b.n	80057e8 <SPI_EndRxTxTransaction+0x84>
  }

  /* Control if the RX fifo is empty */
  if (SPI_WaitFifoStateUntilTimeout(hspi, SPI_FLAG_FRLVL, SPI_FRLVL_EMPTY, Timeout, Tickstart) != HAL_OK)
 80057be:	687b      	ldr	r3, [r7, #4]
 80057c0:	9300      	str	r3, [sp, #0]
 80057c2:	68bb      	ldr	r3, [r7, #8]
 80057c4:	2200      	movs	r2, #0
 80057c6:	f44f 61c0 	mov.w	r1, #1536	; 0x600
 80057ca:	68f8      	ldr	r0, [r7, #12]
 80057cc:	f7ff ff34 	bl	8005638 <SPI_WaitFifoStateUntilTimeout>
 80057d0:	4603      	mov	r3, r0
 80057d2:	2b00      	cmp	r3, #0
 80057d4:	d007      	beq.n	80057e6 <SPI_EndRxTxTransaction+0x82>
  {
    SET_BIT(hspi->ErrorCode, HAL_SPI_ERROR_FLAG);
 80057d6:	68fb      	ldr	r3, [r7, #12]
 80057d8:	6e1b      	ldr	r3, [r3, #96]	; 0x60
 80057da:	f043 0220 	orr.w	r2, r3, #32
 80057de:	68fb      	ldr	r3, [r7, #12]
 80057e0:	661a      	str	r2, [r3, #96]	; 0x60
    return HAL_TIMEOUT;
 80057e2:	2303      	movs	r3, #3
 80057e4:	e000      	b.n	80057e8 <SPI_EndRxTxTransaction+0x84>
  }

  return HAL_OK;
 80057e6:	2300      	movs	r3, #0
}
 80057e8:	4618      	mov	r0, r3
 80057ea:	3710      	adds	r7, #16
 80057ec:	46bd      	mov	sp, r7
 80057ee:	bd80      	pop	{r7, pc}

080057f0 <SPI_CloseRxTx_ISR>:
  * @param  hspi pointer to a SPI_HandleTypeDef structure that contains
  *               the configuration information for SPI module.
  * @retval None
  */
static void SPI_CloseRxTx_ISR(SPI_HandleTypeDef *hspi)
{
 80057f0:	b580      	push	{r7, lr}
 80057f2:	b084      	sub	sp, #16
 80057f4:	af00      	add	r7, sp, #0
 80057f6:	6078      	str	r0, [r7, #4]
  uint32_t tickstart;

  /* Init tickstart for timeout management */
  tickstart = HAL_GetTick();
 80057f8:	f7fb ff70 	bl	80016dc <HAL_GetTick>
 80057fc:	60f8      	str	r0, [r7, #12]

  /* Disable ERR interrupt */
  __HAL_SPI_DISABLE_IT(hspi, SPI_IT_ERR);
 80057fe:	687b      	ldr	r3, [r7, #4]
 8005800:	681b      	ldr	r3, [r3, #0]
 8005802:	685a      	ldr	r2, [r3, #4]
 8005804:	687b      	ldr	r3, [r7, #4]
 8005806:	681b      	ldr	r3, [r3, #0]
 8005808:	f022 0220 	bic.w	r2, r2, #32
 800580c:	605a      	str	r2, [r3, #4]

  /* Check the end of the transaction */
  if (SPI_EndRxTxTransaction(hspi, SPI_DEFAULT_TIMEOUT, tickstart) != HAL_OK)
 800580e:	68fa      	ldr	r2, [r7, #12]
 8005810:	2164      	movs	r1, #100	; 0x64
 8005812:	6878      	ldr	r0, [r7, #4]
 8005814:	f7ff ffa6 	bl	8005764 <SPI_EndRxTxTransaction>
 8005818:	4603      	mov	r3, r0
 800581a:	2b00      	cmp	r3, #0
 800581c:	d005      	beq.n	800582a <SPI_CloseRxTx_ISR+0x3a>
  {
    SET_BIT(hspi->ErrorCode, HAL_SPI_ERROR_FLAG);
 800581e:	687b      	ldr	r3, [r7, #4]
 8005820:	6e1b      	ldr	r3, [r3, #96]	; 0x60
 8005822:	f043 0220 	orr.w	r2, r3, #32
 8005826:	687b      	ldr	r3, [r7, #4]
 8005828:	661a      	str	r2, [r3, #96]	; 0x60
#endif /* USE_HAL_SPI_REGISTER_CALLBACKS */
  }
  else
  {
#endif /* USE_SPI_CRC */
    if (hspi->ErrorCode == HAL_SPI_ERROR_NONE)
 800582a:	687b      	ldr	r3, [r7, #4]
 800582c:	6e1b      	ldr	r3, [r3, #96]	; 0x60
 800582e:	2b00      	cmp	r3, #0
 8005830:	d115      	bne.n	800585e <SPI_CloseRxTx_ISR+0x6e>
    {
      if (hspi->State == HAL_SPI_STATE_BUSY_RX)
 8005832:	687b      	ldr	r3, [r7, #4]
 8005834:	f893 305d 	ldrb.w	r3, [r3, #93]	; 0x5d
 8005838:	b2db      	uxtb	r3, r3
 800583a:	2b04      	cmp	r3, #4
 800583c:	d107      	bne.n	800584e <SPI_CloseRxTx_ISR+0x5e>
      {
        hspi->State = HAL_SPI_STATE_READY;
 800583e:	687b      	ldr	r3, [r7, #4]
 8005840:	2201      	movs	r2, #1
 8005842:	f883 205d 	strb.w	r2, [r3, #93]	; 0x5d
        /* Call user Rx complete callback */
#if (USE_HAL_SPI_REGISTER_CALLBACKS == 1U)
        hspi->RxCpltCallback(hspi);
#else
        HAL_SPI_RxCpltCallback(hspi);
 8005846:	6878      	ldr	r0, [r7, #4]
 8005848:	f7ff fd3a 	bl	80052c0 <HAL_SPI_RxCpltCallback>
#endif /* USE_HAL_SPI_REGISTER_CALLBACKS */
    }
#if (USE_SPI_CRC != 0U)
  }
#endif /* USE_SPI_CRC */
}
 800584c:	e00e      	b.n	800586c <SPI_CloseRxTx_ISR+0x7c>
        hspi->State = HAL_SPI_STATE_READY;
 800584e:	687b      	ldr	r3, [r7, #4]
 8005850:	2201      	movs	r2, #1
 8005852:	f883 205d 	strb.w	r2, [r3, #93]	; 0x5d
        HAL_SPI_TxRxCpltCallback(hspi);
 8005856:	6878      	ldr	r0, [r7, #4]
 8005858:	f7fb f988 	bl	8000b6c <HAL_SPI_TxRxCpltCallback>
}
 800585c:	e006      	b.n	800586c <SPI_CloseRxTx_ISR+0x7c>
      hspi->State = HAL_SPI_STATE_READY;
 800585e:	687b      	ldr	r3, [r7, #4]
 8005860:	2201      	movs	r2, #1
 8005862:	f883 205d 	strb.w	r2, [r3, #93]	; 0x5d
      HAL_SPI_ErrorCallback(hspi);
 8005866:	6878      	ldr	r0, [r7, #4]
 8005868:	f7ff fd34 	bl	80052d4 <HAL_SPI_ErrorCallback>
}
 800586c:	bf00      	nop
 800586e:	3710      	adds	r7, #16
 8005870:	46bd      	mov	sp, r7
 8005872:	bd80      	pop	{r7, pc}

08005874 <HAL_UART_Init>:
  *        parameters in the UART_InitTypeDef and initialize the associated handle.
  * @param huart UART handle.
  * @retval HAL status
  */
HAL_StatusTypeDef HAL_UART_Init(UART_HandleTypeDef *huart)
{
 8005874:	b580      	push	{r7, lr}
 8005876:	b082      	sub	sp, #8
 8005878:	af00      	add	r7, sp, #0
 800587a:	6078      	str	r0, [r7, #4]
  /* Check the UART handle allocation */
  if (huart == NULL)
 800587c:	687b      	ldr	r3, [r7, #4]
 800587e:	2b00      	cmp	r3, #0
 8005880:	d101      	bne.n	8005886 <HAL_UART_Init+0x12>
  {
    return HAL_ERROR;
 8005882:	2301      	movs	r3, #1
 8005884:	e042      	b.n	800590c <HAL_UART_Init+0x98>
  {
    /* Check the parameters */
    assert_param((IS_UART_INSTANCE(huart->Instance)) || (IS_LPUART_INSTANCE(huart->Instance)));
  }

  if (huart->gState == HAL_UART_STATE_RESET)
 8005886:	687b      	ldr	r3, [r7, #4]
 8005888:	f8d3 3088 	ldr.w	r3, [r3, #136]	; 0x88
 800588c:	2b00      	cmp	r3, #0
 800588e:	d106      	bne.n	800589e <HAL_UART_Init+0x2a>
  {
    /* Allocate lock resource and initialize it */
    huart->Lock = HAL_UNLOCKED;
 8005890:	687b      	ldr	r3, [r7, #4]
 8005892:	2200      	movs	r2, #0
 8005894:	f883 2084 	strb.w	r2, [r3, #132]	; 0x84

    /* Init the low level hardware */
    huart->MspInitCallback(huart);
#else
    /* Init the low level hardware : GPIO, CLOCK */
    HAL_UART_MspInit(huart);
 8005898:	6878      	ldr	r0, [r7, #4]
 800589a:	f7fb fcb1 	bl	8001200 <HAL_UART_MspInit>
#endif /* (USE_HAL_UART_REGISTER_CALLBACKS) */
  }

  huart->gState = HAL_UART_STATE_BUSY;
 800589e:	687b      	ldr	r3, [r7, #4]
 80058a0:	2224      	movs	r2, #36	; 0x24
 80058a2:	f8c3 2088 	str.w	r2, [r3, #136]	; 0x88

  __HAL_UART_DISABLE(huart);
 80058a6:	687b      	ldr	r3, [r7, #4]
 80058a8:	681b      	ldr	r3, [r3, #0]
 80058aa:	681a      	ldr	r2, [r3, #0]
 80058ac:	687b      	ldr	r3, [r7, #4]
 80058ae:	681b      	ldr	r3, [r3, #0]
 80058b0:	f022 0201 	bic.w	r2, r2, #1
 80058b4:	601a      	str	r2, [r3, #0]

  /* Perform advanced settings configuration */
  /* For some items, configuration requires to be done prior TE and RE bits are set */
  if (huart->AdvancedInit.AdvFeatureInit != UART_ADVFEATURE_NO_INIT)
 80058b6:	687b      	ldr	r3, [r7, #4]
 80058b8:	6a9b      	ldr	r3, [r3, #40]	; 0x28
 80058ba:	2b00      	cmp	r3, #0
 80058bc:	d002      	beq.n	80058c4 <HAL_UART_Init+0x50>
  {
    UART_AdvFeatureConfig(huart);
 80058be:	6878      	ldr	r0, [r7, #4]
 80058c0:	f000 fb24 	bl	8005f0c <UART_AdvFeatureConfig>
  }

  /* Set the UART Communication parameters */
  if (UART_SetConfig(huart) == HAL_ERROR)
 80058c4:	6878      	ldr	r0, [r7, #4]
 80058c6:	f000 f825 	bl	8005914 <UART_SetConfig>
 80058ca:	4603      	mov	r3, r0
 80058cc:	2b01      	cmp	r3, #1
 80058ce:	d101      	bne.n	80058d4 <HAL_UART_Init+0x60>
  {
    return HAL_ERROR;
 80058d0:	2301      	movs	r3, #1
 80058d2:	e01b      	b.n	800590c <HAL_UART_Init+0x98>
  }

  /* In asynchronous mode, the following bits must be kept cleared:
  - LINEN and CLKEN bits in the USART_CR2 register,
  - SCEN, HDSEL and IREN  bits in the USART_CR3 register.*/
  CLEAR_BIT(huart->Instance->CR2, (USART_CR2_LINEN | USART_CR2_CLKEN));
 80058d4:	687b      	ldr	r3, [r7, #4]
 80058d6:	681b      	ldr	r3, [r3, #0]
 80058d8:	685a      	ldr	r2, [r3, #4]
 80058da:	687b      	ldr	r3, [r7, #4]
 80058dc:	681b      	ldr	r3, [r3, #0]
 80058de:	f422 4290 	bic.w	r2, r2, #18432	; 0x4800
 80058e2:	605a      	str	r2, [r3, #4]
  CLEAR_BIT(huart->Instance->CR3, (USART_CR3_SCEN | USART_CR3_HDSEL | USART_CR3_IREN));
 80058e4:	687b      	ldr	r3, [r7, #4]
 80058e6:	681b      	ldr	r3, [r3, #0]
 80058e8:	689a      	ldr	r2, [r3, #8]
 80058ea:	687b      	ldr	r3, [r7, #4]
 80058ec:	681b      	ldr	r3, [r3, #0]
 80058ee:	f022 022a 	bic.w	r2, r2, #42	; 0x2a
 80058f2:	609a      	str	r2, [r3, #8]

  __HAL_UART_ENABLE(huart);
 80058f4:	687b      	ldr	r3, [r7, #4]
 80058f6:	681b      	ldr	r3, [r3, #0]
 80058f8:	681a      	ldr	r2, [r3, #0]
 80058fa:	687b      	ldr	r3, [r7, #4]
 80058fc:	681b      	ldr	r3, [r3, #0]
 80058fe:	f042 0201 	orr.w	r2, r2, #1
 8005902:	601a      	str	r2, [r3, #0]

  /* TEACK and/or REACK to check before moving huart->gState and huart->RxState to Ready */
  return (UART_CheckIdleState(huart));
 8005904:	6878      	ldr	r0, [r7, #4]
 8005906:	f000 fba3 	bl	8006050 <UART_CheckIdleState>
 800590a:	4603      	mov	r3, r0
}
 800590c:	4618      	mov	r0, r3
 800590e:	3708      	adds	r7, #8
 8005910:	46bd      	mov	sp, r7
 8005912:	bd80      	pop	{r7, pc}

08005914 <UART_SetConfig>:
  * @brief Configure the UART peripheral.
  * @param huart UART handle.
  * @retval HAL status
  */
HAL_StatusTypeDef UART_SetConfig(UART_HandleTypeDef *huart)
{
 8005914:	e92d 4fb0 	stmdb	sp!, {r4, r5, r7, r8, r9, sl, fp, lr}
 8005918:	b08c      	sub	sp, #48	; 0x30
 800591a:	af00      	add	r7, sp, #0
 800591c:	6178      	str	r0, [r7, #20]
  uint32_t tmpreg;
  uint16_t brrtemp;
  UART_ClockSourceTypeDef clocksource;
  uint32_t usartdiv;
  HAL_StatusTypeDef ret               = HAL_OK;
 800591e:	2300      	movs	r3, #0
 8005920:	f887 302a 	strb.w	r3, [r7, #42]	; 0x2a
  *  the UART Word Length, Parity, Mode and oversampling:
  *  set the M bits according to huart->Init.WordLength value
  *  set PCE and PS bits according to huart->Init.Parity value
  *  set TE and RE bits according to huart->Init.Mode value
  *  set OVER8 bit according to huart->Init.OverSampling value */
  tmpreg = (uint32_t)huart->Init.WordLength | huart->Init.Parity | huart->Init.Mode | huart->Init.OverSampling ;
 8005924:	697b      	ldr	r3, [r7, #20]
 8005926:	689a      	ldr	r2, [r3, #8]
 8005928:	697b      	ldr	r3, [r7, #20]
 800592a:	691b      	ldr	r3, [r3, #16]
 800592c:	431a      	orrs	r2, r3
 800592e:	697b      	ldr	r3, [r7, #20]
 8005930:	695b      	ldr	r3, [r3, #20]
 8005932:	431a      	orrs	r2, r3
 8005934:	697b      	ldr	r3, [r7, #20]
 8005936:	69db      	ldr	r3, [r3, #28]
 8005938:	4313      	orrs	r3, r2
 800593a:	62fb      	str	r3, [r7, #44]	; 0x2c
  MODIFY_REG(huart->Instance->CR1, USART_CR1_FIELDS, tmpreg);
 800593c:	697b      	ldr	r3, [r7, #20]
 800593e:	681b      	ldr	r3, [r3, #0]
 8005940:	681a      	ldr	r2, [r3, #0]
 8005942:	4baa      	ldr	r3, [pc, #680]	; (8005bec <UART_SetConfig+0x2d8>)
 8005944:	4013      	ands	r3, r2
 8005946:	697a      	ldr	r2, [r7, #20]
 8005948:	6812      	ldr	r2, [r2, #0]
 800594a:	6af9      	ldr	r1, [r7, #44]	; 0x2c
 800594c:	430b      	orrs	r3, r1
 800594e:	6013      	str	r3, [r2, #0]

  /*-------------------------- USART CR2 Configuration -----------------------*/
  /* Configure the UART Stop Bits: Set STOP[13:12] bits according
  * to huart->Init.StopBits value */
  MODIFY_REG(huart->Instance->CR2, USART_CR2_STOP, huart->Init.StopBits);
 8005950:	697b      	ldr	r3, [r7, #20]
 8005952:	681b      	ldr	r3, [r3, #0]
 8005954:	685b      	ldr	r3, [r3, #4]
 8005956:	f423 5140 	bic.w	r1, r3, #12288	; 0x3000
 800595a:	697b      	ldr	r3, [r7, #20]
 800595c:	68da      	ldr	r2, [r3, #12]
 800595e:	697b      	ldr	r3, [r7, #20]
 8005960:	681b      	ldr	r3, [r3, #0]
 8005962:	430a      	orrs	r2, r1
 8005964:	605a      	str	r2, [r3, #4]
  /* Configure
  * - UART HardWare Flow Control: set CTSE and RTSE bits according
  *   to huart->Init.HwFlowCtl value
  * - one-bit sampling method versus three samples' majority rule according
  *   to huart->Init.OneBitSampling (not applicable to LPUART) */
  tmpreg = (uint32_t)huart->Init.HwFlowCtl;
 8005966:	697b      	ldr	r3, [r7, #20]
 8005968:	699b      	ldr	r3, [r3, #24]
 800596a:	62fb      	str	r3, [r7, #44]	; 0x2c

  if (!(UART_INSTANCE_LOWPOWER(huart)))
 800596c:	697b      	ldr	r3, [r7, #20]
 800596e:	681b      	ldr	r3, [r3, #0]
 8005970:	4a9f      	ldr	r2, [pc, #636]	; (8005bf0 <UART_SetConfig+0x2dc>)
 8005972:	4293      	cmp	r3, r2
 8005974:	d004      	beq.n	8005980 <UART_SetConfig+0x6c>
  {
    tmpreg |= huart->Init.OneBitSampling;
 8005976:	697b      	ldr	r3, [r7, #20]
 8005978:	6a1b      	ldr	r3, [r3, #32]
 800597a:	6afa      	ldr	r2, [r7, #44]	; 0x2c
 800597c:	4313      	orrs	r3, r2
 800597e:	62fb      	str	r3, [r7, #44]	; 0x2c
  }
  MODIFY_REG(huart->Instance->CR3, USART_CR3_FIELDS, tmpreg);
 8005980:	697b      	ldr	r3, [r7, #20]
 8005982:	681b      	ldr	r3, [r3, #0]
 8005984:	689b      	ldr	r3, [r3, #8]
 8005986:	f023 436e 	bic.w	r3, r3, #3992977408	; 0xee000000
 800598a:	f423 6330 	bic.w	r3, r3, #2816	; 0xb00
 800598e:	697a      	ldr	r2, [r7, #20]
 8005990:	6812      	ldr	r2, [r2, #0]
 8005992:	6af9      	ldr	r1, [r7, #44]	; 0x2c
 8005994:	430b      	orrs	r3, r1
 8005996:	6093      	str	r3, [r2, #8]

  /*-------------------------- USART PRESC Configuration -----------------------*/
  /* Configure
  * - UART Clock Prescaler : set PRESCALER according to huart->Init.ClockPrescaler value */
  MODIFY_REG(huart->Instance->PRESC, USART_PRESC_PRESCALER, huart->Init.ClockPrescaler);
 8005998:	697b      	ldr	r3, [r7, #20]
 800599a:	681b      	ldr	r3, [r3, #0]
 800599c:	6adb      	ldr	r3, [r3, #44]	; 0x2c
 800599e:	f023 010f 	bic.w	r1, r3, #15
 80059a2:	697b      	ldr	r3, [r7, #20]
 80059a4:	6a5a      	ldr	r2, [r3, #36]	; 0x24
 80059a6:	697b      	ldr	r3, [r7, #20]
 80059a8:	681b      	ldr	r3, [r3, #0]
 80059aa:	430a      	orrs	r2, r1
 80059ac:	62da      	str	r2, [r3, #44]	; 0x2c

  /*-------------------------- USART BRR Configuration -----------------------*/
  UART_GETCLOCKSOURCE(huart, clocksource);
 80059ae:	697b      	ldr	r3, [r7, #20]
 80059b0:	681b      	ldr	r3, [r3, #0]
 80059b2:	4a90      	ldr	r2, [pc, #576]	; (8005bf4 <UART_SetConfig+0x2e0>)
 80059b4:	4293      	cmp	r3, r2
 80059b6:	d125      	bne.n	8005a04 <UART_SetConfig+0xf0>
 80059b8:	4b8f      	ldr	r3, [pc, #572]	; (8005bf8 <UART_SetConfig+0x2e4>)
 80059ba:	f8d3 3088 	ldr.w	r3, [r3, #136]	; 0x88
 80059be:	f003 0303 	and.w	r3, r3, #3
 80059c2:	2b03      	cmp	r3, #3
 80059c4:	d81a      	bhi.n	80059fc <UART_SetConfig+0xe8>
 80059c6:	a201      	add	r2, pc, #4	; (adr r2, 80059cc <UART_SetConfig+0xb8>)
 80059c8:	f852 f023 	ldr.w	pc, [r2, r3, lsl #2]
 80059cc:	080059dd 	.word	0x080059dd
 80059d0:	080059ed 	.word	0x080059ed
 80059d4:	080059e5 	.word	0x080059e5
 80059d8:	080059f5 	.word	0x080059f5
 80059dc:	2301      	movs	r3, #1
 80059de:	f887 302b 	strb.w	r3, [r7, #43]	; 0x2b
 80059e2:	e116      	b.n	8005c12 <UART_SetConfig+0x2fe>
 80059e4:	2302      	movs	r3, #2
 80059e6:	f887 302b 	strb.w	r3, [r7, #43]	; 0x2b
 80059ea:	e112      	b.n	8005c12 <UART_SetConfig+0x2fe>
 80059ec:	2304      	movs	r3, #4
 80059ee:	f887 302b 	strb.w	r3, [r7, #43]	; 0x2b
 80059f2:	e10e      	b.n	8005c12 <UART_SetConfig+0x2fe>
 80059f4:	2308      	movs	r3, #8
 80059f6:	f887 302b 	strb.w	r3, [r7, #43]	; 0x2b
 80059fa:	e10a      	b.n	8005c12 <UART_SetConfig+0x2fe>
 80059fc:	2310      	movs	r3, #16
 80059fe:	f887 302b 	strb.w	r3, [r7, #43]	; 0x2b
 8005a02:	e106      	b.n	8005c12 <UART_SetConfig+0x2fe>
 8005a04:	697b      	ldr	r3, [r7, #20]
 8005a06:	681b      	ldr	r3, [r3, #0]
 8005a08:	4a7c      	ldr	r2, [pc, #496]	; (8005bfc <UART_SetConfig+0x2e8>)
 8005a0a:	4293      	cmp	r3, r2
 8005a0c:	d138      	bne.n	8005a80 <UART_SetConfig+0x16c>
 8005a0e:	4b7a      	ldr	r3, [pc, #488]	; (8005bf8 <UART_SetConfig+0x2e4>)
 8005a10:	f8d3 3088 	ldr.w	r3, [r3, #136]	; 0x88
 8005a14:	f003 030c 	and.w	r3, r3, #12
 8005a18:	2b0c      	cmp	r3, #12
 8005a1a:	d82d      	bhi.n	8005a78 <UART_SetConfig+0x164>
 8005a1c:	a201      	add	r2, pc, #4	; (adr r2, 8005a24 <UART_SetConfig+0x110>)
 8005a1e:	f852 f023 	ldr.w	pc, [r2, r3, lsl #2]
 8005a22:	bf00      	nop
 8005a24:	08005a59 	.word	0x08005a59
 8005a28:	08005a79 	.word	0x08005a79
 8005a2c:	08005a79 	.word	0x08005a79
 8005a30:	08005a79 	.word	0x08005a79
 8005a34:	08005a69 	.word	0x08005a69
 8005a38:	08005a79 	.word	0x08005a79
 8005a3c:	08005a79 	.word	0x08005a79
 8005a40:	08005a79 	.word	0x08005a79
 8005a44:	08005a61 	.word	0x08005a61
 8005a48:	08005a79 	.word	0x08005a79
 8005a4c:	08005a79 	.word	0x08005a79
 8005a50:	08005a79 	.word	0x08005a79
 8005a54:	08005a71 	.word	0x08005a71
 8005a58:	2300      	movs	r3, #0
 8005a5a:	f887 302b 	strb.w	r3, [r7, #43]	; 0x2b
 8005a5e:	e0d8      	b.n	8005c12 <UART_SetConfig+0x2fe>
 8005a60:	2302      	movs	r3, #2
 8005a62:	f887 302b 	strb.w	r3, [r7, #43]	; 0x2b
 8005a66:	e0d4      	b.n	8005c12 <UART_SetConfig+0x2fe>
 8005a68:	2304      	movs	r3, #4
 8005a6a:	f887 302b 	strb.w	r3, [r7, #43]	; 0x2b
 8005a6e:	e0d0      	b.n	8005c12 <UART_SetConfig+0x2fe>
 8005a70:	2308      	movs	r3, #8
 8005a72:	f887 302b 	strb.w	r3, [r7, #43]	; 0x2b
 8005a76:	e0cc      	b.n	8005c12 <UART_SetConfig+0x2fe>
 8005a78:	2310      	movs	r3, #16
 8005a7a:	f887 302b 	strb.w	r3, [r7, #43]	; 0x2b
 8005a7e:	e0c8      	b.n	8005c12 <UART_SetConfig+0x2fe>
 8005a80:	697b      	ldr	r3, [r7, #20]
 8005a82:	681b      	ldr	r3, [r3, #0]
 8005a84:	4a5e      	ldr	r2, [pc, #376]	; (8005c00 <UART_SetConfig+0x2ec>)
 8005a86:	4293      	cmp	r3, r2
 8005a88:	d125      	bne.n	8005ad6 <UART_SetConfig+0x1c2>
 8005a8a:	4b5b      	ldr	r3, [pc, #364]	; (8005bf8 <UART_SetConfig+0x2e4>)
 8005a8c:	f8d3 3088 	ldr.w	r3, [r3, #136]	; 0x88
 8005a90:	f003 0330 	and.w	r3, r3, #48	; 0x30
 8005a94:	2b30      	cmp	r3, #48	; 0x30
 8005a96:	d016      	beq.n	8005ac6 <UART_SetConfig+0x1b2>
 8005a98:	2b30      	cmp	r3, #48	; 0x30
 8005a9a:	d818      	bhi.n	8005ace <UART_SetConfig+0x1ba>
 8005a9c:	2b20      	cmp	r3, #32
 8005a9e:	d00a      	beq.n	8005ab6 <UART_SetConfig+0x1a2>
 8005aa0:	2b20      	cmp	r3, #32
 8005aa2:	d814      	bhi.n	8005ace <UART_SetConfig+0x1ba>
 8005aa4:	2b00      	cmp	r3, #0
 8005aa6:	d002      	beq.n	8005aae <UART_SetConfig+0x19a>
 8005aa8:	2b10      	cmp	r3, #16
 8005aaa:	d008      	beq.n	8005abe <UART_SetConfig+0x1aa>
 8005aac:	e00f      	b.n	8005ace <UART_SetConfig+0x1ba>
 8005aae:	2300      	movs	r3, #0
 8005ab0:	f887 302b 	strb.w	r3, [r7, #43]	; 0x2b
 8005ab4:	e0ad      	b.n	8005c12 <UART_SetConfig+0x2fe>
 8005ab6:	2302      	movs	r3, #2
 8005ab8:	f887 302b 	strb.w	r3, [r7, #43]	; 0x2b
 8005abc:	e0a9      	b.n	8005c12 <UART_SetConfig+0x2fe>
 8005abe:	2304      	movs	r3, #4
 8005ac0:	f887 302b 	strb.w	r3, [r7, #43]	; 0x2b
 8005ac4:	e0a5      	b.n	8005c12 <UART_SetConfig+0x2fe>
 8005ac6:	2308      	movs	r3, #8
 8005ac8:	f887 302b 	strb.w	r3, [r7, #43]	; 0x2b
 8005acc:	e0a1      	b.n	8005c12 <UART_SetConfig+0x2fe>
 8005ace:	2310      	movs	r3, #16
 8005ad0:	f887 302b 	strb.w	r3, [r7, #43]	; 0x2b
 8005ad4:	e09d      	b.n	8005c12 <UART_SetConfig+0x2fe>
 8005ad6:	697b      	ldr	r3, [r7, #20]
 8005ad8:	681b      	ldr	r3, [r3, #0]
 8005ada:	4a4a      	ldr	r2, [pc, #296]	; (8005c04 <UART_SetConfig+0x2f0>)
 8005adc:	4293      	cmp	r3, r2
 8005ade:	d125      	bne.n	8005b2c <UART_SetConfig+0x218>
 8005ae0:	4b45      	ldr	r3, [pc, #276]	; (8005bf8 <UART_SetConfig+0x2e4>)
 8005ae2:	f8d3 3088 	ldr.w	r3, [r3, #136]	; 0x88
 8005ae6:	f003 03c0 	and.w	r3, r3, #192	; 0xc0
 8005aea:	2bc0      	cmp	r3, #192	; 0xc0
 8005aec:	d016      	beq.n	8005b1c <UART_SetConfig+0x208>
 8005aee:	2bc0      	cmp	r3, #192	; 0xc0
 8005af0:	d818      	bhi.n	8005b24 <UART_SetConfig+0x210>
 8005af2:	2b80      	cmp	r3, #128	; 0x80
 8005af4:	d00a      	beq.n	8005b0c <UART_SetConfig+0x1f8>
 8005af6:	2b80      	cmp	r3, #128	; 0x80
 8005af8:	d814      	bhi.n	8005b24 <UART_SetConfig+0x210>
 8005afa:	2b00      	cmp	r3, #0
 8005afc:	d002      	beq.n	8005b04 <UART_SetConfig+0x1f0>
 8005afe:	2b40      	cmp	r3, #64	; 0x40
 8005b00:	d008      	beq.n	8005b14 <UART_SetConfig+0x200>
 8005b02:	e00f      	b.n	8005b24 <UART_SetConfig+0x210>
 8005b04:	2300      	movs	r3, #0
 8005b06:	f887 302b 	strb.w	r3, [r7, #43]	; 0x2b
 8005b0a:	e082      	b.n	8005c12 <UART_SetConfig+0x2fe>
 8005b0c:	2302      	movs	r3, #2
 8005b0e:	f887 302b 	strb.w	r3, [r7, #43]	; 0x2b
 8005b12:	e07e      	b.n	8005c12 <UART_SetConfig+0x2fe>
 8005b14:	2304      	movs	r3, #4
 8005b16:	f887 302b 	strb.w	r3, [r7, #43]	; 0x2b
 8005b1a:	e07a      	b.n	8005c12 <UART_SetConfig+0x2fe>
 8005b1c:	2308      	movs	r3, #8
 8005b1e:	f887 302b 	strb.w	r3, [r7, #43]	; 0x2b
 8005b22:	e076      	b.n	8005c12 <UART_SetConfig+0x2fe>
 8005b24:	2310      	movs	r3, #16
 8005b26:	f887 302b 	strb.w	r3, [r7, #43]	; 0x2b
 8005b2a:	e072      	b.n	8005c12 <UART_SetConfig+0x2fe>
 8005b2c:	697b      	ldr	r3, [r7, #20]
 8005b2e:	681b      	ldr	r3, [r3, #0]
 8005b30:	4a35      	ldr	r2, [pc, #212]	; (8005c08 <UART_SetConfig+0x2f4>)
 8005b32:	4293      	cmp	r3, r2
 8005b34:	d12a      	bne.n	8005b8c <UART_SetConfig+0x278>
 8005b36:	4b30      	ldr	r3, [pc, #192]	; (8005bf8 <UART_SetConfig+0x2e4>)
 8005b38:	f8d3 3088 	ldr.w	r3, [r3, #136]	; 0x88
 8005b3c:	f403 7340 	and.w	r3, r3, #768	; 0x300
 8005b40:	f5b3 7f40 	cmp.w	r3, #768	; 0x300
 8005b44:	d01a      	beq.n	8005b7c <UART_SetConfig+0x268>
 8005b46:	f5b3 7f40 	cmp.w	r3, #768	; 0x300
 8005b4a:	d81b      	bhi.n	8005b84 <UART_SetConfig+0x270>
 8005b4c:	f5b3 7f00 	cmp.w	r3, #512	; 0x200
 8005b50:	d00c      	beq.n	8005b6c <UART_SetConfig+0x258>
 8005b52:	f5b3 7f00 	cmp.w	r3, #512	; 0x200
 8005b56:	d815      	bhi.n	8005b84 <UART_SetConfig+0x270>
 8005b58:	2b00      	cmp	r3, #0
 8005b5a:	d003      	beq.n	8005b64 <UART_SetConfig+0x250>
 8005b5c:	f5b3 7f80 	cmp.w	r3, #256	; 0x100
 8005b60:	d008      	beq.n	8005b74 <UART_SetConfig+0x260>
 8005b62:	e00f      	b.n	8005b84 <UART_SetConfig+0x270>
 8005b64:	2300      	movs	r3, #0
 8005b66:	f887 302b 	strb.w	r3, [r7, #43]	; 0x2b
 8005b6a:	e052      	b.n	8005c12 <UART_SetConfig+0x2fe>
 8005b6c:	2302      	movs	r3, #2
 8005b6e:	f887 302b 	strb.w	r3, [r7, #43]	; 0x2b
 8005b72:	e04e      	b.n	8005c12 <UART_SetConfig+0x2fe>
 8005b74:	2304      	movs	r3, #4
 8005b76:	f887 302b 	strb.w	r3, [r7, #43]	; 0x2b
 8005b7a:	e04a      	b.n	8005c12 <UART_SetConfig+0x2fe>
 8005b7c:	2308      	movs	r3, #8
 8005b7e:	f887 302b 	strb.w	r3, [r7, #43]	; 0x2b
 8005b82:	e046      	b.n	8005c12 <UART_SetConfig+0x2fe>
 8005b84:	2310      	movs	r3, #16
 8005b86:	f887 302b 	strb.w	r3, [r7, #43]	; 0x2b
 8005b8a:	e042      	b.n	8005c12 <UART_SetConfig+0x2fe>
 8005b8c:	697b      	ldr	r3, [r7, #20]
 8005b8e:	681b      	ldr	r3, [r3, #0]
 8005b90:	4a17      	ldr	r2, [pc, #92]	; (8005bf0 <UART_SetConfig+0x2dc>)
 8005b92:	4293      	cmp	r3, r2
 8005b94:	d13a      	bne.n	8005c0c <UART_SetConfig+0x2f8>
 8005b96:	4b18      	ldr	r3, [pc, #96]	; (8005bf8 <UART_SetConfig+0x2e4>)
 8005b98:	f8d3 3088 	ldr.w	r3, [r3, #136]	; 0x88
 8005b9c:	f403 6340 	and.w	r3, r3, #3072	; 0xc00
 8005ba0:	f5b3 6f40 	cmp.w	r3, #3072	; 0xc00
 8005ba4:	d01a      	beq.n	8005bdc <UART_SetConfig+0x2c8>
 8005ba6:	f5b3 6f40 	cmp.w	r3, #3072	; 0xc00
 8005baa:	d81b      	bhi.n	8005be4 <UART_SetConfig+0x2d0>
 8005bac:	f5b3 6f00 	cmp.w	r3, #2048	; 0x800
 8005bb0:	d00c      	beq.n	8005bcc <UART_SetConfig+0x2b8>
 8005bb2:	f5b3 6f00 	cmp.w	r3, #2048	; 0x800
 8005bb6:	d815      	bhi.n	8005be4 <UART_SetConfig+0x2d0>
 8005bb8:	2b00      	cmp	r3, #0
 8005bba:	d003      	beq.n	8005bc4 <UART_SetConfig+0x2b0>
 8005bbc:	f5b3 6f80 	cmp.w	r3, #1024	; 0x400
 8005bc0:	d008      	beq.n	8005bd4 <UART_SetConfig+0x2c0>
 8005bc2:	e00f      	b.n	8005be4 <UART_SetConfig+0x2d0>
 8005bc4:	2300      	movs	r3, #0
 8005bc6:	f887 302b 	strb.w	r3, [r7, #43]	; 0x2b
 8005bca:	e022      	b.n	8005c12 <UART_SetConfig+0x2fe>
 8005bcc:	2302      	movs	r3, #2
 8005bce:	f887 302b 	strb.w	r3, [r7, #43]	; 0x2b
 8005bd2:	e01e      	b.n	8005c12 <UART_SetConfig+0x2fe>
 8005bd4:	2304      	movs	r3, #4
 8005bd6:	f887 302b 	strb.w	r3, [r7, #43]	; 0x2b
 8005bda:	e01a      	b.n	8005c12 <UART_SetConfig+0x2fe>
 8005bdc:	2308      	movs	r3, #8
 8005bde:	f887 302b 	strb.w	r3, [r7, #43]	; 0x2b
 8005be2:	e016      	b.n	8005c12 <UART_SetConfig+0x2fe>
 8005be4:	2310      	movs	r3, #16
 8005be6:	f887 302b 	strb.w	r3, [r7, #43]	; 0x2b
 8005bea:	e012      	b.n	8005c12 <UART_SetConfig+0x2fe>
 8005bec:	cfff69f3 	.word	0xcfff69f3
 8005bf0:	40008000 	.word	0x40008000
 8005bf4:	40013800 	.word	0x40013800
 8005bf8:	40021000 	.word	0x40021000
 8005bfc:	40004400 	.word	0x40004400
 8005c00:	40004800 	.word	0x40004800
 8005c04:	40004c00 	.word	0x40004c00
 8005c08:	40005000 	.word	0x40005000
 8005c0c:	2310      	movs	r3, #16
 8005c0e:	f887 302b 	strb.w	r3, [r7, #43]	; 0x2b

  /* Check LPUART instance */
  if (UART_INSTANCE_LOWPOWER(huart))
 8005c12:	697b      	ldr	r3, [r7, #20]
 8005c14:	681b      	ldr	r3, [r3, #0]
 8005c16:	4aae      	ldr	r2, [pc, #696]	; (8005ed0 <UART_SetConfig+0x5bc>)
 8005c18:	4293      	cmp	r3, r2
 8005c1a:	f040 8097 	bne.w	8005d4c <UART_SetConfig+0x438>
  {
    /* Retrieve frequency clock */
    switch (clocksource)
 8005c1e:	f897 302b 	ldrb.w	r3, [r7, #43]	; 0x2b
 8005c22:	2b08      	cmp	r3, #8
 8005c24:	d823      	bhi.n	8005c6e <UART_SetConfig+0x35a>
 8005c26:	a201      	add	r2, pc, #4	; (adr r2, 8005c2c <UART_SetConfig+0x318>)
 8005c28:	f852 f023 	ldr.w	pc, [r2, r3, lsl #2]
 8005c2c:	08005c51 	.word	0x08005c51
 8005c30:	08005c6f 	.word	0x08005c6f
 8005c34:	08005c59 	.word	0x08005c59
 8005c38:	08005c6f 	.word	0x08005c6f
 8005c3c:	08005c5f 	.word	0x08005c5f
 8005c40:	08005c6f 	.word	0x08005c6f
 8005c44:	08005c6f 	.word	0x08005c6f
 8005c48:	08005c6f 	.word	0x08005c6f
 8005c4c:	08005c67 	.word	0x08005c67
    {
      case UART_CLOCKSOURCE_PCLK1:
        pclk = HAL_RCC_GetPCLK1Freq();
 8005c50:	f7fe fe28 	bl	80048a4 <HAL_RCC_GetPCLK1Freq>
 8005c54:	6278      	str	r0, [r7, #36]	; 0x24
        break;
 8005c56:	e010      	b.n	8005c7a <UART_SetConfig+0x366>
      case UART_CLOCKSOURCE_HSI:
        pclk = (uint32_t) HSI_VALUE;
 8005c58:	4b9e      	ldr	r3, [pc, #632]	; (8005ed4 <UART_SetConfig+0x5c0>)
 8005c5a:	627b      	str	r3, [r7, #36]	; 0x24
        break;
 8005c5c:	e00d      	b.n	8005c7a <UART_SetConfig+0x366>
      case UART_CLOCKSOURCE_SYSCLK:
        pclk = HAL_RCC_GetSysClockFreq();
 8005c5e:	f7fe fdb3 	bl	80047c8 <HAL_RCC_GetSysClockFreq>
 8005c62:	6278      	str	r0, [r7, #36]	; 0x24
        break;
 8005c64:	e009      	b.n	8005c7a <UART_SetConfig+0x366>
      case UART_CLOCKSOURCE_LSE:
        pclk = (uint32_t) LSE_VALUE;
 8005c66:	f44f 4300 	mov.w	r3, #32768	; 0x8000
 8005c6a:	627b      	str	r3, [r7, #36]	; 0x24
        break;
 8005c6c:	e005      	b.n	8005c7a <UART_SetConfig+0x366>
      default:
        pclk = 0U;
 8005c6e:	2300      	movs	r3, #0
 8005c70:	627b      	str	r3, [r7, #36]	; 0x24
        ret = HAL_ERROR;
 8005c72:	2301      	movs	r3, #1
 8005c74:	f887 302a 	strb.w	r3, [r7, #42]	; 0x2a
        break;
 8005c78:	bf00      	nop
    }

    /* If proper clock source reported */
    if (pclk != 0U)
 8005c7a:	6a7b      	ldr	r3, [r7, #36]	; 0x24
 8005c7c:	2b00      	cmp	r3, #0
 8005c7e:	f000 8130 	beq.w	8005ee2 <UART_SetConfig+0x5ce>
    {
      /* Compute clock after Prescaler */
      lpuart_ker_ck_pres = (pclk / UARTPrescTable[huart->Init.ClockPrescaler]);
 8005c82:	697b      	ldr	r3, [r7, #20]
 8005c84:	6a5b      	ldr	r3, [r3, #36]	; 0x24
 8005c86:	4a94      	ldr	r2, [pc, #592]	; (8005ed8 <UART_SetConfig+0x5c4>)
 8005c88:	f832 3013 	ldrh.w	r3, [r2, r3, lsl #1]
 8005c8c:	461a      	mov	r2, r3
 8005c8e:	6a7b      	ldr	r3, [r7, #36]	; 0x24
 8005c90:	fbb3 f3f2 	udiv	r3, r3, r2
 8005c94:	61bb      	str	r3, [r7, #24]

      /* Ensure that Frequency clock is in the range [3 * baudrate, 4096 * baudrate] */
      if ((lpuart_ker_ck_pres < (3U * huart->Init.BaudRate)) ||
 8005c96:	697b      	ldr	r3, [r7, #20]
 8005c98:	685a      	ldr	r2, [r3, #4]
 8005c9a:	4613      	mov	r3, r2
 8005c9c:	005b      	lsls	r3, r3, #1
 8005c9e:	4413      	add	r3, r2
 8005ca0:	69ba      	ldr	r2, [r7, #24]
 8005ca2:	429a      	cmp	r2, r3
 8005ca4:	d305      	bcc.n	8005cb2 <UART_SetConfig+0x39e>
          (lpuart_ker_ck_pres > (4096U * huart->Init.BaudRate)))
 8005ca6:	697b      	ldr	r3, [r7, #20]
 8005ca8:	685b      	ldr	r3, [r3, #4]
 8005caa:	031b      	lsls	r3, r3, #12
      if ((lpuart_ker_ck_pres < (3U * huart->Init.BaudRate)) ||
 8005cac:	69ba      	ldr	r2, [r7, #24]
 8005cae:	429a      	cmp	r2, r3
 8005cb0:	d903      	bls.n	8005cba <UART_SetConfig+0x3a6>
      {
        ret = HAL_ERROR;
 8005cb2:	2301      	movs	r3, #1
 8005cb4:	f887 302a 	strb.w	r3, [r7, #42]	; 0x2a
 8005cb8:	e113      	b.n	8005ee2 <UART_SetConfig+0x5ce>
      }
      else
      {
        /* Check computed UsartDiv value is in allocated range
           (it is forbidden to write values lower than 0x300 in the LPUART_BRR register) */
        usartdiv = (uint32_t)(UART_DIV_LPUART(pclk, huart->Init.BaudRate, huart->Init.ClockPrescaler));
 8005cba:	6a7b      	ldr	r3, [r7, #36]	; 0x24
 8005cbc:	2200      	movs	r2, #0
 8005cbe:	60bb      	str	r3, [r7, #8]
 8005cc0:	60fa      	str	r2, [r7, #12]
 8005cc2:	697b      	ldr	r3, [r7, #20]
 8005cc4:	6a5b      	ldr	r3, [r3, #36]	; 0x24
 8005cc6:	4a84      	ldr	r2, [pc, #528]	; (8005ed8 <UART_SetConfig+0x5c4>)
 8005cc8:	f832 3013 	ldrh.w	r3, [r2, r3, lsl #1]
 8005ccc:	b29b      	uxth	r3, r3
 8005cce:	2200      	movs	r2, #0
 8005cd0:	603b      	str	r3, [r7, #0]
 8005cd2:	607a      	str	r2, [r7, #4]
 8005cd4:	e9d7 2300 	ldrd	r2, r3, [r7]
 8005cd8:	e9d7 0102 	ldrd	r0, r1, [r7, #8]
 8005cdc:	f7fa faf0 	bl	80002c0 <__aeabi_uldivmod>
 8005ce0:	4602      	mov	r2, r0
 8005ce2:	460b      	mov	r3, r1
 8005ce4:	4610      	mov	r0, r2
 8005ce6:	4619      	mov	r1, r3
 8005ce8:	f04f 0200 	mov.w	r2, #0
 8005cec:	f04f 0300 	mov.w	r3, #0
 8005cf0:	020b      	lsls	r3, r1, #8
 8005cf2:	ea43 6310 	orr.w	r3, r3, r0, lsr #24
 8005cf6:	0202      	lsls	r2, r0, #8
 8005cf8:	6979      	ldr	r1, [r7, #20]
 8005cfa:	6849      	ldr	r1, [r1, #4]
 8005cfc:	0849      	lsrs	r1, r1, #1
 8005cfe:	2000      	movs	r0, #0
 8005d00:	460c      	mov	r4, r1
 8005d02:	4605      	mov	r5, r0
 8005d04:	eb12 0804 	adds.w	r8, r2, r4
 8005d08:	eb43 0905 	adc.w	r9, r3, r5
 8005d0c:	697b      	ldr	r3, [r7, #20]
 8005d0e:	685b      	ldr	r3, [r3, #4]
 8005d10:	2200      	movs	r2, #0
 8005d12:	469a      	mov	sl, r3
 8005d14:	4693      	mov	fp, r2
 8005d16:	4652      	mov	r2, sl
 8005d18:	465b      	mov	r3, fp
 8005d1a:	4640      	mov	r0, r8
 8005d1c:	4649      	mov	r1, r9
 8005d1e:	f7fa facf 	bl	80002c0 <__aeabi_uldivmod>
 8005d22:	4602      	mov	r2, r0
 8005d24:	460b      	mov	r3, r1
 8005d26:	4613      	mov	r3, r2
 8005d28:	623b      	str	r3, [r7, #32]
        if ((usartdiv >= LPUART_BRR_MIN) && (usartdiv <= LPUART_BRR_MAX))
 8005d2a:	6a3b      	ldr	r3, [r7, #32]
 8005d2c:	f5b3 7f40 	cmp.w	r3, #768	; 0x300
 8005d30:	d308      	bcc.n	8005d44 <UART_SetConfig+0x430>
 8005d32:	6a3b      	ldr	r3, [r7, #32]
 8005d34:	f5b3 1f80 	cmp.w	r3, #1048576	; 0x100000
 8005d38:	d204      	bcs.n	8005d44 <UART_SetConfig+0x430>
        {
          huart->Instance->BRR = usartdiv;
 8005d3a:	697b      	ldr	r3, [r7, #20]
 8005d3c:	681b      	ldr	r3, [r3, #0]
 8005d3e:	6a3a      	ldr	r2, [r7, #32]
 8005d40:	60da      	str	r2, [r3, #12]
 8005d42:	e0ce      	b.n	8005ee2 <UART_SetConfig+0x5ce>
        }
        else
        {
          ret = HAL_ERROR;
 8005d44:	2301      	movs	r3, #1
 8005d46:	f887 302a 	strb.w	r3, [r7, #42]	; 0x2a
 8005d4a:	e0ca      	b.n	8005ee2 <UART_SetConfig+0x5ce>
      } /* if ( (lpuart_ker_ck_pres < (3 * huart->Init.BaudRate) ) ||
                (lpuart_ker_ck_pres > (4096 * huart->Init.BaudRate) )) */
    } /* if (pclk != 0) */
  }
  /* Check UART Over Sampling to set Baud Rate Register */
  else if (huart->Init.OverSampling == UART_OVERSAMPLING_8)
 8005d4c:	697b      	ldr	r3, [r7, #20]
 8005d4e:	69db      	ldr	r3, [r3, #28]
 8005d50:	f5b3 4f00 	cmp.w	r3, #32768	; 0x8000
 8005d54:	d166      	bne.n	8005e24 <UART_SetConfig+0x510>
  {
    switch (clocksource)
 8005d56:	f897 302b 	ldrb.w	r3, [r7, #43]	; 0x2b
 8005d5a:	2b08      	cmp	r3, #8
 8005d5c:	d827      	bhi.n	8005dae <UART_SetConfig+0x49a>
 8005d5e:	a201      	add	r2, pc, #4	; (adr r2, 8005d64 <UART_SetConfig+0x450>)
 8005d60:	f852 f023 	ldr.w	pc, [r2, r3, lsl #2]
 8005d64:	08005d89 	.word	0x08005d89
 8005d68:	08005d91 	.word	0x08005d91
 8005d6c:	08005d99 	.word	0x08005d99
 8005d70:	08005daf 	.word	0x08005daf
 8005d74:	08005d9f 	.word	0x08005d9f
 8005d78:	08005daf 	.word	0x08005daf
 8005d7c:	08005daf 	.word	0x08005daf
 8005d80:	08005daf 	.word	0x08005daf
 8005d84:	08005da7 	.word	0x08005da7
    {
      case UART_CLOCKSOURCE_PCLK1:
        pclk = HAL_RCC_GetPCLK1Freq();
 8005d88:	f7fe fd8c 	bl	80048a4 <HAL_RCC_GetPCLK1Freq>
 8005d8c:	6278      	str	r0, [r7, #36]	; 0x24
        break;
 8005d8e:	e014      	b.n	8005dba <UART_SetConfig+0x4a6>
      case UART_CLOCKSOURCE_PCLK2:
        pclk = HAL_RCC_GetPCLK2Freq();
 8005d90:	f7fe fd9e 	bl	80048d0 <HAL_RCC_GetPCLK2Freq>
 8005d94:	6278      	str	r0, [r7, #36]	; 0x24
        break;
 8005d96:	e010      	b.n	8005dba <UART_SetConfig+0x4a6>
      case UART_CLOCKSOURCE_HSI:
        pclk = (uint32_t) HSI_VALUE;
 8005d98:	4b4e      	ldr	r3, [pc, #312]	; (8005ed4 <UART_SetConfig+0x5c0>)
 8005d9a:	627b      	str	r3, [r7, #36]	; 0x24
        break;
 8005d9c:	e00d      	b.n	8005dba <UART_SetConfig+0x4a6>
      case UART_CLOCKSOURCE_SYSCLK:
        pclk = HAL_RCC_GetSysClockFreq();
 8005d9e:	f7fe fd13 	bl	80047c8 <HAL_RCC_GetSysClockFreq>
 8005da2:	6278      	str	r0, [r7, #36]	; 0x24
        break;
 8005da4:	e009      	b.n	8005dba <UART_SetConfig+0x4a6>
      case UART_CLOCKSOURCE_LSE:
        pclk = (uint32_t) LSE_VALUE;
 8005da6:	f44f 4300 	mov.w	r3, #32768	; 0x8000
 8005daa:	627b      	str	r3, [r7, #36]	; 0x24
        break;
 8005dac:	e005      	b.n	8005dba <UART_SetConfig+0x4a6>
      default:
        pclk = 0U;
 8005dae:	2300      	movs	r3, #0
 8005db0:	627b      	str	r3, [r7, #36]	; 0x24
        ret = HAL_ERROR;
 8005db2:	2301      	movs	r3, #1
 8005db4:	f887 302a 	strb.w	r3, [r7, #42]	; 0x2a
        break;
 8005db8:	bf00      	nop
    }

    /* USARTDIV must be greater than or equal to 0d16 */
    if (pclk != 0U)
 8005dba:	6a7b      	ldr	r3, [r7, #36]	; 0x24
 8005dbc:	2b00      	cmp	r3, #0
 8005dbe:	f000 8090 	beq.w	8005ee2 <UART_SetConfig+0x5ce>
    {
      usartdiv = (uint32_t)(UART_DIV_SAMPLING8(pclk, huart->Init.BaudRate, huart->Init.ClockPrescaler));
 8005dc2:	697b      	ldr	r3, [r7, #20]
 8005dc4:	6a5b      	ldr	r3, [r3, #36]	; 0x24
 8005dc6:	4a44      	ldr	r2, [pc, #272]	; (8005ed8 <UART_SetConfig+0x5c4>)
 8005dc8:	f832 3013 	ldrh.w	r3, [r2, r3, lsl #1]
 8005dcc:	461a      	mov	r2, r3
 8005dce:	6a7b      	ldr	r3, [r7, #36]	; 0x24
 8005dd0:	fbb3 f3f2 	udiv	r3, r3, r2
 8005dd4:	005a      	lsls	r2, r3, #1
 8005dd6:	697b      	ldr	r3, [r7, #20]
 8005dd8:	685b      	ldr	r3, [r3, #4]
 8005dda:	085b      	lsrs	r3, r3, #1
 8005ddc:	441a      	add	r2, r3
 8005dde:	697b      	ldr	r3, [r7, #20]
 8005de0:	685b      	ldr	r3, [r3, #4]
 8005de2:	fbb2 f3f3 	udiv	r3, r2, r3
 8005de6:	623b      	str	r3, [r7, #32]
      if ((usartdiv >= UART_BRR_MIN) && (usartdiv <= UART_BRR_MAX))
 8005de8:	6a3b      	ldr	r3, [r7, #32]
 8005dea:	2b0f      	cmp	r3, #15
 8005dec:	d916      	bls.n	8005e1c <UART_SetConfig+0x508>
 8005dee:	6a3b      	ldr	r3, [r7, #32]
 8005df0:	f5b3 3f80 	cmp.w	r3, #65536	; 0x10000
 8005df4:	d212      	bcs.n	8005e1c <UART_SetConfig+0x508>
      {
        brrtemp = (uint16_t)(usartdiv & 0xFFF0U);
 8005df6:	6a3b      	ldr	r3, [r7, #32]
 8005df8:	b29b      	uxth	r3, r3
 8005dfa:	f023 030f 	bic.w	r3, r3, #15
 8005dfe:	83fb      	strh	r3, [r7, #30]
        brrtemp |= (uint16_t)((usartdiv & (uint16_t)0x000FU) >> 1U);
 8005e00:	6a3b      	ldr	r3, [r7, #32]
 8005e02:	085b      	lsrs	r3, r3, #1
 8005e04:	b29b      	uxth	r3, r3
 8005e06:	f003 0307 	and.w	r3, r3, #7
 8005e0a:	b29a      	uxth	r2, r3
 8005e0c:	8bfb      	ldrh	r3, [r7, #30]
 8005e0e:	4313      	orrs	r3, r2
 8005e10:	83fb      	strh	r3, [r7, #30]
        huart->Instance->BRR = brrtemp;
 8005e12:	697b      	ldr	r3, [r7, #20]
 8005e14:	681b      	ldr	r3, [r3, #0]
 8005e16:	8bfa      	ldrh	r2, [r7, #30]
 8005e18:	60da      	str	r2, [r3, #12]
 8005e1a:	e062      	b.n	8005ee2 <UART_SetConfig+0x5ce>
      }
      else
      {
        ret = HAL_ERROR;
 8005e1c:	2301      	movs	r3, #1
 8005e1e:	f887 302a 	strb.w	r3, [r7, #42]	; 0x2a
 8005e22:	e05e      	b.n	8005ee2 <UART_SetConfig+0x5ce>
      }
    }
  }
  else
  {
    switch (clocksource)
 8005e24:	f897 302b 	ldrb.w	r3, [r7, #43]	; 0x2b
 8005e28:	2b08      	cmp	r3, #8
 8005e2a:	d828      	bhi.n	8005e7e <UART_SetConfig+0x56a>
 8005e2c:	a201      	add	r2, pc, #4	; (adr r2, 8005e34 <UART_SetConfig+0x520>)
 8005e2e:	f852 f023 	ldr.w	pc, [r2, r3, lsl #2]
 8005e32:	bf00      	nop
 8005e34:	08005e59 	.word	0x08005e59
 8005e38:	08005e61 	.word	0x08005e61
 8005e3c:	08005e69 	.word	0x08005e69
 8005e40:	08005e7f 	.word	0x08005e7f
 8005e44:	08005e6f 	.word	0x08005e6f
 8005e48:	08005e7f 	.word	0x08005e7f
 8005e4c:	08005e7f 	.word	0x08005e7f
 8005e50:	08005e7f 	.word	0x08005e7f
 8005e54:	08005e77 	.word	0x08005e77
    {
      case UART_CLOCKSOURCE_PCLK1:
        pclk = HAL_RCC_GetPCLK1Freq();
 8005e58:	f7fe fd24 	bl	80048a4 <HAL_RCC_GetPCLK1Freq>
 8005e5c:	6278      	str	r0, [r7, #36]	; 0x24
        break;
 8005e5e:	e014      	b.n	8005e8a <UART_SetConfig+0x576>
      case UART_CLOCKSOURCE_PCLK2:
        pclk = HAL_RCC_GetPCLK2Freq();
 8005e60:	f7fe fd36 	bl	80048d0 <HAL_RCC_GetPCLK2Freq>
 8005e64:	6278      	str	r0, [r7, #36]	; 0x24
        break;
 8005e66:	e010      	b.n	8005e8a <UART_SetConfig+0x576>
      case UART_CLOCKSOURCE_HSI:
        pclk = (uint32_t) HSI_VALUE;
 8005e68:	4b1a      	ldr	r3, [pc, #104]	; (8005ed4 <UART_SetConfig+0x5c0>)
 8005e6a:	627b      	str	r3, [r7, #36]	; 0x24
        break;
 8005e6c:	e00d      	b.n	8005e8a <UART_SetConfig+0x576>
      case UART_CLOCKSOURCE_SYSCLK:
        pclk = HAL_RCC_GetSysClockFreq();
 8005e6e:	f7fe fcab 	bl	80047c8 <HAL_RCC_GetSysClockFreq>
 8005e72:	6278      	str	r0, [r7, #36]	; 0x24
        break;
 8005e74:	e009      	b.n	8005e8a <UART_SetConfig+0x576>
      case UART_CLOCKSOURCE_LSE:
        pclk = (uint32_t) LSE_VALUE;
 8005e76:	f44f 4300 	mov.w	r3, #32768	; 0x8000
 8005e7a:	627b      	str	r3, [r7, #36]	; 0x24
        break;
 8005e7c:	e005      	b.n	8005e8a <UART_SetConfig+0x576>
      default:
        pclk = 0U;
 8005e7e:	2300      	movs	r3, #0
 8005e80:	627b      	str	r3, [r7, #36]	; 0x24
        ret = HAL_ERROR;
 8005e82:	2301      	movs	r3, #1
 8005e84:	f887 302a 	strb.w	r3, [r7, #42]	; 0x2a
        break;
 8005e88:	bf00      	nop
    }

    if (pclk != 0U)
 8005e8a:	6a7b      	ldr	r3, [r7, #36]	; 0x24
 8005e8c:	2b00      	cmp	r3, #0
 8005e8e:	d028      	beq.n	8005ee2 <UART_SetConfig+0x5ce>
    {
      /* USARTDIV must be greater than or equal to 0d16 */
      usartdiv = (uint32_t)(UART_DIV_SAMPLING16(pclk, huart->Init.BaudRate, huart->Init.ClockPrescaler));
 8005e90:	697b      	ldr	r3, [r7, #20]
 8005e92:	6a5b      	ldr	r3, [r3, #36]	; 0x24
 8005e94:	4a10      	ldr	r2, [pc, #64]	; (8005ed8 <UART_SetConfig+0x5c4>)
 8005e96:	f832 3013 	ldrh.w	r3, [r2, r3, lsl #1]
 8005e9a:	461a      	mov	r2, r3
 8005e9c:	6a7b      	ldr	r3, [r7, #36]	; 0x24
 8005e9e:	fbb3 f2f2 	udiv	r2, r3, r2
 8005ea2:	697b      	ldr	r3, [r7, #20]
 8005ea4:	685b      	ldr	r3, [r3, #4]
 8005ea6:	085b      	lsrs	r3, r3, #1
 8005ea8:	441a      	add	r2, r3
 8005eaa:	697b      	ldr	r3, [r7, #20]
 8005eac:	685b      	ldr	r3, [r3, #4]
 8005eae:	fbb2 f3f3 	udiv	r3, r2, r3
 8005eb2:	623b      	str	r3, [r7, #32]
      if ((usartdiv >= UART_BRR_MIN) && (usartdiv <= UART_BRR_MAX))
 8005eb4:	6a3b      	ldr	r3, [r7, #32]
 8005eb6:	2b0f      	cmp	r3, #15
 8005eb8:	d910      	bls.n	8005edc <UART_SetConfig+0x5c8>
 8005eba:	6a3b      	ldr	r3, [r7, #32]
 8005ebc:	f5b3 3f80 	cmp.w	r3, #65536	; 0x10000
 8005ec0:	d20c      	bcs.n	8005edc <UART_SetConfig+0x5c8>
      {
        huart->Instance->BRR = (uint16_t)usartdiv;
 8005ec2:	6a3b      	ldr	r3, [r7, #32]
 8005ec4:	b29a      	uxth	r2, r3
 8005ec6:	697b      	ldr	r3, [r7, #20]
 8005ec8:	681b      	ldr	r3, [r3, #0]
 8005eca:	60da      	str	r2, [r3, #12]
 8005ecc:	e009      	b.n	8005ee2 <UART_SetConfig+0x5ce>
 8005ece:	bf00      	nop
 8005ed0:	40008000 	.word	0x40008000
 8005ed4:	00f42400 	.word	0x00f42400
 8005ed8:	0800754c 	.word	0x0800754c
      }
      else
      {
        ret = HAL_ERROR;
 8005edc:	2301      	movs	r3, #1
 8005ede:	f887 302a 	strb.w	r3, [r7, #42]	; 0x2a
      }
    }
  }

  /* Initialize the number of data to process during RX/TX ISR execution */
  huart->NbTxDataToProcess = 1;
 8005ee2:	697b      	ldr	r3, [r7, #20]
 8005ee4:	2201      	movs	r2, #1
 8005ee6:	f8a3 206a 	strh.w	r2, [r3, #106]	; 0x6a
  huart->NbRxDataToProcess = 1;
 8005eea:	697b      	ldr	r3, [r7, #20]
 8005eec:	2201      	movs	r2, #1
 8005eee:	f8a3 2068 	strh.w	r2, [r3, #104]	; 0x68

  /* Clear ISR function pointers */
  huart->RxISR = NULL;
 8005ef2:	697b      	ldr	r3, [r7, #20]
 8005ef4:	2200      	movs	r2, #0
 8005ef6:	675a      	str	r2, [r3, #116]	; 0x74
  huart->TxISR = NULL;
 8005ef8:	697b      	ldr	r3, [r7, #20]
 8005efa:	2200      	movs	r2, #0
 8005efc:	679a      	str	r2, [r3, #120]	; 0x78

  return ret;
 8005efe:	f897 302a 	ldrb.w	r3, [r7, #42]	; 0x2a
}
 8005f02:	4618      	mov	r0, r3
 8005f04:	3730      	adds	r7, #48	; 0x30
 8005f06:	46bd      	mov	sp, r7
 8005f08:	e8bd 8fb0 	ldmia.w	sp!, {r4, r5, r7, r8, r9, sl, fp, pc}

08005f0c <UART_AdvFeatureConfig>:
  * @brief Configure the UART peripheral advanced features.
  * @param huart UART handle.
  * @retval None
  */
void UART_AdvFeatureConfig(UART_HandleTypeDef *huart)
{
 8005f0c:	b480      	push	{r7}
 8005f0e:	b083      	sub	sp, #12
 8005f10:	af00      	add	r7, sp, #0
 8005f12:	6078      	str	r0, [r7, #4]
  /* Check whether the set of advanced features to configure is properly set */
  assert_param(IS_UART_ADVFEATURE_INIT(huart->AdvancedInit.AdvFeatureInit));

  /* if required, configure RX/TX pins swap */
  if (HAL_IS_BIT_SET(huart->AdvancedInit.AdvFeatureInit, UART_ADVFEATURE_SWAP_INIT))
 8005f14:	687b      	ldr	r3, [r7, #4]
 8005f16:	6a9b      	ldr	r3, [r3, #40]	; 0x28
 8005f18:	f003 0308 	and.w	r3, r3, #8
 8005f1c:	2b00      	cmp	r3, #0
 8005f1e:	d00a      	beq.n	8005f36 <UART_AdvFeatureConfig+0x2a>
  {
    assert_param(IS_UART_ADVFEATURE_SWAP(huart->AdvancedInit.Swap));
    MODIFY_REG(huart->Instance->CR2, USART_CR2_SWAP, huart->AdvancedInit.Swap);
 8005f20:	687b      	ldr	r3, [r7, #4]
 8005f22:	681b      	ldr	r3, [r3, #0]
 8005f24:	685b      	ldr	r3, [r3, #4]
 8005f26:	f423 4100 	bic.w	r1, r3, #32768	; 0x8000
 8005f2a:	687b      	ldr	r3, [r7, #4]
 8005f2c:	6b9a      	ldr	r2, [r3, #56]	; 0x38
 8005f2e:	687b      	ldr	r3, [r7, #4]
 8005f30:	681b      	ldr	r3, [r3, #0]
 8005f32:	430a      	orrs	r2, r1
 8005f34:	605a      	str	r2, [r3, #4]
  }

  /* if required, configure TX pin active level inversion */
  if (HAL_IS_BIT_SET(huart->AdvancedInit.AdvFeatureInit, UART_ADVFEATURE_TXINVERT_INIT))
 8005f36:	687b      	ldr	r3, [r7, #4]
 8005f38:	6a9b      	ldr	r3, [r3, #40]	; 0x28
 8005f3a:	f003 0301 	and.w	r3, r3, #1
 8005f3e:	2b00      	cmp	r3, #0
 8005f40:	d00a      	beq.n	8005f58 <UART_AdvFeatureConfig+0x4c>
  {
    assert_param(IS_UART_ADVFEATURE_TXINV(huart->AdvancedInit.TxPinLevelInvert));
    MODIFY_REG(huart->Instance->CR2, USART_CR2_TXINV, huart->AdvancedInit.TxPinLevelInvert);
 8005f42:	687b      	ldr	r3, [r7, #4]
 8005f44:	681b      	ldr	r3, [r3, #0]
 8005f46:	685b      	ldr	r3, [r3, #4]
 8005f48:	f423 3100 	bic.w	r1, r3, #131072	; 0x20000
 8005f4c:	687b      	ldr	r3, [r7, #4]
 8005f4e:	6ada      	ldr	r2, [r3, #44]	; 0x2c
 8005f50:	687b      	ldr	r3, [r7, #4]
 8005f52:	681b      	ldr	r3, [r3, #0]
 8005f54:	430a      	orrs	r2, r1
 8005f56:	605a      	str	r2, [r3, #4]
  }

  /* if required, configure RX pin active level inversion */
  if (HAL_IS_BIT_SET(huart->AdvancedInit.AdvFeatureInit, UART_ADVFEATURE_RXINVERT_INIT))
 8005f58:	687b      	ldr	r3, [r7, #4]
 8005f5a:	6a9b      	ldr	r3, [r3, #40]	; 0x28
 8005f5c:	f003 0302 	and.w	r3, r3, #2
 8005f60:	2b00      	cmp	r3, #0
 8005f62:	d00a      	beq.n	8005f7a <UART_AdvFeatureConfig+0x6e>
  {
    assert_param(IS_UART_ADVFEATURE_RXINV(huart->AdvancedInit.RxPinLevelInvert));
    MODIFY_REG(huart->Instance->CR2, USART_CR2_RXINV, huart->AdvancedInit.RxPinLevelInvert);
 8005f64:	687b      	ldr	r3, [r7, #4]
 8005f66:	681b      	ldr	r3, [r3, #0]
 8005f68:	685b      	ldr	r3, [r3, #4]
 8005f6a:	f423 3180 	bic.w	r1, r3, #65536	; 0x10000
 8005f6e:	687b      	ldr	r3, [r7, #4]
 8005f70:	6b1a      	ldr	r2, [r3, #48]	; 0x30
 8005f72:	687b      	ldr	r3, [r7, #4]
 8005f74:	681b      	ldr	r3, [r3, #0]
 8005f76:	430a      	orrs	r2, r1
 8005f78:	605a      	str	r2, [r3, #4]
  }

  /* if required, configure data inversion */
  if (HAL_IS_BIT_SET(huart->AdvancedInit.AdvFeatureInit, UART_ADVFEATURE_DATAINVERT_INIT))
 8005f7a:	687b      	ldr	r3, [r7, #4]
 8005f7c:	6a9b      	ldr	r3, [r3, #40]	; 0x28
 8005f7e:	f003 0304 	and.w	r3, r3, #4
 8005f82:	2b00      	cmp	r3, #0
 8005f84:	d00a      	beq.n	8005f9c <UART_AdvFeatureConfig+0x90>
  {
    assert_param(IS_UART_ADVFEATURE_DATAINV(huart->AdvancedInit.DataInvert));
    MODIFY_REG(huart->Instance->CR2, USART_CR2_DATAINV, huart->AdvancedInit.DataInvert);
 8005f86:	687b      	ldr	r3, [r7, #4]
 8005f88:	681b      	ldr	r3, [r3, #0]
 8005f8a:	685b      	ldr	r3, [r3, #4]
 8005f8c:	f423 2180 	bic.w	r1, r3, #262144	; 0x40000
 8005f90:	687b      	ldr	r3, [r7, #4]
 8005f92:	6b5a      	ldr	r2, [r3, #52]	; 0x34
 8005f94:	687b      	ldr	r3, [r7, #4]
 8005f96:	681b      	ldr	r3, [r3, #0]
 8005f98:	430a      	orrs	r2, r1
 8005f9a:	605a      	str	r2, [r3, #4]
  }

  /* if required, configure RX overrun detection disabling */
  if (HAL_IS_BIT_SET(huart->AdvancedInit.AdvFeatureInit, UART_ADVFEATURE_RXOVERRUNDISABLE_INIT))
 8005f9c:	687b      	ldr	r3, [r7, #4]
 8005f9e:	6a9b      	ldr	r3, [r3, #40]	; 0x28
 8005fa0:	f003 0310 	and.w	r3, r3, #16
 8005fa4:	2b00      	cmp	r3, #0
 8005fa6:	d00a      	beq.n	8005fbe <UART_AdvFeatureConfig+0xb2>
  {
    assert_param(IS_UART_OVERRUN(huart->AdvancedInit.OverrunDisable));
    MODIFY_REG(huart->Instance->CR3, USART_CR3_OVRDIS, huart->AdvancedInit.OverrunDisable);
 8005fa8:	687b      	ldr	r3, [r7, #4]
 8005faa:	681b      	ldr	r3, [r3, #0]
 8005fac:	689b      	ldr	r3, [r3, #8]
 8005fae:	f423 5180 	bic.w	r1, r3, #4096	; 0x1000
 8005fb2:	687b      	ldr	r3, [r7, #4]
 8005fb4:	6bda      	ldr	r2, [r3, #60]	; 0x3c
 8005fb6:	687b      	ldr	r3, [r7, #4]
 8005fb8:	681b      	ldr	r3, [r3, #0]
 8005fba:	430a      	orrs	r2, r1
 8005fbc:	609a      	str	r2, [r3, #8]
  }

  /* if required, configure DMA disabling on reception error */
  if (HAL_IS_BIT_SET(huart->AdvancedInit.AdvFeatureInit, UART_ADVFEATURE_DMADISABLEONERROR_INIT))
 8005fbe:	687b      	ldr	r3, [r7, #4]
 8005fc0:	6a9b      	ldr	r3, [r3, #40]	; 0x28
 8005fc2:	f003 0320 	and.w	r3, r3, #32
 8005fc6:	2b00      	cmp	r3, #0
 8005fc8:	d00a      	beq.n	8005fe0 <UART_AdvFeatureConfig+0xd4>
  {
    assert_param(IS_UART_ADVFEATURE_DMAONRXERROR(huart->AdvancedInit.DMADisableonRxError));
    MODIFY_REG(huart->Instance->CR3, USART_CR3_DDRE, huart->AdvancedInit.DMADisableonRxError);
 8005fca:	687b      	ldr	r3, [r7, #4]
 8005fcc:	681b      	ldr	r3, [r3, #0]
 8005fce:	689b      	ldr	r3, [r3, #8]
 8005fd0:	f423 5100 	bic.w	r1, r3, #8192	; 0x2000
 8005fd4:	687b      	ldr	r3, [r7, #4]
 8005fd6:	6c1a      	ldr	r2, [r3, #64]	; 0x40
 8005fd8:	687b      	ldr	r3, [r7, #4]
 8005fda:	681b      	ldr	r3, [r3, #0]
 8005fdc:	430a      	orrs	r2, r1
 8005fde:	609a      	str	r2, [r3, #8]
  }

  /* if required, configure auto Baud rate detection scheme */
  if (HAL_IS_BIT_SET(huart->AdvancedInit.AdvFeatureInit, UART_ADVFEATURE_AUTOBAUDRATE_INIT))
 8005fe0:	687b      	ldr	r3, [r7, #4]
 8005fe2:	6a9b      	ldr	r3, [r3, #40]	; 0x28
 8005fe4:	f003 0340 	and.w	r3, r3, #64	; 0x40
 8005fe8:	2b00      	cmp	r3, #0
 8005fea:	d01a      	beq.n	8006022 <UART_AdvFeatureConfig+0x116>
  {
    assert_param(IS_USART_AUTOBAUDRATE_DETECTION_INSTANCE(huart->Instance));
    assert_param(IS_UART_ADVFEATURE_AUTOBAUDRATE(huart->AdvancedInit.AutoBaudRateEnable));
    MODIFY_REG(huart->Instance->CR2, USART_CR2_ABREN, huart->AdvancedInit.AutoBaudRateEnable);
 8005fec:	687b      	ldr	r3, [r7, #4]
 8005fee:	681b      	ldr	r3, [r3, #0]
 8005ff0:	685b      	ldr	r3, [r3, #4]
 8005ff2:	f423 1180 	bic.w	r1, r3, #1048576	; 0x100000
 8005ff6:	687b      	ldr	r3, [r7, #4]
 8005ff8:	6c5a      	ldr	r2, [r3, #68]	; 0x44
 8005ffa:	687b      	ldr	r3, [r7, #4]
 8005ffc:	681b      	ldr	r3, [r3, #0]
 8005ffe:	430a      	orrs	r2, r1
 8006000:	605a      	str	r2, [r3, #4]
    /* set auto Baudrate detection parameters if detection is enabled */
    if (huart->AdvancedInit.AutoBaudRateEnable == UART_ADVFEATURE_AUTOBAUDRATE_ENABLE)
 8006002:	687b      	ldr	r3, [r7, #4]
 8006004:	6c5b      	ldr	r3, [r3, #68]	; 0x44
 8006006:	f5b3 1f80 	cmp.w	r3, #1048576	; 0x100000
 800600a:	d10a      	bne.n	8006022 <UART_AdvFeatureConfig+0x116>
    {
      assert_param(IS_UART_ADVFEATURE_AUTOBAUDRATEMODE(huart->AdvancedInit.AutoBaudRateMode));
      MODIFY_REG(huart->Instance->CR2, USART_CR2_ABRMODE, huart->AdvancedInit.AutoBaudRateMode);
 800600c:	687b      	ldr	r3, [r7, #4]
 800600e:	681b      	ldr	r3, [r3, #0]
 8006010:	685b      	ldr	r3, [r3, #4]
 8006012:	f423 01c0 	bic.w	r1, r3, #6291456	; 0x600000
 8006016:	687b      	ldr	r3, [r7, #4]
 8006018:	6c9a      	ldr	r2, [r3, #72]	; 0x48
 800601a:	687b      	ldr	r3, [r7, #4]
 800601c:	681b      	ldr	r3, [r3, #0]
 800601e:	430a      	orrs	r2, r1
 8006020:	605a      	str	r2, [r3, #4]
    }
  }

  /* if required, configure MSB first on communication line */
  if (HAL_IS_BIT_SET(huart->AdvancedInit.AdvFeatureInit, UART_ADVFEATURE_MSBFIRST_INIT))
 8006022:	687b      	ldr	r3, [r7, #4]
 8006024:	6a9b      	ldr	r3, [r3, #40]	; 0x28
 8006026:	f003 0380 	and.w	r3, r3, #128	; 0x80
 800602a:	2b00      	cmp	r3, #0
 800602c:	d00a      	beq.n	8006044 <UART_AdvFeatureConfig+0x138>
  {
    assert_param(IS_UART_ADVFEATURE_MSBFIRST(huart->AdvancedInit.MSBFirst));
    MODIFY_REG(huart->Instance->CR2, USART_CR2_MSBFIRST, huart->AdvancedInit.MSBFirst);
 800602e:	687b      	ldr	r3, [r7, #4]
 8006030:	681b      	ldr	r3, [r3, #0]
 8006032:	685b      	ldr	r3, [r3, #4]
 8006034:	f423 2100 	bic.w	r1, r3, #524288	; 0x80000
 8006038:	687b      	ldr	r3, [r7, #4]
 800603a:	6cda      	ldr	r2, [r3, #76]	; 0x4c
 800603c:	687b      	ldr	r3, [r7, #4]
 800603e:	681b      	ldr	r3, [r3, #0]
 8006040:	430a      	orrs	r2, r1
 8006042:	605a      	str	r2, [r3, #4]
  }
}
 8006044:	bf00      	nop
 8006046:	370c      	adds	r7, #12
 8006048:	46bd      	mov	sp, r7
 800604a:	f85d 7b04 	ldr.w	r7, [sp], #4
 800604e:	4770      	bx	lr

08006050 <UART_CheckIdleState>:
  * @brief Check the UART Idle State.
  * @param huart UART handle.
  * @retval HAL status
  */
HAL_StatusTypeDef UART_CheckIdleState(UART_HandleTypeDef *huart)
{
 8006050:	b580      	push	{r7, lr}
 8006052:	b098      	sub	sp, #96	; 0x60
 8006054:	af02      	add	r7, sp, #8
 8006056:	6078      	str	r0, [r7, #4]
  uint32_t tickstart;

  /* Initialize the UART ErrorCode */
  huart->ErrorCode = HAL_UART_ERROR_NONE;
 8006058:	687b      	ldr	r3, [r7, #4]
 800605a:	2200      	movs	r2, #0
 800605c:	f8c3 2090 	str.w	r2, [r3, #144]	; 0x90

  /* Init tickstart for timeout management */
  tickstart = HAL_GetTick();
 8006060:	f7fb fb3c 	bl	80016dc <HAL_GetTick>
 8006064:	6578      	str	r0, [r7, #84]	; 0x54

  /* Check if the Transmitter is enabled */
  if ((huart->Instance->CR1 & USART_CR1_TE) == USART_CR1_TE)
 8006066:	687b      	ldr	r3, [r7, #4]
 8006068:	681b      	ldr	r3, [r3, #0]
 800606a:	681b      	ldr	r3, [r3, #0]
 800606c:	f003 0308 	and.w	r3, r3, #8
 8006070:	2b08      	cmp	r3, #8
 8006072:	d12f      	bne.n	80060d4 <UART_CheckIdleState+0x84>
  {
    /* Wait until TEACK flag is set */
    if (UART_WaitOnFlagUntilTimeout(huart, USART_ISR_TEACK, RESET, tickstart, HAL_UART_TIMEOUT_VALUE) != HAL_OK)
 8006074:	f06f 437e 	mvn.w	r3, #4261412864	; 0xfe000000
 8006078:	9300      	str	r3, [sp, #0]
 800607a:	6d7b      	ldr	r3, [r7, #84]	; 0x54
 800607c:	2200      	movs	r2, #0
 800607e:	f44f 1100 	mov.w	r1, #2097152	; 0x200000
 8006082:	6878      	ldr	r0, [r7, #4]
 8006084:	f000 f88e 	bl	80061a4 <UART_WaitOnFlagUntilTimeout>
 8006088:	4603      	mov	r3, r0
 800608a:	2b00      	cmp	r3, #0
 800608c:	d022      	beq.n	80060d4 <UART_CheckIdleState+0x84>
    {
      /* Disable TXE interrupt for the interrupt process */
      ATOMIC_CLEAR_BIT(huart->Instance->CR1, (USART_CR1_TXEIE_TXFNFIE));
 800608e:	687b      	ldr	r3, [r7, #4]
 8006090:	681b      	ldr	r3, [r3, #0]
 8006092:	63bb      	str	r3, [r7, #56]	; 0x38
 */
__STATIC_FORCEINLINE uint32_t __LDREXW(volatile uint32_t *addr)
{
    uint32_t result;

   __ASM volatile ("ldrex %0, %1" : "=r" (result) : "Q" (*addr) );
 8006094:	6bbb      	ldr	r3, [r7, #56]	; 0x38
 8006096:	e853 3f00 	ldrex	r3, [r3]
 800609a:	637b      	str	r3, [r7, #52]	; 0x34
   return(result);
 800609c:	6b7b      	ldr	r3, [r7, #52]	; 0x34
 800609e:	f023 0380 	bic.w	r3, r3, #128	; 0x80
 80060a2:	653b      	str	r3, [r7, #80]	; 0x50
 80060a4:	687b      	ldr	r3, [r7, #4]
 80060a6:	681b      	ldr	r3, [r3, #0]
 80060a8:	461a      	mov	r2, r3
 80060aa:	6d3b      	ldr	r3, [r7, #80]	; 0x50
 80060ac:	647b      	str	r3, [r7, #68]	; 0x44
 80060ae:	643a      	str	r2, [r7, #64]	; 0x40
 */
__STATIC_FORCEINLINE uint32_t __STREXW(uint32_t value, volatile uint32_t *addr)
{
   uint32_t result;

   __ASM volatile ("strex %0, %2, %1" : "=&r" (result), "=Q" (*addr) : "r" (value) );
 80060b0:	6c39      	ldr	r1, [r7, #64]	; 0x40
 80060b2:	6c7a      	ldr	r2, [r7, #68]	; 0x44
 80060b4:	e841 2300 	strex	r3, r2, [r1]
 80060b8:	63fb      	str	r3, [r7, #60]	; 0x3c
   return(result);
 80060ba:	6bfb      	ldr	r3, [r7, #60]	; 0x3c
 80060bc:	2b00      	cmp	r3, #0
 80060be:	d1e6      	bne.n	800608e <UART_CheckIdleState+0x3e>

      huart->gState = HAL_UART_STATE_READY;
 80060c0:	687b      	ldr	r3, [r7, #4]
 80060c2:	2220      	movs	r2, #32
 80060c4:	f8c3 2088 	str.w	r2, [r3, #136]	; 0x88

      __HAL_UNLOCK(huart);
 80060c8:	687b      	ldr	r3, [r7, #4]
 80060ca:	2200      	movs	r2, #0
 80060cc:	f883 2084 	strb.w	r2, [r3, #132]	; 0x84

      /* Timeout occurred */
      return HAL_TIMEOUT;
 80060d0:	2303      	movs	r3, #3
 80060d2:	e063      	b.n	800619c <UART_CheckIdleState+0x14c>
    }
  }

  /* Check if the Receiver is enabled */
  if ((huart->Instance->CR1 & USART_CR1_RE) == USART_CR1_RE)
 80060d4:	687b      	ldr	r3, [r7, #4]
 80060d6:	681b      	ldr	r3, [r3, #0]
 80060d8:	681b      	ldr	r3, [r3, #0]
 80060da:	f003 0304 	and.w	r3, r3, #4
 80060de:	2b04      	cmp	r3, #4
 80060e0:	d149      	bne.n	8006176 <UART_CheckIdleState+0x126>
  {
    /* Wait until REACK flag is set */
    if (UART_WaitOnFlagUntilTimeout(huart, USART_ISR_REACK, RESET, tickstart, HAL_UART_TIMEOUT_VALUE) != HAL_OK)
 80060e2:	f06f 437e 	mvn.w	r3, #4261412864	; 0xfe000000
 80060e6:	9300      	str	r3, [sp, #0]
 80060e8:	6d7b      	ldr	r3, [r7, #84]	; 0x54
 80060ea:	2200      	movs	r2, #0
 80060ec:	f44f 0180 	mov.w	r1, #4194304	; 0x400000
 80060f0:	6878      	ldr	r0, [r7, #4]
 80060f2:	f000 f857 	bl	80061a4 <UART_WaitOnFlagUntilTimeout>
 80060f6:	4603      	mov	r3, r0
 80060f8:	2b00      	cmp	r3, #0
 80060fa:	d03c      	beq.n	8006176 <UART_CheckIdleState+0x126>
    {
      /* Disable RXNE, PE and ERR (Frame error, noise error, overrun error)
      interrupts for the interrupt process */
      ATOMIC_CLEAR_BIT(huart->Instance->CR1, (USART_CR1_RXNEIE_RXFNEIE | USART_CR1_PEIE));
 80060fc:	687b      	ldr	r3, [r7, #4]
 80060fe:	681b      	ldr	r3, [r3, #0]
 8006100:	627b      	str	r3, [r7, #36]	; 0x24
   __ASM volatile ("ldrex %0, %1" : "=r" (result) : "Q" (*addr) );
 8006102:	6a7b      	ldr	r3, [r7, #36]	; 0x24
 8006104:	e853 3f00 	ldrex	r3, [r3]
 8006108:	623b      	str	r3, [r7, #32]
   return(result);
 800610a:	6a3b      	ldr	r3, [r7, #32]
 800610c:	f423 7390 	bic.w	r3, r3, #288	; 0x120
 8006110:	64fb      	str	r3, [r7, #76]	; 0x4c
 8006112:	687b      	ldr	r3, [r7, #4]
 8006114:	681b      	ldr	r3, [r3, #0]
 8006116:	461a      	mov	r2, r3
 8006118:	6cfb      	ldr	r3, [r7, #76]	; 0x4c
 800611a:	633b      	str	r3, [r7, #48]	; 0x30
 800611c:	62fa      	str	r2, [r7, #44]	; 0x2c
   __ASM volatile ("strex %0, %2, %1" : "=&r" (result), "=Q" (*addr) : "r" (value) );
 800611e:	6af9      	ldr	r1, [r7, #44]	; 0x2c
 8006120:	6b3a      	ldr	r2, [r7, #48]	; 0x30
 8006122:	e841 2300 	strex	r3, r2, [r1]
 8006126:	62bb      	str	r3, [r7, #40]	; 0x28
   return(result);
 8006128:	6abb      	ldr	r3, [r7, #40]	; 0x28
 800612a:	2b00      	cmp	r3, #0
 800612c:	d1e6      	bne.n	80060fc <UART_CheckIdleState+0xac>
      ATOMIC_CLEAR_BIT(huart->Instance->CR3, USART_CR3_EIE);
 800612e:	687b      	ldr	r3, [r7, #4]
 8006130:	681b      	ldr	r3, [r3, #0]
 8006132:	3308      	adds	r3, #8
 8006134:	613b      	str	r3, [r7, #16]
   __ASM volatile ("ldrex %0, %1" : "=r" (result) : "Q" (*addr) );
 8006136:	693b      	ldr	r3, [r7, #16]
 8006138:	e853 3f00 	ldrex	r3, [r3]
 800613c:	60fb      	str	r3, [r7, #12]
   return(result);
 800613e:	68fb      	ldr	r3, [r7, #12]
 8006140:	f023 0301 	bic.w	r3, r3, #1
 8006144:	64bb      	str	r3, [r7, #72]	; 0x48
 8006146:	687b      	ldr	r3, [r7, #4]
 8006148:	681b      	ldr	r3, [r3, #0]
 800614a:	3308      	adds	r3, #8
 800614c:	6cba      	ldr	r2, [r7, #72]	; 0x48
 800614e:	61fa      	str	r2, [r7, #28]
 8006150:	61bb      	str	r3, [r7, #24]
   __ASM volatile ("strex %0, %2, %1" : "=&r" (result), "=Q" (*addr) : "r" (value) );
 8006152:	69b9      	ldr	r1, [r7, #24]
 8006154:	69fa      	ldr	r2, [r7, #28]
 8006156:	e841 2300 	strex	r3, r2, [r1]
 800615a:	617b      	str	r3, [r7, #20]
   return(result);
 800615c:	697b      	ldr	r3, [r7, #20]
 800615e:	2b00      	cmp	r3, #0
 8006160:	d1e5      	bne.n	800612e <UART_CheckIdleState+0xde>

      huart->RxState = HAL_UART_STATE_READY;
 8006162:	687b      	ldr	r3, [r7, #4]
 8006164:	2220      	movs	r2, #32
 8006166:	f8c3 208c 	str.w	r2, [r3, #140]	; 0x8c

      __HAL_UNLOCK(huart);
 800616a:	687b      	ldr	r3, [r7, #4]
 800616c:	2200      	movs	r2, #0
 800616e:	f883 2084 	strb.w	r2, [r3, #132]	; 0x84

      /* Timeout occurred */
      return HAL_TIMEOUT;
 8006172:	2303      	movs	r3, #3
 8006174:	e012      	b.n	800619c <UART_CheckIdleState+0x14c>
    }
  }

  /* Initialize the UART State */
  huart->gState = HAL_UART_STATE_READY;
 8006176:	687b      	ldr	r3, [r7, #4]
 8006178:	2220      	movs	r2, #32
 800617a:	f8c3 2088 	str.w	r2, [r3, #136]	; 0x88
  huart->RxState = HAL_UART_STATE_READY;
 800617e:	687b      	ldr	r3, [r7, #4]
 8006180:	2220      	movs	r2, #32
 8006182:	f8c3 208c 	str.w	r2, [r3, #140]	; 0x8c
  huart->ReceptionType = HAL_UART_RECEPTION_STANDARD;
 8006186:	687b      	ldr	r3, [r7, #4]
 8006188:	2200      	movs	r2, #0
 800618a:	66da      	str	r2, [r3, #108]	; 0x6c
  huart->RxEventType = HAL_UART_RXEVENT_TC;
 800618c:	687b      	ldr	r3, [r7, #4]
 800618e:	2200      	movs	r2, #0
 8006190:	671a      	str	r2, [r3, #112]	; 0x70

  __HAL_UNLOCK(huart);
 8006192:	687b      	ldr	r3, [r7, #4]
 8006194:	2200      	movs	r2, #0
 8006196:	f883 2084 	strb.w	r2, [r3, #132]	; 0x84

  return HAL_OK;
 800619a:	2300      	movs	r3, #0
}
 800619c:	4618      	mov	r0, r3
 800619e:	3758      	adds	r7, #88	; 0x58
 80061a0:	46bd      	mov	sp, r7
 80061a2:	bd80      	pop	{r7, pc}

080061a4 <UART_WaitOnFlagUntilTimeout>:
  * @param Timeout   Timeout duration
  * @retval HAL status
  */
HAL_StatusTypeDef UART_WaitOnFlagUntilTimeout(UART_HandleTypeDef *huart, uint32_t Flag, FlagStatus Status,
                                              uint32_t Tickstart, uint32_t Timeout)
{
 80061a4:	b580      	push	{r7, lr}
 80061a6:	b084      	sub	sp, #16
 80061a8:	af00      	add	r7, sp, #0
 80061aa:	60f8      	str	r0, [r7, #12]
 80061ac:	60b9      	str	r1, [r7, #8]
 80061ae:	603b      	str	r3, [r7, #0]
 80061b0:	4613      	mov	r3, r2
 80061b2:	71fb      	strb	r3, [r7, #7]
  /* Wait until flag is set */
  while ((__HAL_UART_GET_FLAG(huart, Flag) ? SET : RESET) == Status)
 80061b4:	e04f      	b.n	8006256 <UART_WaitOnFlagUntilTimeout+0xb2>
  {
    /* Check for the Timeout */
    if (Timeout != HAL_MAX_DELAY)
 80061b6:	69bb      	ldr	r3, [r7, #24]
 80061b8:	f1b3 3fff 	cmp.w	r3, #4294967295
 80061bc:	d04b      	beq.n	8006256 <UART_WaitOnFlagUntilTimeout+0xb2>
    {
      if (((HAL_GetTick() - Tickstart) > Timeout) || (Timeout == 0U))
 80061be:	f7fb fa8d 	bl	80016dc <HAL_GetTick>
 80061c2:	4602      	mov	r2, r0
 80061c4:	683b      	ldr	r3, [r7, #0]
 80061c6:	1ad3      	subs	r3, r2, r3
 80061c8:	69ba      	ldr	r2, [r7, #24]
 80061ca:	429a      	cmp	r2, r3
 80061cc:	d302      	bcc.n	80061d4 <UART_WaitOnFlagUntilTimeout+0x30>
 80061ce:	69bb      	ldr	r3, [r7, #24]
 80061d0:	2b00      	cmp	r3, #0
 80061d2:	d101      	bne.n	80061d8 <UART_WaitOnFlagUntilTimeout+0x34>
      {

        return HAL_TIMEOUT;
 80061d4:	2303      	movs	r3, #3
 80061d6:	e04e      	b.n	8006276 <UART_WaitOnFlagUntilTimeout+0xd2>
      }

      if ((READ_BIT(huart->Instance->CR1, USART_CR1_RE) != 0U) && (Flag != UART_FLAG_TXE) && (Flag != UART_FLAG_TC))
 80061d8:	68fb      	ldr	r3, [r7, #12]
 80061da:	681b      	ldr	r3, [r3, #0]
 80061dc:	681b      	ldr	r3, [r3, #0]
 80061de:	f003 0304 	and.w	r3, r3, #4
 80061e2:	2b00      	cmp	r3, #0
 80061e4:	d037      	beq.n	8006256 <UART_WaitOnFlagUntilTimeout+0xb2>
 80061e6:	68bb      	ldr	r3, [r7, #8]
 80061e8:	2b80      	cmp	r3, #128	; 0x80
 80061ea:	d034      	beq.n	8006256 <UART_WaitOnFlagUntilTimeout+0xb2>
 80061ec:	68bb      	ldr	r3, [r7, #8]
 80061ee:	2b40      	cmp	r3, #64	; 0x40
 80061f0:	d031      	beq.n	8006256 <UART_WaitOnFlagUntilTimeout+0xb2>
      {
        if (__HAL_UART_GET_FLAG(huart, UART_FLAG_ORE) == SET)
 80061f2:	68fb      	ldr	r3, [r7, #12]
 80061f4:	681b      	ldr	r3, [r3, #0]
 80061f6:	69db      	ldr	r3, [r3, #28]
 80061f8:	f003 0308 	and.w	r3, r3, #8
 80061fc:	2b08      	cmp	r3, #8
 80061fe:	d110      	bne.n	8006222 <UART_WaitOnFlagUntilTimeout+0x7e>
        {
          /* Clear Overrun Error flag*/
          __HAL_UART_CLEAR_FLAG(huart, UART_CLEAR_OREF);
 8006200:	68fb      	ldr	r3, [r7, #12]
 8006202:	681b      	ldr	r3, [r3, #0]
 8006204:	2208      	movs	r2, #8
 8006206:	621a      	str	r2, [r3, #32]

          /* Blocking error : transfer is aborted
          Set the UART state ready to be able to start again the process,
          Disable Rx Interrupts if ongoing */
          UART_EndRxTransfer(huart);
 8006208:	68f8      	ldr	r0, [r7, #12]
 800620a:	f000 f838 	bl	800627e <UART_EndRxTransfer>

          huart->ErrorCode = HAL_UART_ERROR_ORE;
 800620e:	68fb      	ldr	r3, [r7, #12]
 8006210:	2208      	movs	r2, #8
 8006212:	f8c3 2090 	str.w	r2, [r3, #144]	; 0x90

          /* Process Unlocked */
          __HAL_UNLOCK(huart);
 8006216:	68fb      	ldr	r3, [r7, #12]
 8006218:	2200      	movs	r2, #0
 800621a:	f883 2084 	strb.w	r2, [r3, #132]	; 0x84

          return HAL_ERROR;
 800621e:	2301      	movs	r3, #1
 8006220:	e029      	b.n	8006276 <UART_WaitOnFlagUntilTimeout+0xd2>
        }
        if (__HAL_UART_GET_FLAG(huart, UART_FLAG_RTOF) == SET)
 8006222:	68fb      	ldr	r3, [r7, #12]
 8006224:	681b      	ldr	r3, [r3, #0]
 8006226:	69db      	ldr	r3, [r3, #28]
 8006228:	f403 6300 	and.w	r3, r3, #2048	; 0x800
 800622c:	f5b3 6f00 	cmp.w	r3, #2048	; 0x800
 8006230:	d111      	bne.n	8006256 <UART_WaitOnFlagUntilTimeout+0xb2>
        {
          /* Clear Receiver Timeout flag*/
          __HAL_UART_CLEAR_FLAG(huart, UART_CLEAR_RTOF);
 8006232:	68fb      	ldr	r3, [r7, #12]
 8006234:	681b      	ldr	r3, [r3, #0]
 8006236:	f44f 6200 	mov.w	r2, #2048	; 0x800
 800623a:	621a      	str	r2, [r3, #32]

          /* Blocking error : transfer is aborted
          Set the UART state ready to be able to start again the process,
          Disable Rx Interrupts if ongoing */
          UART_EndRxTransfer(huart);
 800623c:	68f8      	ldr	r0, [r7, #12]
 800623e:	f000 f81e 	bl	800627e <UART_EndRxTransfer>

          huart->ErrorCode = HAL_UART_ERROR_RTO;
 8006242:	68fb      	ldr	r3, [r7, #12]
 8006244:	2220      	movs	r2, #32
 8006246:	f8c3 2090 	str.w	r2, [r3, #144]	; 0x90

          /* Process Unlocked */
          __HAL_UNLOCK(huart);
 800624a:	68fb      	ldr	r3, [r7, #12]
 800624c:	2200      	movs	r2, #0
 800624e:	f883 2084 	strb.w	r2, [r3, #132]	; 0x84

          return HAL_TIMEOUT;
 8006252:	2303      	movs	r3, #3
 8006254:	e00f      	b.n	8006276 <UART_WaitOnFlagUntilTimeout+0xd2>
  while ((__HAL_UART_GET_FLAG(huart, Flag) ? SET : RESET) == Status)
 8006256:	68fb      	ldr	r3, [r7, #12]
 8006258:	681b      	ldr	r3, [r3, #0]
 800625a:	69da      	ldr	r2, [r3, #28]
 800625c:	68bb      	ldr	r3, [r7, #8]
 800625e:	4013      	ands	r3, r2
 8006260:	68ba      	ldr	r2, [r7, #8]
 8006262:	429a      	cmp	r2, r3
 8006264:	bf0c      	ite	eq
 8006266:	2301      	moveq	r3, #1
 8006268:	2300      	movne	r3, #0
 800626a:	b2db      	uxtb	r3, r3
 800626c:	461a      	mov	r2, r3
 800626e:	79fb      	ldrb	r3, [r7, #7]
 8006270:	429a      	cmp	r2, r3
 8006272:	d0a0      	beq.n	80061b6 <UART_WaitOnFlagUntilTimeout+0x12>
        }
      }
    }
  }
  return HAL_OK;
 8006274:	2300      	movs	r3, #0
}
 8006276:	4618      	mov	r0, r3
 8006278:	3710      	adds	r7, #16
 800627a:	46bd      	mov	sp, r7
 800627c:	bd80      	pop	{r7, pc}

0800627e <UART_EndRxTransfer>:
  * @brief  End ongoing Rx transfer on UART peripheral (following error detection or Reception completion).
  * @param  huart UART handle.
  * @retval None
  */
static void UART_EndRxTransfer(UART_HandleTypeDef *huart)
{
 800627e:	b480      	push	{r7}
 8006280:	b095      	sub	sp, #84	; 0x54
 8006282:	af00      	add	r7, sp, #0
 8006284:	6078      	str	r0, [r7, #4]
  /* Disable RXNE, PE and ERR (Frame error, noise error, overrun error) interrupts */
  ATOMIC_CLEAR_BIT(huart->Instance->CR1, (USART_CR1_RXNEIE_RXFNEIE | USART_CR1_PEIE));
 8006286:	687b      	ldr	r3, [r7, #4]
 8006288:	681b      	ldr	r3, [r3, #0]
 800628a:	637b      	str	r3, [r7, #52]	; 0x34
   __ASM volatile ("ldrex %0, %1" : "=r" (result) : "Q" (*addr) );
 800628c:	6b7b      	ldr	r3, [r7, #52]	; 0x34
 800628e:	e853 3f00 	ldrex	r3, [r3]
 8006292:	633b      	str	r3, [r7, #48]	; 0x30
   return(result);
 8006294:	6b3b      	ldr	r3, [r7, #48]	; 0x30
 8006296:	f423 7390 	bic.w	r3, r3, #288	; 0x120
 800629a:	64fb      	str	r3, [r7, #76]	; 0x4c
 800629c:	687b      	ldr	r3, [r7, #4]
 800629e:	681b      	ldr	r3, [r3, #0]
 80062a0:	461a      	mov	r2, r3
 80062a2:	6cfb      	ldr	r3, [r7, #76]	; 0x4c
 80062a4:	643b      	str	r3, [r7, #64]	; 0x40
 80062a6:	63fa      	str	r2, [r7, #60]	; 0x3c
   __ASM volatile ("strex %0, %2, %1" : "=&r" (result), "=Q" (*addr) : "r" (value) );
 80062a8:	6bf9      	ldr	r1, [r7, #60]	; 0x3c
 80062aa:	6c3a      	ldr	r2, [r7, #64]	; 0x40
 80062ac:	e841 2300 	strex	r3, r2, [r1]
 80062b0:	63bb      	str	r3, [r7, #56]	; 0x38
   return(result);
 80062b2:	6bbb      	ldr	r3, [r7, #56]	; 0x38
 80062b4:	2b00      	cmp	r3, #0
 80062b6:	d1e6      	bne.n	8006286 <UART_EndRxTransfer+0x8>
  ATOMIC_CLEAR_BIT(huart->Instance->CR3, (USART_CR3_EIE | USART_CR3_RXFTIE));
 80062b8:	687b      	ldr	r3, [r7, #4]
 80062ba:	681b      	ldr	r3, [r3, #0]
 80062bc:	3308      	adds	r3, #8
 80062be:	623b      	str	r3, [r7, #32]
   __ASM volatile ("ldrex %0, %1" : "=r" (result) : "Q" (*addr) );
 80062c0:	6a3b      	ldr	r3, [r7, #32]
 80062c2:	e853 3f00 	ldrex	r3, [r3]
 80062c6:	61fb      	str	r3, [r7, #28]
   return(result);
 80062c8:	69fb      	ldr	r3, [r7, #28]
 80062ca:	f023 5380 	bic.w	r3, r3, #268435456	; 0x10000000
 80062ce:	f023 0301 	bic.w	r3, r3, #1
 80062d2:	64bb      	str	r3, [r7, #72]	; 0x48
 80062d4:	687b      	ldr	r3, [r7, #4]
 80062d6:	681b      	ldr	r3, [r3, #0]
 80062d8:	3308      	adds	r3, #8
 80062da:	6cba      	ldr	r2, [r7, #72]	; 0x48
 80062dc:	62fa      	str	r2, [r7, #44]	; 0x2c
 80062de:	62bb      	str	r3, [r7, #40]	; 0x28
   __ASM volatile ("strex %0, %2, %1" : "=&r" (result), "=Q" (*addr) : "r" (value) );
 80062e0:	6ab9      	ldr	r1, [r7, #40]	; 0x28
 80062e2:	6afa      	ldr	r2, [r7, #44]	; 0x2c
 80062e4:	e841 2300 	strex	r3, r2, [r1]
 80062e8:	627b      	str	r3, [r7, #36]	; 0x24
   return(result);
 80062ea:	6a7b      	ldr	r3, [r7, #36]	; 0x24
 80062ec:	2b00      	cmp	r3, #0
 80062ee:	d1e3      	bne.n	80062b8 <UART_EndRxTransfer+0x3a>

  /* In case of reception waiting for IDLE event, disable also the IDLE IE interrupt source */
  if (huart->ReceptionType == HAL_UART_RECEPTION_TOIDLE)
 80062f0:	687b      	ldr	r3, [r7, #4]
 80062f2:	6edb      	ldr	r3, [r3, #108]	; 0x6c
 80062f4:	2b01      	cmp	r3, #1
 80062f6:	d118      	bne.n	800632a <UART_EndRxTransfer+0xac>
  {
    ATOMIC_CLEAR_BIT(huart->Instance->CR1, USART_CR1_IDLEIE);
 80062f8:	687b      	ldr	r3, [r7, #4]
 80062fa:	681b      	ldr	r3, [r3, #0]
 80062fc:	60fb      	str	r3, [r7, #12]
   __ASM volatile ("ldrex %0, %1" : "=r" (result) : "Q" (*addr) );
 80062fe:	68fb      	ldr	r3, [r7, #12]
 8006300:	e853 3f00 	ldrex	r3, [r3]
 8006304:	60bb      	str	r3, [r7, #8]
   return(result);
 8006306:	68bb      	ldr	r3, [r7, #8]
 8006308:	f023 0310 	bic.w	r3, r3, #16
 800630c:	647b      	str	r3, [r7, #68]	; 0x44
 800630e:	687b      	ldr	r3, [r7, #4]
 8006310:	681b      	ldr	r3, [r3, #0]
 8006312:	461a      	mov	r2, r3
 8006314:	6c7b      	ldr	r3, [r7, #68]	; 0x44
 8006316:	61bb      	str	r3, [r7, #24]
 8006318:	617a      	str	r2, [r7, #20]
   __ASM volatile ("strex %0, %2, %1" : "=&r" (result), "=Q" (*addr) : "r" (value) );
 800631a:	6979      	ldr	r1, [r7, #20]
 800631c:	69ba      	ldr	r2, [r7, #24]
 800631e:	e841 2300 	strex	r3, r2, [r1]
 8006322:	613b      	str	r3, [r7, #16]
   return(result);
 8006324:	693b      	ldr	r3, [r7, #16]
 8006326:	2b00      	cmp	r3, #0
 8006328:	d1e6      	bne.n	80062f8 <UART_EndRxTransfer+0x7a>
  }

  /* At end of Rx process, restore huart->RxState to Ready */
  huart->RxState = HAL_UART_STATE_READY;
 800632a:	687b      	ldr	r3, [r7, #4]
 800632c:	2220      	movs	r2, #32
 800632e:	f8c3 208c 	str.w	r2, [r3, #140]	; 0x8c
  huart->ReceptionType = HAL_UART_RECEPTION_STANDARD;
 8006332:	687b      	ldr	r3, [r7, #4]
 8006334:	2200      	movs	r2, #0
 8006336:	66da      	str	r2, [r3, #108]	; 0x6c

  /* Reset RxIsr function pointer */
  huart->RxISR = NULL;
 8006338:	687b      	ldr	r3, [r7, #4]
 800633a:	2200      	movs	r2, #0
 800633c:	675a      	str	r2, [r3, #116]	; 0x74
}
 800633e:	bf00      	nop
 8006340:	3754      	adds	r7, #84	; 0x54
 8006342:	46bd      	mov	sp, r7
 8006344:	f85d 7b04 	ldr.w	r7, [sp], #4
 8006348:	4770      	bx	lr

0800634a <HAL_UARTEx_DisableFifoMode>:
  * @brief  Disable the FIFO mode.
  * @param huart      UART handle.
  * @retval HAL status
  */
HAL_StatusTypeDef HAL_UARTEx_DisableFifoMode(UART_HandleTypeDef *huart)
{
 800634a:	b480      	push	{r7}
 800634c:	b085      	sub	sp, #20
 800634e:	af00      	add	r7, sp, #0
 8006350:	6078      	str	r0, [r7, #4]

  /* Check parameters */
  assert_param(IS_UART_FIFO_INSTANCE(huart->Instance));

  /* Process Locked */
  __HAL_LOCK(huart);
 8006352:	687b      	ldr	r3, [r7, #4]
 8006354:	f893 3084 	ldrb.w	r3, [r3, #132]	; 0x84
 8006358:	2b01      	cmp	r3, #1
 800635a:	d101      	bne.n	8006360 <HAL_UARTEx_DisableFifoMode+0x16>
 800635c:	2302      	movs	r3, #2
 800635e:	e027      	b.n	80063b0 <HAL_UARTEx_DisableFifoMode+0x66>
 8006360:	687b      	ldr	r3, [r7, #4]
 8006362:	2201      	movs	r2, #1
 8006364:	f883 2084 	strb.w	r2, [r3, #132]	; 0x84

  huart->gState = HAL_UART_STATE_BUSY;
 8006368:	687b      	ldr	r3, [r7, #4]
 800636a:	2224      	movs	r2, #36	; 0x24
 800636c:	f8c3 2088 	str.w	r2, [r3, #136]	; 0x88

  /* Save actual UART configuration */
  tmpcr1 = READ_REG(huart->Instance->CR1);
 8006370:	687b      	ldr	r3, [r7, #4]
 8006372:	681b      	ldr	r3, [r3, #0]
 8006374:	681b      	ldr	r3, [r3, #0]
 8006376:	60fb      	str	r3, [r7, #12]

  /* Disable UART */
  __HAL_UART_DISABLE(huart);
 8006378:	687b      	ldr	r3, [r7, #4]
 800637a:	681b      	ldr	r3, [r3, #0]
 800637c:	681a      	ldr	r2, [r3, #0]
 800637e:	687b      	ldr	r3, [r7, #4]
 8006380:	681b      	ldr	r3, [r3, #0]
 8006382:	f022 0201 	bic.w	r2, r2, #1
 8006386:	601a      	str	r2, [r3, #0]

  /* Enable FIFO mode */
  CLEAR_BIT(tmpcr1, USART_CR1_FIFOEN);
 8006388:	68fb      	ldr	r3, [r7, #12]
 800638a:	f023 5300 	bic.w	r3, r3, #536870912	; 0x20000000
 800638e:	60fb      	str	r3, [r7, #12]
  huart->FifoMode = UART_FIFOMODE_DISABLE;
 8006390:	687b      	ldr	r3, [r7, #4]
 8006392:	2200      	movs	r2, #0
 8006394:	665a      	str	r2, [r3, #100]	; 0x64

  /* Restore UART configuration */
  WRITE_REG(huart->Instance->CR1, tmpcr1);
 8006396:	687b      	ldr	r3, [r7, #4]
 8006398:	681b      	ldr	r3, [r3, #0]
 800639a:	68fa      	ldr	r2, [r7, #12]
 800639c:	601a      	str	r2, [r3, #0]

  huart->gState = HAL_UART_STATE_READY;
 800639e:	687b      	ldr	r3, [r7, #4]
 80063a0:	2220      	movs	r2, #32
 80063a2:	f8c3 2088 	str.w	r2, [r3, #136]	; 0x88

  /* Process Unlocked */
  __HAL_UNLOCK(huart);
 80063a6:	687b      	ldr	r3, [r7, #4]
 80063a8:	2200      	movs	r2, #0
 80063aa:	f883 2084 	strb.w	r2, [r3, #132]	; 0x84

  return HAL_OK;
 80063ae:	2300      	movs	r3, #0
}
 80063b0:	4618      	mov	r0, r3
 80063b2:	3714      	adds	r7, #20
 80063b4:	46bd      	mov	sp, r7
 80063b6:	f85d 7b04 	ldr.w	r7, [sp], #4
 80063ba:	4770      	bx	lr

080063bc <HAL_UARTEx_SetTxFifoThreshold>:
  *            @arg @ref UART_TXFIFO_THRESHOLD_7_8
  *            @arg @ref UART_TXFIFO_THRESHOLD_8_8
  * @retval HAL status
  */
HAL_StatusTypeDef HAL_UARTEx_SetTxFifoThreshold(UART_HandleTypeDef *huart, uint32_t Threshold)
{
 80063bc:	b580      	push	{r7, lr}
 80063be:	b084      	sub	sp, #16
 80063c0:	af00      	add	r7, sp, #0
 80063c2:	6078      	str	r0, [r7, #4]
 80063c4:	6039      	str	r1, [r7, #0]
  /* Check parameters */
  assert_param(IS_UART_FIFO_INSTANCE(huart->Instance));
  assert_param(IS_UART_TXFIFO_THRESHOLD(Threshold));

  /* Process Locked */
  __HAL_LOCK(huart);
 80063c6:	687b      	ldr	r3, [r7, #4]
 80063c8:	f893 3084 	ldrb.w	r3, [r3, #132]	; 0x84
 80063cc:	2b01      	cmp	r3, #1
 80063ce:	d101      	bne.n	80063d4 <HAL_UARTEx_SetTxFifoThreshold+0x18>
 80063d0:	2302      	movs	r3, #2
 80063d2:	e02d      	b.n	8006430 <HAL_UARTEx_SetTxFifoThreshold+0x74>
 80063d4:	687b      	ldr	r3, [r7, #4]
 80063d6:	2201      	movs	r2, #1
 80063d8:	f883 2084 	strb.w	r2, [r3, #132]	; 0x84

  huart->gState = HAL_UART_STATE_BUSY;
 80063dc:	687b      	ldr	r3, [r7, #4]
 80063de:	2224      	movs	r2, #36	; 0x24
 80063e0:	f8c3 2088 	str.w	r2, [r3, #136]	; 0x88

  /* Save actual UART configuration */
  tmpcr1 = READ_REG(huart->Instance->CR1);
 80063e4:	687b      	ldr	r3, [r7, #4]
 80063e6:	681b      	ldr	r3, [r3, #0]
 80063e8:	681b      	ldr	r3, [r3, #0]
 80063ea:	60fb      	str	r3, [r7, #12]

  /* Disable UART */
  __HAL_UART_DISABLE(huart);
 80063ec:	687b      	ldr	r3, [r7, #4]
 80063ee:	681b      	ldr	r3, [r3, #0]
 80063f0:	681a      	ldr	r2, [r3, #0]
 80063f2:	687b      	ldr	r3, [r7, #4]
 80063f4:	681b      	ldr	r3, [r3, #0]
 80063f6:	f022 0201 	bic.w	r2, r2, #1
 80063fa:	601a      	str	r2, [r3, #0]

  /* Update TX threshold configuration */
  MODIFY_REG(huart->Instance->CR3, USART_CR3_TXFTCFG, Threshold);
 80063fc:	687b      	ldr	r3, [r7, #4]
 80063fe:	681b      	ldr	r3, [r3, #0]
 8006400:	689b      	ldr	r3, [r3, #8]
 8006402:	f023 4160 	bic.w	r1, r3, #3758096384	; 0xe0000000
 8006406:	687b      	ldr	r3, [r7, #4]
 8006408:	681b      	ldr	r3, [r3, #0]
 800640a:	683a      	ldr	r2, [r7, #0]
 800640c:	430a      	orrs	r2, r1
 800640e:	609a      	str	r2, [r3, #8]

  /* Determine the number of data to process during RX/TX ISR execution */
  UARTEx_SetNbDataToProcess(huart);
 8006410:	6878      	ldr	r0, [r7, #4]
 8006412:	f000 f84f 	bl	80064b4 <UARTEx_SetNbDataToProcess>

  /* Restore UART configuration */
  WRITE_REG(huart->Instance->CR1, tmpcr1);
 8006416:	687b      	ldr	r3, [r7, #4]
 8006418:	681b      	ldr	r3, [r3, #0]
 800641a:	68fa      	ldr	r2, [r7, #12]
 800641c:	601a      	str	r2, [r3, #0]

  huart->gState = HAL_UART_STATE_READY;
 800641e:	687b      	ldr	r3, [r7, #4]
 8006420:	2220      	movs	r2, #32
 8006422:	f8c3 2088 	str.w	r2, [r3, #136]	; 0x88

  /* Process Unlocked */
  __HAL_UNLOCK(huart);
 8006426:	687b      	ldr	r3, [r7, #4]
 8006428:	2200      	movs	r2, #0
 800642a:	f883 2084 	strb.w	r2, [r3, #132]	; 0x84

  return HAL_OK;
 800642e:	2300      	movs	r3, #0
}
 8006430:	4618      	mov	r0, r3
 8006432:	3710      	adds	r7, #16
 8006434:	46bd      	mov	sp, r7
 8006436:	bd80      	pop	{r7, pc}

08006438 <HAL_UARTEx_SetRxFifoThreshold>:
  *            @arg @ref UART_RXFIFO_THRESHOLD_7_8
  *            @arg @ref UART_RXFIFO_THRESHOLD_8_8
  * @retval HAL status
  */
HAL_StatusTypeDef HAL_UARTEx_SetRxFifoThreshold(UART_HandleTypeDef *huart, uint32_t Threshold)
{
 8006438:	b580      	push	{r7, lr}
 800643a:	b084      	sub	sp, #16
 800643c:	af00      	add	r7, sp, #0
 800643e:	6078      	str	r0, [r7, #4]
 8006440:	6039      	str	r1, [r7, #0]
  /* Check the parameters */
  assert_param(IS_UART_FIFO_INSTANCE(huart->Instance));
  assert_param(IS_UART_RXFIFO_THRESHOLD(Threshold));

  /* Process Locked */
  __HAL_LOCK(huart);
 8006442:	687b      	ldr	r3, [r7, #4]
 8006444:	f893 3084 	ldrb.w	r3, [r3, #132]	; 0x84
 8006448:	2b01      	cmp	r3, #1
 800644a:	d101      	bne.n	8006450 <HAL_UARTEx_SetRxFifoThreshold+0x18>
 800644c:	2302      	movs	r3, #2
 800644e:	e02d      	b.n	80064ac <HAL_UARTEx_SetRxFifoThreshold+0x74>
 8006450:	687b      	ldr	r3, [r7, #4]
 8006452:	2201      	movs	r2, #1
 8006454:	f883 2084 	strb.w	r2, [r3, #132]	; 0x84

  huart->gState = HAL_UART_STATE_BUSY;
 8006458:	687b      	ldr	r3, [r7, #4]
 800645a:	2224      	movs	r2, #36	; 0x24
 800645c:	f8c3 2088 	str.w	r2, [r3, #136]	; 0x88

  /* Save actual UART configuration */
  tmpcr1 = READ_REG(huart->Instance->CR1);
 8006460:	687b      	ldr	r3, [r7, #4]
 8006462:	681b      	ldr	r3, [r3, #0]
 8006464:	681b      	ldr	r3, [r3, #0]
 8006466:	60fb      	str	r3, [r7, #12]

  /* Disable UART */
  __HAL_UART_DISABLE(huart);
 8006468:	687b      	ldr	r3, [r7, #4]
 800646a:	681b      	ldr	r3, [r3, #0]
 800646c:	681a      	ldr	r2, [r3, #0]
 800646e:	687b      	ldr	r3, [r7, #4]
 8006470:	681b      	ldr	r3, [r3, #0]
 8006472:	f022 0201 	bic.w	r2, r2, #1
 8006476:	601a      	str	r2, [r3, #0]

  /* Update RX threshold configuration */
  MODIFY_REG(huart->Instance->CR3, USART_CR3_RXFTCFG, Threshold);
 8006478:	687b      	ldr	r3, [r7, #4]
 800647a:	681b      	ldr	r3, [r3, #0]
 800647c:	689b      	ldr	r3, [r3, #8]
 800647e:	f023 6160 	bic.w	r1, r3, #234881024	; 0xe000000
 8006482:	687b      	ldr	r3, [r7, #4]
 8006484:	681b      	ldr	r3, [r3, #0]
 8006486:	683a      	ldr	r2, [r7, #0]
 8006488:	430a      	orrs	r2, r1
 800648a:	609a      	str	r2, [r3, #8]

  /* Determine the number of data to process during RX/TX ISR execution */
  UARTEx_SetNbDataToProcess(huart);
 800648c:	6878      	ldr	r0, [r7, #4]
 800648e:	f000 f811 	bl	80064b4 <UARTEx_SetNbDataToProcess>

  /* Restore UART configuration */
  WRITE_REG(huart->Instance->CR1, tmpcr1);
 8006492:	687b      	ldr	r3, [r7, #4]
 8006494:	681b      	ldr	r3, [r3, #0]
 8006496:	68fa      	ldr	r2, [r7, #12]
 8006498:	601a      	str	r2, [r3, #0]

  huart->gState = HAL_UART_STATE_READY;
 800649a:	687b      	ldr	r3, [r7, #4]
 800649c:	2220      	movs	r2, #32
 800649e:	f8c3 2088 	str.w	r2, [r3, #136]	; 0x88

  /* Process Unlocked */
  __HAL_UNLOCK(huart);
 80064a2:	687b      	ldr	r3, [r7, #4]
 80064a4:	2200      	movs	r2, #0
 80064a6:	f883 2084 	strb.w	r2, [r3, #132]	; 0x84

  return HAL_OK;
 80064aa:	2300      	movs	r3, #0
}
 80064ac:	4618      	mov	r0, r3
 80064ae:	3710      	adds	r7, #16
 80064b0:	46bd      	mov	sp, r7
 80064b2:	bd80      	pop	{r7, pc}

080064b4 <UARTEx_SetNbDataToProcess>:
  *       the UART configuration registers.
  * @param huart UART handle.
  * @retval None
  */
static void UARTEx_SetNbDataToProcess(UART_HandleTypeDef *huart)
{
 80064b4:	b480      	push	{r7}
 80064b6:	b085      	sub	sp, #20
 80064b8:	af00      	add	r7, sp, #0
 80064ba:	6078      	str	r0, [r7, #4]
  uint8_t rx_fifo_threshold;
  uint8_t tx_fifo_threshold;
  static const uint8_t numerator[] = {1U, 1U, 1U, 3U, 7U, 1U, 0U, 0U};
  static const uint8_t denominator[] = {8U, 4U, 2U, 4U, 8U, 1U, 1U, 1U};

  if (huart->FifoMode == UART_FIFOMODE_DISABLE)
 80064bc:	687b      	ldr	r3, [r7, #4]
 80064be:	6e5b      	ldr	r3, [r3, #100]	; 0x64
 80064c0:	2b00      	cmp	r3, #0
 80064c2:	d108      	bne.n	80064d6 <UARTEx_SetNbDataToProcess+0x22>
  {
    huart->NbTxDataToProcess = 1U;
 80064c4:	687b      	ldr	r3, [r7, #4]
 80064c6:	2201      	movs	r2, #1
 80064c8:	f8a3 206a 	strh.w	r2, [r3, #106]	; 0x6a
    huart->NbRxDataToProcess = 1U;
 80064cc:	687b      	ldr	r3, [r7, #4]
 80064ce:	2201      	movs	r2, #1
 80064d0:	f8a3 2068 	strh.w	r2, [r3, #104]	; 0x68
    huart->NbTxDataToProcess = ((uint16_t)tx_fifo_depth * numerator[tx_fifo_threshold]) /
                               (uint16_t)denominator[tx_fifo_threshold];
    huart->NbRxDataToProcess = ((uint16_t)rx_fifo_depth * numerator[rx_fifo_threshold]) /
                               (uint16_t)denominator[rx_fifo_threshold];
  }
}
 80064d4:	e031      	b.n	800653a <UARTEx_SetNbDataToProcess+0x86>
    rx_fifo_depth = RX_FIFO_DEPTH;
 80064d6:	2308      	movs	r3, #8
 80064d8:	73fb      	strb	r3, [r7, #15]
    tx_fifo_depth = TX_FIFO_DEPTH;
 80064da:	2308      	movs	r3, #8
 80064dc:	73bb      	strb	r3, [r7, #14]
    rx_fifo_threshold = (uint8_t)(READ_BIT(huart->Instance->CR3, USART_CR3_RXFTCFG) >> USART_CR3_RXFTCFG_Pos);
 80064de:	687b      	ldr	r3, [r7, #4]
 80064e0:	681b      	ldr	r3, [r3, #0]
 80064e2:	689b      	ldr	r3, [r3, #8]
 80064e4:	0e5b      	lsrs	r3, r3, #25
 80064e6:	b2db      	uxtb	r3, r3
 80064e8:	f003 0307 	and.w	r3, r3, #7
 80064ec:	737b      	strb	r3, [r7, #13]
    tx_fifo_threshold = (uint8_t)(READ_BIT(huart->Instance->CR3, USART_CR3_TXFTCFG) >> USART_CR3_TXFTCFG_Pos);
 80064ee:	687b      	ldr	r3, [r7, #4]
 80064f0:	681b      	ldr	r3, [r3, #0]
 80064f2:	689b      	ldr	r3, [r3, #8]
 80064f4:	0f5b      	lsrs	r3, r3, #29
 80064f6:	b2db      	uxtb	r3, r3
 80064f8:	f003 0307 	and.w	r3, r3, #7
 80064fc:	733b      	strb	r3, [r7, #12]
    huart->NbTxDataToProcess = ((uint16_t)tx_fifo_depth * numerator[tx_fifo_threshold]) /
 80064fe:	7bbb      	ldrb	r3, [r7, #14]
 8006500:	7b3a      	ldrb	r2, [r7, #12]
 8006502:	4911      	ldr	r1, [pc, #68]	; (8006548 <UARTEx_SetNbDataToProcess+0x94>)
 8006504:	5c8a      	ldrb	r2, [r1, r2]
 8006506:	fb02 f303 	mul.w	r3, r2, r3
                               (uint16_t)denominator[tx_fifo_threshold];
 800650a:	7b3a      	ldrb	r2, [r7, #12]
 800650c:	490f      	ldr	r1, [pc, #60]	; (800654c <UARTEx_SetNbDataToProcess+0x98>)
 800650e:	5c8a      	ldrb	r2, [r1, r2]
    huart->NbTxDataToProcess = ((uint16_t)tx_fifo_depth * numerator[tx_fifo_threshold]) /
 8006510:	fb93 f3f2 	sdiv	r3, r3, r2
 8006514:	b29a      	uxth	r2, r3
 8006516:	687b      	ldr	r3, [r7, #4]
 8006518:	f8a3 206a 	strh.w	r2, [r3, #106]	; 0x6a
    huart->NbRxDataToProcess = ((uint16_t)rx_fifo_depth * numerator[rx_fifo_threshold]) /
 800651c:	7bfb      	ldrb	r3, [r7, #15]
 800651e:	7b7a      	ldrb	r2, [r7, #13]
 8006520:	4909      	ldr	r1, [pc, #36]	; (8006548 <UARTEx_SetNbDataToProcess+0x94>)
 8006522:	5c8a      	ldrb	r2, [r1, r2]
 8006524:	fb02 f303 	mul.w	r3, r2, r3
                               (uint16_t)denominator[rx_fifo_threshold];
 8006528:	7b7a      	ldrb	r2, [r7, #13]
 800652a:	4908      	ldr	r1, [pc, #32]	; (800654c <UARTEx_SetNbDataToProcess+0x98>)
 800652c:	5c8a      	ldrb	r2, [r1, r2]
    huart->NbRxDataToProcess = ((uint16_t)rx_fifo_depth * numerator[rx_fifo_threshold]) /
 800652e:	fb93 f3f2 	sdiv	r3, r3, r2
 8006532:	b29a      	uxth	r2, r3
 8006534:	687b      	ldr	r3, [r7, #4]
 8006536:	f8a3 2068 	strh.w	r2, [r3, #104]	; 0x68
}
 800653a:	bf00      	nop
 800653c:	3714      	adds	r7, #20
 800653e:	46bd      	mov	sp, r7
 8006540:	f85d 7b04 	ldr.w	r7, [sp], #4
 8006544:	4770      	bx	lr
 8006546:	bf00      	nop
 8006548:	08007564 	.word	0x08007564
 800654c:	0800756c 	.word	0x0800756c

08006550 <rand>:
 8006550:	4b16      	ldr	r3, [pc, #88]	; (80065ac <rand+0x5c>)
 8006552:	b510      	push	{r4, lr}
 8006554:	681c      	ldr	r4, [r3, #0]
 8006556:	6b23      	ldr	r3, [r4, #48]	; 0x30
 8006558:	b9b3      	cbnz	r3, 8006588 <rand+0x38>
 800655a:	2018      	movs	r0, #24
 800655c:	f000 fa22 	bl	80069a4 <malloc>
 8006560:	4602      	mov	r2, r0
 8006562:	6320      	str	r0, [r4, #48]	; 0x30
 8006564:	b920      	cbnz	r0, 8006570 <rand+0x20>
 8006566:	4b12      	ldr	r3, [pc, #72]	; (80065b0 <rand+0x60>)
 8006568:	4812      	ldr	r0, [pc, #72]	; (80065b4 <rand+0x64>)
 800656a:	2152      	movs	r1, #82	; 0x52
 800656c:	f000 f9b0 	bl	80068d0 <__assert_func>
 8006570:	4911      	ldr	r1, [pc, #68]	; (80065b8 <rand+0x68>)
 8006572:	4b12      	ldr	r3, [pc, #72]	; (80065bc <rand+0x6c>)
 8006574:	e9c0 1300 	strd	r1, r3, [r0]
 8006578:	4b11      	ldr	r3, [pc, #68]	; (80065c0 <rand+0x70>)
 800657a:	6083      	str	r3, [r0, #8]
 800657c:	230b      	movs	r3, #11
 800657e:	8183      	strh	r3, [r0, #12]
 8006580:	2100      	movs	r1, #0
 8006582:	2001      	movs	r0, #1
 8006584:	e9c2 0104 	strd	r0, r1, [r2, #16]
 8006588:	6b21      	ldr	r1, [r4, #48]	; 0x30
 800658a:	480e      	ldr	r0, [pc, #56]	; (80065c4 <rand+0x74>)
 800658c:	690b      	ldr	r3, [r1, #16]
 800658e:	694c      	ldr	r4, [r1, #20]
 8006590:	4a0d      	ldr	r2, [pc, #52]	; (80065c8 <rand+0x78>)
 8006592:	4358      	muls	r0, r3
 8006594:	fb02 0004 	mla	r0, r2, r4, r0
 8006598:	fba3 3202 	umull	r3, r2, r3, r2
 800659c:	3301      	adds	r3, #1
 800659e:	eb40 0002 	adc.w	r0, r0, r2
 80065a2:	e9c1 3004 	strd	r3, r0, [r1, #16]
 80065a6:	f020 4000 	bic.w	r0, r0, #2147483648	; 0x80000000
 80065aa:	bd10      	pop	{r4, pc}
 80065ac:	2000007c 	.word	0x2000007c
 80065b0:	08007574 	.word	0x08007574
 80065b4:	0800758b 	.word	0x0800758b
 80065b8:	abcd330e 	.word	0xabcd330e
 80065bc:	e66d1234 	.word	0xe66d1234
 80065c0:	0005deec 	.word	0x0005deec
 80065c4:	5851f42d 	.word	0x5851f42d
 80065c8:	4c957f2d 	.word	0x4c957f2d

080065cc <std>:
 80065cc:	2300      	movs	r3, #0
 80065ce:	b510      	push	{r4, lr}
 80065d0:	4604      	mov	r4, r0
 80065d2:	e9c0 3300 	strd	r3, r3, [r0]
 80065d6:	e9c0 3304 	strd	r3, r3, [r0, #16]
 80065da:	6083      	str	r3, [r0, #8]
 80065dc:	8181      	strh	r1, [r0, #12]
 80065de:	6643      	str	r3, [r0, #100]	; 0x64
 80065e0:	81c2      	strh	r2, [r0, #14]
 80065e2:	6183      	str	r3, [r0, #24]
 80065e4:	4619      	mov	r1, r3
 80065e6:	2208      	movs	r2, #8
 80065e8:	305c      	adds	r0, #92	; 0x5c
 80065ea:	f000 f8f4 	bl	80067d6 <memset>
 80065ee:	4b0d      	ldr	r3, [pc, #52]	; (8006624 <std+0x58>)
 80065f0:	6263      	str	r3, [r4, #36]	; 0x24
 80065f2:	4b0d      	ldr	r3, [pc, #52]	; (8006628 <std+0x5c>)
 80065f4:	62a3      	str	r3, [r4, #40]	; 0x28
 80065f6:	4b0d      	ldr	r3, [pc, #52]	; (800662c <std+0x60>)
 80065f8:	62e3      	str	r3, [r4, #44]	; 0x2c
 80065fa:	4b0d      	ldr	r3, [pc, #52]	; (8006630 <std+0x64>)
 80065fc:	6323      	str	r3, [r4, #48]	; 0x30
 80065fe:	4b0d      	ldr	r3, [pc, #52]	; (8006634 <std+0x68>)
 8006600:	6224      	str	r4, [r4, #32]
 8006602:	429c      	cmp	r4, r3
 8006604:	d006      	beq.n	8006614 <std+0x48>
 8006606:	f103 0268 	add.w	r2, r3, #104	; 0x68
 800660a:	4294      	cmp	r4, r2
 800660c:	d002      	beq.n	8006614 <std+0x48>
 800660e:	33d0      	adds	r3, #208	; 0xd0
 8006610:	429c      	cmp	r4, r3
 8006612:	d105      	bne.n	8006620 <std+0x54>
 8006614:	f104 0058 	add.w	r0, r4, #88	; 0x58
 8006618:	e8bd 4010 	ldmia.w	sp!, {r4, lr}
 800661c:	f000 b954 	b.w	80068c8 <__retarget_lock_init_recursive>
 8006620:	bd10      	pop	{r4, pc}
 8006622:	bf00      	nop
 8006624:	08006751 	.word	0x08006751
 8006628:	08006773 	.word	0x08006773
 800662c:	080067ab 	.word	0x080067ab
 8006630:	080067cf 	.word	0x080067cf
 8006634:	20000314 	.word	0x20000314

08006638 <stdio_exit_handler>:
 8006638:	4a02      	ldr	r2, [pc, #8]	; (8006644 <stdio_exit_handler+0xc>)
 800663a:	4903      	ldr	r1, [pc, #12]	; (8006648 <stdio_exit_handler+0x10>)
 800663c:	4803      	ldr	r0, [pc, #12]	; (800664c <stdio_exit_handler+0x14>)
 800663e:	f000 b869 	b.w	8006714 <_fwalk_sglue>
 8006642:	bf00      	nop
 8006644:	20000024 	.word	0x20000024
 8006648:	08006c19 	.word	0x08006c19
 800664c:	20000030 	.word	0x20000030

08006650 <cleanup_stdio>:
 8006650:	6841      	ldr	r1, [r0, #4]
 8006652:	4b0c      	ldr	r3, [pc, #48]	; (8006684 <cleanup_stdio+0x34>)
 8006654:	4299      	cmp	r1, r3
 8006656:	b510      	push	{r4, lr}
 8006658:	4604      	mov	r4, r0
 800665a:	d001      	beq.n	8006660 <cleanup_stdio+0x10>
 800665c:	f000 fadc 	bl	8006c18 <_fflush_r>
 8006660:	68a1      	ldr	r1, [r4, #8]
 8006662:	4b09      	ldr	r3, [pc, #36]	; (8006688 <cleanup_stdio+0x38>)
 8006664:	4299      	cmp	r1, r3
 8006666:	d002      	beq.n	800666e <cleanup_stdio+0x1e>
 8006668:	4620      	mov	r0, r4
 800666a:	f000 fad5 	bl	8006c18 <_fflush_r>
 800666e:	68e1      	ldr	r1, [r4, #12]
 8006670:	4b06      	ldr	r3, [pc, #24]	; (800668c <cleanup_stdio+0x3c>)
 8006672:	4299      	cmp	r1, r3
 8006674:	d004      	beq.n	8006680 <cleanup_stdio+0x30>
 8006676:	4620      	mov	r0, r4
 8006678:	e8bd 4010 	ldmia.w	sp!, {r4, lr}
 800667c:	f000 bacc 	b.w	8006c18 <_fflush_r>
 8006680:	bd10      	pop	{r4, pc}
 8006682:	bf00      	nop
 8006684:	20000314 	.word	0x20000314
 8006688:	2000037c 	.word	0x2000037c
 800668c:	200003e4 	.word	0x200003e4

08006690 <global_stdio_init.part.0>:
 8006690:	b510      	push	{r4, lr}
 8006692:	4b0b      	ldr	r3, [pc, #44]	; (80066c0 <global_stdio_init.part.0+0x30>)
 8006694:	4c0b      	ldr	r4, [pc, #44]	; (80066c4 <global_stdio_init.part.0+0x34>)
 8006696:	4a0c      	ldr	r2, [pc, #48]	; (80066c8 <global_stdio_init.part.0+0x38>)
 8006698:	601a      	str	r2, [r3, #0]
 800669a:	4620      	mov	r0, r4
 800669c:	2200      	movs	r2, #0
 800669e:	2104      	movs	r1, #4
 80066a0:	f7ff ff94 	bl	80065cc <std>
 80066a4:	f104 0068 	add.w	r0, r4, #104	; 0x68
 80066a8:	2201      	movs	r2, #1
 80066aa:	2109      	movs	r1, #9
 80066ac:	f7ff ff8e 	bl	80065cc <std>
 80066b0:	f104 00d0 	add.w	r0, r4, #208	; 0xd0
 80066b4:	2202      	movs	r2, #2
 80066b6:	e8bd 4010 	ldmia.w	sp!, {r4, lr}
 80066ba:	2112      	movs	r1, #18
 80066bc:	f7ff bf86 	b.w	80065cc <std>
 80066c0:	2000044c 	.word	0x2000044c
 80066c4:	20000314 	.word	0x20000314
 80066c8:	08006639 	.word	0x08006639

080066cc <__sfp_lock_acquire>:
 80066cc:	4801      	ldr	r0, [pc, #4]	; (80066d4 <__sfp_lock_acquire+0x8>)
 80066ce:	f000 b8fc 	b.w	80068ca <__retarget_lock_acquire_recursive>
 80066d2:	bf00      	nop
 80066d4:	20000455 	.word	0x20000455

080066d8 <__sfp_lock_release>:
 80066d8:	4801      	ldr	r0, [pc, #4]	; (80066e0 <__sfp_lock_release+0x8>)
 80066da:	f000 b8f7 	b.w	80068cc <__retarget_lock_release_recursive>
 80066de:	bf00      	nop
 80066e0:	20000455 	.word	0x20000455

080066e4 <__sinit>:
 80066e4:	b510      	push	{r4, lr}
 80066e6:	4604      	mov	r4, r0
 80066e8:	f7ff fff0 	bl	80066cc <__sfp_lock_acquire>
 80066ec:	6a23      	ldr	r3, [r4, #32]
 80066ee:	b11b      	cbz	r3, 80066f8 <__sinit+0x14>
 80066f0:	e8bd 4010 	ldmia.w	sp!, {r4, lr}
 80066f4:	f7ff bff0 	b.w	80066d8 <__sfp_lock_release>
 80066f8:	4b04      	ldr	r3, [pc, #16]	; (800670c <__sinit+0x28>)
 80066fa:	6223      	str	r3, [r4, #32]
 80066fc:	4b04      	ldr	r3, [pc, #16]	; (8006710 <__sinit+0x2c>)
 80066fe:	681b      	ldr	r3, [r3, #0]
 8006700:	2b00      	cmp	r3, #0
 8006702:	d1f5      	bne.n	80066f0 <__sinit+0xc>
 8006704:	f7ff ffc4 	bl	8006690 <global_stdio_init.part.0>
 8006708:	e7f2      	b.n	80066f0 <__sinit+0xc>
 800670a:	bf00      	nop
 800670c:	08006651 	.word	0x08006651
 8006710:	2000044c 	.word	0x2000044c

08006714 <_fwalk_sglue>:
 8006714:	e92d 43f8 	stmdb	sp!, {r3, r4, r5, r6, r7, r8, r9, lr}
 8006718:	4607      	mov	r7, r0
 800671a:	4688      	mov	r8, r1
 800671c:	4614      	mov	r4, r2
 800671e:	2600      	movs	r6, #0
 8006720:	e9d4 9501 	ldrd	r9, r5, [r4, #4]
 8006724:	f1b9 0901 	subs.w	r9, r9, #1
 8006728:	d505      	bpl.n	8006736 <_fwalk_sglue+0x22>
 800672a:	6824      	ldr	r4, [r4, #0]
 800672c:	2c00      	cmp	r4, #0
 800672e:	d1f7      	bne.n	8006720 <_fwalk_sglue+0xc>
 8006730:	4630      	mov	r0, r6
 8006732:	e8bd 83f8 	ldmia.w	sp!, {r3, r4, r5, r6, r7, r8, r9, pc}
 8006736:	89ab      	ldrh	r3, [r5, #12]
 8006738:	2b01      	cmp	r3, #1
 800673a:	d907      	bls.n	800674c <_fwalk_sglue+0x38>
 800673c:	f9b5 300e 	ldrsh.w	r3, [r5, #14]
 8006740:	3301      	adds	r3, #1
 8006742:	d003      	beq.n	800674c <_fwalk_sglue+0x38>
 8006744:	4629      	mov	r1, r5
 8006746:	4638      	mov	r0, r7
 8006748:	47c0      	blx	r8
 800674a:	4306      	orrs	r6, r0
 800674c:	3568      	adds	r5, #104	; 0x68
 800674e:	e7e9      	b.n	8006724 <_fwalk_sglue+0x10>

08006750 <__sread>:
 8006750:	b510      	push	{r4, lr}
 8006752:	460c      	mov	r4, r1
 8006754:	f9b1 100e 	ldrsh.w	r1, [r1, #14]
 8006758:	f000 f868 	bl	800682c <_read_r>
 800675c:	2800      	cmp	r0, #0
 800675e:	bfab      	itete	ge
 8006760:	6d63      	ldrge	r3, [r4, #84]	; 0x54
 8006762:	89a3      	ldrhlt	r3, [r4, #12]
 8006764:	181b      	addge	r3, r3, r0
 8006766:	f423 5380 	biclt.w	r3, r3, #4096	; 0x1000
 800676a:	bfac      	ite	ge
 800676c:	6563      	strge	r3, [r4, #84]	; 0x54
 800676e:	81a3      	strhlt	r3, [r4, #12]
 8006770:	bd10      	pop	{r4, pc}

08006772 <__swrite>:
 8006772:	e92d 41f0 	stmdb	sp!, {r4, r5, r6, r7, r8, lr}
 8006776:	461f      	mov	r7, r3
 8006778:	898b      	ldrh	r3, [r1, #12]
 800677a:	05db      	lsls	r3, r3, #23
 800677c:	4605      	mov	r5, r0
 800677e:	460c      	mov	r4, r1
 8006780:	4616      	mov	r6, r2
 8006782:	d505      	bpl.n	8006790 <__swrite+0x1e>
 8006784:	f9b1 100e 	ldrsh.w	r1, [r1, #14]
 8006788:	2302      	movs	r3, #2
 800678a:	2200      	movs	r2, #0
 800678c:	f000 f83c 	bl	8006808 <_lseek_r>
 8006790:	89a3      	ldrh	r3, [r4, #12]
 8006792:	f9b4 100e 	ldrsh.w	r1, [r4, #14]
 8006796:	f423 5380 	bic.w	r3, r3, #4096	; 0x1000
 800679a:	81a3      	strh	r3, [r4, #12]
 800679c:	4632      	mov	r2, r6
 800679e:	463b      	mov	r3, r7
 80067a0:	4628      	mov	r0, r5
 80067a2:	e8bd 41f0 	ldmia.w	sp!, {r4, r5, r6, r7, r8, lr}
 80067a6:	f000 b853 	b.w	8006850 <_write_r>

080067aa <__sseek>:
 80067aa:	b510      	push	{r4, lr}
 80067ac:	460c      	mov	r4, r1
 80067ae:	f9b1 100e 	ldrsh.w	r1, [r1, #14]
 80067b2:	f000 f829 	bl	8006808 <_lseek_r>
 80067b6:	1c43      	adds	r3, r0, #1
 80067b8:	89a3      	ldrh	r3, [r4, #12]
 80067ba:	bf15      	itete	ne
 80067bc:	6560      	strne	r0, [r4, #84]	; 0x54
 80067be:	f423 5380 	biceq.w	r3, r3, #4096	; 0x1000
 80067c2:	f443 5380 	orrne.w	r3, r3, #4096	; 0x1000
 80067c6:	81a3      	strheq	r3, [r4, #12]
 80067c8:	bf18      	it	ne
 80067ca:	81a3      	strhne	r3, [r4, #12]
 80067cc:	bd10      	pop	{r4, pc}

080067ce <__sclose>:
 80067ce:	f9b1 100e 	ldrsh.w	r1, [r1, #14]
 80067d2:	f000 b809 	b.w	80067e8 <_close_r>

080067d6 <memset>:
 80067d6:	4402      	add	r2, r0
 80067d8:	4603      	mov	r3, r0
 80067da:	4293      	cmp	r3, r2
 80067dc:	d100      	bne.n	80067e0 <memset+0xa>
 80067de:	4770      	bx	lr
 80067e0:	f803 1b01 	strb.w	r1, [r3], #1
 80067e4:	e7f9      	b.n	80067da <memset+0x4>
	...

080067e8 <_close_r>:
 80067e8:	b538      	push	{r3, r4, r5, lr}
 80067ea:	4d06      	ldr	r5, [pc, #24]	; (8006804 <_close_r+0x1c>)
 80067ec:	2300      	movs	r3, #0
 80067ee:	4604      	mov	r4, r0
 80067f0:	4608      	mov	r0, r1
 80067f2:	602b      	str	r3, [r5, #0]
 80067f4:	f7fa fe67 	bl	80014c6 <_close>
 80067f8:	1c43      	adds	r3, r0, #1
 80067fa:	d102      	bne.n	8006802 <_close_r+0x1a>
 80067fc:	682b      	ldr	r3, [r5, #0]
 80067fe:	b103      	cbz	r3, 8006802 <_close_r+0x1a>
 8006800:	6023      	str	r3, [r4, #0]
 8006802:	bd38      	pop	{r3, r4, r5, pc}
 8006804:	20000450 	.word	0x20000450

08006808 <_lseek_r>:
 8006808:	b538      	push	{r3, r4, r5, lr}
 800680a:	4d07      	ldr	r5, [pc, #28]	; (8006828 <_lseek_r+0x20>)
 800680c:	4604      	mov	r4, r0
 800680e:	4608      	mov	r0, r1
 8006810:	4611      	mov	r1, r2
 8006812:	2200      	movs	r2, #0
 8006814:	602a      	str	r2, [r5, #0]
 8006816:	461a      	mov	r2, r3
 8006818:	f7fa fe7c 	bl	8001514 <_lseek>
 800681c:	1c43      	adds	r3, r0, #1
 800681e:	d102      	bne.n	8006826 <_lseek_r+0x1e>
 8006820:	682b      	ldr	r3, [r5, #0]
 8006822:	b103      	cbz	r3, 8006826 <_lseek_r+0x1e>
 8006824:	6023      	str	r3, [r4, #0]
 8006826:	bd38      	pop	{r3, r4, r5, pc}
 8006828:	20000450 	.word	0x20000450

0800682c <_read_r>:
 800682c:	b538      	push	{r3, r4, r5, lr}
 800682e:	4d07      	ldr	r5, [pc, #28]	; (800684c <_read_r+0x20>)
 8006830:	4604      	mov	r4, r0
 8006832:	4608      	mov	r0, r1
 8006834:	4611      	mov	r1, r2
 8006836:	2200      	movs	r2, #0
 8006838:	602a      	str	r2, [r5, #0]
 800683a:	461a      	mov	r2, r3
 800683c:	f7fa fe0a 	bl	8001454 <_read>
 8006840:	1c43      	adds	r3, r0, #1
 8006842:	d102      	bne.n	800684a <_read_r+0x1e>
 8006844:	682b      	ldr	r3, [r5, #0]
 8006846:	b103      	cbz	r3, 800684a <_read_r+0x1e>
 8006848:	6023      	str	r3, [r4, #0]
 800684a:	bd38      	pop	{r3, r4, r5, pc}
 800684c:	20000450 	.word	0x20000450

08006850 <_write_r>:
 8006850:	b538      	push	{r3, r4, r5, lr}
 8006852:	4d07      	ldr	r5, [pc, #28]	; (8006870 <_write_r+0x20>)
 8006854:	4604      	mov	r4, r0
 8006856:	4608      	mov	r0, r1
 8006858:	4611      	mov	r1, r2
 800685a:	2200      	movs	r2, #0
 800685c:	602a      	str	r2, [r5, #0]
 800685e:	461a      	mov	r2, r3
 8006860:	f7fa fe15 	bl	800148e <_write>
 8006864:	1c43      	adds	r3, r0, #1
 8006866:	d102      	bne.n	800686e <_write_r+0x1e>
 8006868:	682b      	ldr	r3, [r5, #0]
 800686a:	b103      	cbz	r3, 800686e <_write_r+0x1e>
 800686c:	6023      	str	r3, [r4, #0]
 800686e:	bd38      	pop	{r3, r4, r5, pc}
 8006870:	20000450 	.word	0x20000450

08006874 <__errno>:
 8006874:	4b01      	ldr	r3, [pc, #4]	; (800687c <__errno+0x8>)
 8006876:	6818      	ldr	r0, [r3, #0]
 8006878:	4770      	bx	lr
 800687a:	bf00      	nop
 800687c:	2000007c 	.word	0x2000007c

08006880 <__libc_init_array>:
 8006880:	b570      	push	{r4, r5, r6, lr}
 8006882:	4d0d      	ldr	r5, [pc, #52]	; (80068b8 <__libc_init_array+0x38>)
 8006884:	4c0d      	ldr	r4, [pc, #52]	; (80068bc <__libc_init_array+0x3c>)
 8006886:	1b64      	subs	r4, r4, r5
 8006888:	10a4      	asrs	r4, r4, #2
 800688a:	2600      	movs	r6, #0
 800688c:	42a6      	cmp	r6, r4
 800688e:	d109      	bne.n	80068a4 <__libc_init_array+0x24>
 8006890:	4d0b      	ldr	r5, [pc, #44]	; (80068c0 <__libc_init_array+0x40>)
 8006892:	4c0c      	ldr	r4, [pc, #48]	; (80068c4 <__libc_init_array+0x44>)
 8006894:	f000 fe42 	bl	800751c <_init>
 8006898:	1b64      	subs	r4, r4, r5
 800689a:	10a4      	asrs	r4, r4, #2
 800689c:	2600      	movs	r6, #0
 800689e:	42a6      	cmp	r6, r4
 80068a0:	d105      	bne.n	80068ae <__libc_init_array+0x2e>
 80068a2:	bd70      	pop	{r4, r5, r6, pc}
 80068a4:	f855 3b04 	ldr.w	r3, [r5], #4
 80068a8:	4798      	blx	r3
 80068aa:	3601      	adds	r6, #1
 80068ac:	e7ee      	b.n	800688c <__libc_init_array+0xc>
 80068ae:	f855 3b04 	ldr.w	r3, [r5], #4
 80068b2:	4798      	blx	r3
 80068b4:	3601      	adds	r6, #1
 80068b6:	e7f2      	b.n	800689e <__libc_init_array+0x1e>
 80068b8:	0800765c 	.word	0x0800765c
 80068bc:	0800765c 	.word	0x0800765c
 80068c0:	0800765c 	.word	0x0800765c
 80068c4:	08007660 	.word	0x08007660

080068c8 <__retarget_lock_init_recursive>:
 80068c8:	4770      	bx	lr

080068ca <__retarget_lock_acquire_recursive>:
 80068ca:	4770      	bx	lr

080068cc <__retarget_lock_release_recursive>:
 80068cc:	4770      	bx	lr
	...

080068d0 <__assert_func>:
 80068d0:	b51f      	push	{r0, r1, r2, r3, r4, lr}
 80068d2:	4614      	mov	r4, r2
 80068d4:	461a      	mov	r2, r3
 80068d6:	4b09      	ldr	r3, [pc, #36]	; (80068fc <__assert_func+0x2c>)
 80068d8:	681b      	ldr	r3, [r3, #0]
 80068da:	4605      	mov	r5, r0
 80068dc:	68d8      	ldr	r0, [r3, #12]
 80068de:	b14c      	cbz	r4, 80068f4 <__assert_func+0x24>
 80068e0:	4b07      	ldr	r3, [pc, #28]	; (8006900 <__assert_func+0x30>)
 80068e2:	9100      	str	r1, [sp, #0]
 80068e4:	e9cd 3401 	strd	r3, r4, [sp, #4]
 80068e8:	4906      	ldr	r1, [pc, #24]	; (8006904 <__assert_func+0x34>)
 80068ea:	462b      	mov	r3, r5
 80068ec:	f000 f9bc 	bl	8006c68 <fiprintf>
 80068f0:	f000 f9dc 	bl	8006cac <abort>
 80068f4:	4b04      	ldr	r3, [pc, #16]	; (8006908 <__assert_func+0x38>)
 80068f6:	461c      	mov	r4, r3
 80068f8:	e7f3      	b.n	80068e2 <__assert_func+0x12>
 80068fa:	bf00      	nop
 80068fc:	2000007c 	.word	0x2000007c
 8006900:	080075e3 	.word	0x080075e3
 8006904:	080075f0 	.word	0x080075f0
 8006908:	0800761e 	.word	0x0800761e

0800690c <_free_r>:
 800690c:	b537      	push	{r0, r1, r2, r4, r5, lr}
 800690e:	2900      	cmp	r1, #0
 8006910:	d044      	beq.n	800699c <_free_r+0x90>
 8006912:	f851 3c04 	ldr.w	r3, [r1, #-4]
 8006916:	9001      	str	r0, [sp, #4]
 8006918:	2b00      	cmp	r3, #0
 800691a:	f1a1 0404 	sub.w	r4, r1, #4
 800691e:	bfb8      	it	lt
 8006920:	18e4      	addlt	r4, r4, r3
 8006922:	f000 f8e7 	bl	8006af4 <__malloc_lock>
 8006926:	4a1e      	ldr	r2, [pc, #120]	; (80069a0 <_free_r+0x94>)
 8006928:	9801      	ldr	r0, [sp, #4]
 800692a:	6813      	ldr	r3, [r2, #0]
 800692c:	b933      	cbnz	r3, 800693c <_free_r+0x30>
 800692e:	6063      	str	r3, [r4, #4]
 8006930:	6014      	str	r4, [r2, #0]
 8006932:	b003      	add	sp, #12
 8006934:	e8bd 4030 	ldmia.w	sp!, {r4, r5, lr}
 8006938:	f000 b8e2 	b.w	8006b00 <__malloc_unlock>
 800693c:	42a3      	cmp	r3, r4
 800693e:	d908      	bls.n	8006952 <_free_r+0x46>
 8006940:	6825      	ldr	r5, [r4, #0]
 8006942:	1961      	adds	r1, r4, r5
 8006944:	428b      	cmp	r3, r1
 8006946:	bf01      	itttt	eq
 8006948:	6819      	ldreq	r1, [r3, #0]
 800694a:	685b      	ldreq	r3, [r3, #4]
 800694c:	1949      	addeq	r1, r1, r5
 800694e:	6021      	streq	r1, [r4, #0]
 8006950:	e7ed      	b.n	800692e <_free_r+0x22>
 8006952:	461a      	mov	r2, r3
 8006954:	685b      	ldr	r3, [r3, #4]
 8006956:	b10b      	cbz	r3, 800695c <_free_r+0x50>
 8006958:	42a3      	cmp	r3, r4
 800695a:	d9fa      	bls.n	8006952 <_free_r+0x46>
 800695c:	6811      	ldr	r1, [r2, #0]
 800695e:	1855      	adds	r5, r2, r1
 8006960:	42a5      	cmp	r5, r4
 8006962:	d10b      	bne.n	800697c <_free_r+0x70>
 8006964:	6824      	ldr	r4, [r4, #0]
 8006966:	4421      	add	r1, r4
 8006968:	1854      	adds	r4, r2, r1
 800696a:	42a3      	cmp	r3, r4
 800696c:	6011      	str	r1, [r2, #0]
 800696e:	d1e0      	bne.n	8006932 <_free_r+0x26>
 8006970:	681c      	ldr	r4, [r3, #0]
 8006972:	685b      	ldr	r3, [r3, #4]
 8006974:	6053      	str	r3, [r2, #4]
 8006976:	440c      	add	r4, r1
 8006978:	6014      	str	r4, [r2, #0]
 800697a:	e7da      	b.n	8006932 <_free_r+0x26>
 800697c:	d902      	bls.n	8006984 <_free_r+0x78>
 800697e:	230c      	movs	r3, #12
 8006980:	6003      	str	r3, [r0, #0]
 8006982:	e7d6      	b.n	8006932 <_free_r+0x26>
 8006984:	6825      	ldr	r5, [r4, #0]
 8006986:	1961      	adds	r1, r4, r5
 8006988:	428b      	cmp	r3, r1
 800698a:	bf04      	itt	eq
 800698c:	6819      	ldreq	r1, [r3, #0]
 800698e:	685b      	ldreq	r3, [r3, #4]
 8006990:	6063      	str	r3, [r4, #4]
 8006992:	bf04      	itt	eq
 8006994:	1949      	addeq	r1, r1, r5
 8006996:	6021      	streq	r1, [r4, #0]
 8006998:	6054      	str	r4, [r2, #4]
 800699a:	e7ca      	b.n	8006932 <_free_r+0x26>
 800699c:	b003      	add	sp, #12
 800699e:	bd30      	pop	{r4, r5, pc}
 80069a0:	20000458 	.word	0x20000458

080069a4 <malloc>:
 80069a4:	4b02      	ldr	r3, [pc, #8]	; (80069b0 <malloc+0xc>)
 80069a6:	4601      	mov	r1, r0
 80069a8:	6818      	ldr	r0, [r3, #0]
 80069aa:	f000 b823 	b.w	80069f4 <_malloc_r>
 80069ae:	bf00      	nop
 80069b0:	2000007c 	.word	0x2000007c

080069b4 <sbrk_aligned>:
 80069b4:	b570      	push	{r4, r5, r6, lr}
 80069b6:	4e0e      	ldr	r6, [pc, #56]	; (80069f0 <sbrk_aligned+0x3c>)
 80069b8:	460c      	mov	r4, r1
 80069ba:	6831      	ldr	r1, [r6, #0]
 80069bc:	4605      	mov	r5, r0
 80069be:	b911      	cbnz	r1, 80069c6 <sbrk_aligned+0x12>
 80069c0:	f000 f964 	bl	8006c8c <_sbrk_r>
 80069c4:	6030      	str	r0, [r6, #0]
 80069c6:	4621      	mov	r1, r4
 80069c8:	4628      	mov	r0, r5
 80069ca:	f000 f95f 	bl	8006c8c <_sbrk_r>
 80069ce:	1c43      	adds	r3, r0, #1
 80069d0:	d00a      	beq.n	80069e8 <sbrk_aligned+0x34>
 80069d2:	1cc4      	adds	r4, r0, #3
 80069d4:	f024 0403 	bic.w	r4, r4, #3
 80069d8:	42a0      	cmp	r0, r4
 80069da:	d007      	beq.n	80069ec <sbrk_aligned+0x38>
 80069dc:	1a21      	subs	r1, r4, r0
 80069de:	4628      	mov	r0, r5
 80069e0:	f000 f954 	bl	8006c8c <_sbrk_r>
 80069e4:	3001      	adds	r0, #1
 80069e6:	d101      	bne.n	80069ec <sbrk_aligned+0x38>
 80069e8:	f04f 34ff 	mov.w	r4, #4294967295
 80069ec:	4620      	mov	r0, r4
 80069ee:	bd70      	pop	{r4, r5, r6, pc}
 80069f0:	2000045c 	.word	0x2000045c

080069f4 <_malloc_r>:
 80069f4:	e92d 43f8 	stmdb	sp!, {r3, r4, r5, r6, r7, r8, r9, lr}
 80069f8:	1ccd      	adds	r5, r1, #3
 80069fa:	f025 0503 	bic.w	r5, r5, #3
 80069fe:	3508      	adds	r5, #8
 8006a00:	2d0c      	cmp	r5, #12
 8006a02:	bf38      	it	cc
 8006a04:	250c      	movcc	r5, #12
 8006a06:	2d00      	cmp	r5, #0
 8006a08:	4607      	mov	r7, r0
 8006a0a:	db01      	blt.n	8006a10 <_malloc_r+0x1c>
 8006a0c:	42a9      	cmp	r1, r5
 8006a0e:	d905      	bls.n	8006a1c <_malloc_r+0x28>
 8006a10:	230c      	movs	r3, #12
 8006a12:	603b      	str	r3, [r7, #0]
 8006a14:	2600      	movs	r6, #0
 8006a16:	4630      	mov	r0, r6
 8006a18:	e8bd 83f8 	ldmia.w	sp!, {r3, r4, r5, r6, r7, r8, r9, pc}
 8006a1c:	f8df 80d0 	ldr.w	r8, [pc, #208]	; 8006af0 <_malloc_r+0xfc>
 8006a20:	f000 f868 	bl	8006af4 <__malloc_lock>
 8006a24:	f8d8 3000 	ldr.w	r3, [r8]
 8006a28:	461c      	mov	r4, r3
 8006a2a:	bb5c      	cbnz	r4, 8006a84 <_malloc_r+0x90>
 8006a2c:	4629      	mov	r1, r5
 8006a2e:	4638      	mov	r0, r7
 8006a30:	f7ff ffc0 	bl	80069b4 <sbrk_aligned>
 8006a34:	1c43      	adds	r3, r0, #1
 8006a36:	4604      	mov	r4, r0
 8006a38:	d155      	bne.n	8006ae6 <_malloc_r+0xf2>
 8006a3a:	f8d8 4000 	ldr.w	r4, [r8]
 8006a3e:	4626      	mov	r6, r4
 8006a40:	2e00      	cmp	r6, #0
 8006a42:	d145      	bne.n	8006ad0 <_malloc_r+0xdc>
 8006a44:	2c00      	cmp	r4, #0
 8006a46:	d048      	beq.n	8006ada <_malloc_r+0xe6>
 8006a48:	6823      	ldr	r3, [r4, #0]
 8006a4a:	4631      	mov	r1, r6
 8006a4c:	4638      	mov	r0, r7
 8006a4e:	eb04 0903 	add.w	r9, r4, r3
 8006a52:	f000 f91b 	bl	8006c8c <_sbrk_r>
 8006a56:	4581      	cmp	r9, r0
 8006a58:	d13f      	bne.n	8006ada <_malloc_r+0xe6>
 8006a5a:	6821      	ldr	r1, [r4, #0]
 8006a5c:	1a6d      	subs	r5, r5, r1
 8006a5e:	4629      	mov	r1, r5
 8006a60:	4638      	mov	r0, r7
 8006a62:	f7ff ffa7 	bl	80069b4 <sbrk_aligned>
 8006a66:	3001      	adds	r0, #1
 8006a68:	d037      	beq.n	8006ada <_malloc_r+0xe6>
 8006a6a:	6823      	ldr	r3, [r4, #0]
 8006a6c:	442b      	add	r3, r5
 8006a6e:	6023      	str	r3, [r4, #0]
 8006a70:	f8d8 3000 	ldr.w	r3, [r8]
 8006a74:	2b00      	cmp	r3, #0
 8006a76:	d038      	beq.n	8006aea <_malloc_r+0xf6>
 8006a78:	685a      	ldr	r2, [r3, #4]
 8006a7a:	42a2      	cmp	r2, r4
 8006a7c:	d12b      	bne.n	8006ad6 <_malloc_r+0xe2>
 8006a7e:	2200      	movs	r2, #0
 8006a80:	605a      	str	r2, [r3, #4]
 8006a82:	e00f      	b.n	8006aa4 <_malloc_r+0xb0>
 8006a84:	6822      	ldr	r2, [r4, #0]
 8006a86:	1b52      	subs	r2, r2, r5
 8006a88:	d41f      	bmi.n	8006aca <_malloc_r+0xd6>
 8006a8a:	2a0b      	cmp	r2, #11
 8006a8c:	d917      	bls.n	8006abe <_malloc_r+0xca>
 8006a8e:	1961      	adds	r1, r4, r5
 8006a90:	42a3      	cmp	r3, r4
 8006a92:	6025      	str	r5, [r4, #0]
 8006a94:	bf18      	it	ne
 8006a96:	6059      	strne	r1, [r3, #4]
 8006a98:	6863      	ldr	r3, [r4, #4]
 8006a9a:	bf08      	it	eq
 8006a9c:	f8c8 1000 	streq.w	r1, [r8]
 8006aa0:	5162      	str	r2, [r4, r5]
 8006aa2:	604b      	str	r3, [r1, #4]
 8006aa4:	4638      	mov	r0, r7
 8006aa6:	f104 060b 	add.w	r6, r4, #11
 8006aaa:	f000 f829 	bl	8006b00 <__malloc_unlock>
 8006aae:	f026 0607 	bic.w	r6, r6, #7
 8006ab2:	1d23      	adds	r3, r4, #4
 8006ab4:	1af2      	subs	r2, r6, r3
 8006ab6:	d0ae      	beq.n	8006a16 <_malloc_r+0x22>
 8006ab8:	1b9b      	subs	r3, r3, r6
 8006aba:	50a3      	str	r3, [r4, r2]
 8006abc:	e7ab      	b.n	8006a16 <_malloc_r+0x22>
 8006abe:	42a3      	cmp	r3, r4
 8006ac0:	6862      	ldr	r2, [r4, #4]
 8006ac2:	d1dd      	bne.n	8006a80 <_malloc_r+0x8c>
 8006ac4:	f8c8 2000 	str.w	r2, [r8]
 8006ac8:	e7ec      	b.n	8006aa4 <_malloc_r+0xb0>
 8006aca:	4623      	mov	r3, r4
 8006acc:	6864      	ldr	r4, [r4, #4]
 8006ace:	e7ac      	b.n	8006a2a <_malloc_r+0x36>
 8006ad0:	4634      	mov	r4, r6
 8006ad2:	6876      	ldr	r6, [r6, #4]
 8006ad4:	e7b4      	b.n	8006a40 <_malloc_r+0x4c>
 8006ad6:	4613      	mov	r3, r2
 8006ad8:	e7cc      	b.n	8006a74 <_malloc_r+0x80>
 8006ada:	230c      	movs	r3, #12
 8006adc:	603b      	str	r3, [r7, #0]
 8006ade:	4638      	mov	r0, r7
 8006ae0:	f000 f80e 	bl	8006b00 <__malloc_unlock>
 8006ae4:	e797      	b.n	8006a16 <_malloc_r+0x22>
 8006ae6:	6025      	str	r5, [r4, #0]
 8006ae8:	e7dc      	b.n	8006aa4 <_malloc_r+0xb0>
 8006aea:	605b      	str	r3, [r3, #4]
 8006aec:	deff      	udf	#255	; 0xff
 8006aee:	bf00      	nop
 8006af0:	20000458 	.word	0x20000458

08006af4 <__malloc_lock>:
 8006af4:	4801      	ldr	r0, [pc, #4]	; (8006afc <__malloc_lock+0x8>)
 8006af6:	f7ff bee8 	b.w	80068ca <__retarget_lock_acquire_recursive>
 8006afa:	bf00      	nop
 8006afc:	20000454 	.word	0x20000454

08006b00 <__malloc_unlock>:
 8006b00:	4801      	ldr	r0, [pc, #4]	; (8006b08 <__malloc_unlock+0x8>)
 8006b02:	f7ff bee3 	b.w	80068cc <__retarget_lock_release_recursive>
 8006b06:	bf00      	nop
 8006b08:	20000454 	.word	0x20000454

08006b0c <__sflush_r>:
 8006b0c:	898a      	ldrh	r2, [r1, #12]
 8006b0e:	e92d 41f0 	stmdb	sp!, {r4, r5, r6, r7, r8, lr}
 8006b12:	4605      	mov	r5, r0
 8006b14:	0710      	lsls	r0, r2, #28
 8006b16:	460c      	mov	r4, r1
 8006b18:	d458      	bmi.n	8006bcc <__sflush_r+0xc0>
 8006b1a:	684b      	ldr	r3, [r1, #4]
 8006b1c:	2b00      	cmp	r3, #0
 8006b1e:	dc05      	bgt.n	8006b2c <__sflush_r+0x20>
 8006b20:	6c0b      	ldr	r3, [r1, #64]	; 0x40
 8006b22:	2b00      	cmp	r3, #0
 8006b24:	dc02      	bgt.n	8006b2c <__sflush_r+0x20>
 8006b26:	2000      	movs	r0, #0
 8006b28:	e8bd 81f0 	ldmia.w	sp!, {r4, r5, r6, r7, r8, pc}
 8006b2c:	6ae6      	ldr	r6, [r4, #44]	; 0x2c
 8006b2e:	2e00      	cmp	r6, #0
 8006b30:	d0f9      	beq.n	8006b26 <__sflush_r+0x1a>
 8006b32:	2300      	movs	r3, #0
 8006b34:	f412 5280 	ands.w	r2, r2, #4096	; 0x1000
 8006b38:	682f      	ldr	r7, [r5, #0]
 8006b3a:	6a21      	ldr	r1, [r4, #32]
 8006b3c:	602b      	str	r3, [r5, #0]
 8006b3e:	d032      	beq.n	8006ba6 <__sflush_r+0x9a>
 8006b40:	6d60      	ldr	r0, [r4, #84]	; 0x54
 8006b42:	89a3      	ldrh	r3, [r4, #12]
 8006b44:	075a      	lsls	r2, r3, #29
 8006b46:	d505      	bpl.n	8006b54 <__sflush_r+0x48>
 8006b48:	6863      	ldr	r3, [r4, #4]
 8006b4a:	1ac0      	subs	r0, r0, r3
 8006b4c:	6b63      	ldr	r3, [r4, #52]	; 0x34
 8006b4e:	b10b      	cbz	r3, 8006b54 <__sflush_r+0x48>
 8006b50:	6c23      	ldr	r3, [r4, #64]	; 0x40
 8006b52:	1ac0      	subs	r0, r0, r3
 8006b54:	2300      	movs	r3, #0
 8006b56:	4602      	mov	r2, r0
 8006b58:	6ae6      	ldr	r6, [r4, #44]	; 0x2c
 8006b5a:	6a21      	ldr	r1, [r4, #32]
 8006b5c:	4628      	mov	r0, r5
 8006b5e:	47b0      	blx	r6
 8006b60:	1c43      	adds	r3, r0, #1
 8006b62:	89a3      	ldrh	r3, [r4, #12]
 8006b64:	d106      	bne.n	8006b74 <__sflush_r+0x68>
 8006b66:	6829      	ldr	r1, [r5, #0]
 8006b68:	291d      	cmp	r1, #29
 8006b6a:	d82b      	bhi.n	8006bc4 <__sflush_r+0xb8>
 8006b6c:	4a29      	ldr	r2, [pc, #164]	; (8006c14 <__sflush_r+0x108>)
 8006b6e:	410a      	asrs	r2, r1
 8006b70:	07d6      	lsls	r6, r2, #31
 8006b72:	d427      	bmi.n	8006bc4 <__sflush_r+0xb8>
 8006b74:	2200      	movs	r2, #0
 8006b76:	6062      	str	r2, [r4, #4]
 8006b78:	04d9      	lsls	r1, r3, #19
 8006b7a:	6922      	ldr	r2, [r4, #16]
 8006b7c:	6022      	str	r2, [r4, #0]
 8006b7e:	d504      	bpl.n	8006b8a <__sflush_r+0x7e>
 8006b80:	1c42      	adds	r2, r0, #1
 8006b82:	d101      	bne.n	8006b88 <__sflush_r+0x7c>
 8006b84:	682b      	ldr	r3, [r5, #0]
 8006b86:	b903      	cbnz	r3, 8006b8a <__sflush_r+0x7e>
 8006b88:	6560      	str	r0, [r4, #84]	; 0x54
 8006b8a:	6b61      	ldr	r1, [r4, #52]	; 0x34
 8006b8c:	602f      	str	r7, [r5, #0]
 8006b8e:	2900      	cmp	r1, #0
 8006b90:	d0c9      	beq.n	8006b26 <__sflush_r+0x1a>
 8006b92:	f104 0344 	add.w	r3, r4, #68	; 0x44
 8006b96:	4299      	cmp	r1, r3
 8006b98:	d002      	beq.n	8006ba0 <__sflush_r+0x94>
 8006b9a:	4628      	mov	r0, r5
 8006b9c:	f7ff feb6 	bl	800690c <_free_r>
 8006ba0:	2000      	movs	r0, #0
 8006ba2:	6360      	str	r0, [r4, #52]	; 0x34
 8006ba4:	e7c0      	b.n	8006b28 <__sflush_r+0x1c>
 8006ba6:	2301      	movs	r3, #1
 8006ba8:	4628      	mov	r0, r5
 8006baa:	47b0      	blx	r6
 8006bac:	1c41      	adds	r1, r0, #1
 8006bae:	d1c8      	bne.n	8006b42 <__sflush_r+0x36>
 8006bb0:	682b      	ldr	r3, [r5, #0]
 8006bb2:	2b00      	cmp	r3, #0
 8006bb4:	d0c5      	beq.n	8006b42 <__sflush_r+0x36>
 8006bb6:	2b1d      	cmp	r3, #29
 8006bb8:	d001      	beq.n	8006bbe <__sflush_r+0xb2>
 8006bba:	2b16      	cmp	r3, #22
 8006bbc:	d101      	bne.n	8006bc2 <__sflush_r+0xb6>
 8006bbe:	602f      	str	r7, [r5, #0]
 8006bc0:	e7b1      	b.n	8006b26 <__sflush_r+0x1a>
 8006bc2:	89a3      	ldrh	r3, [r4, #12]
 8006bc4:	f043 0340 	orr.w	r3, r3, #64	; 0x40
 8006bc8:	81a3      	strh	r3, [r4, #12]
 8006bca:	e7ad      	b.n	8006b28 <__sflush_r+0x1c>
 8006bcc:	690f      	ldr	r7, [r1, #16]
 8006bce:	2f00      	cmp	r7, #0
 8006bd0:	d0a9      	beq.n	8006b26 <__sflush_r+0x1a>
 8006bd2:	0793      	lsls	r3, r2, #30
 8006bd4:	680e      	ldr	r6, [r1, #0]
 8006bd6:	bf08      	it	eq
 8006bd8:	694b      	ldreq	r3, [r1, #20]
 8006bda:	600f      	str	r7, [r1, #0]
 8006bdc:	bf18      	it	ne
 8006bde:	2300      	movne	r3, #0
 8006be0:	eba6 0807 	sub.w	r8, r6, r7
 8006be4:	608b      	str	r3, [r1, #8]
 8006be6:	f1b8 0f00 	cmp.w	r8, #0
 8006bea:	dd9c      	ble.n	8006b26 <__sflush_r+0x1a>
 8006bec:	6a21      	ldr	r1, [r4, #32]
 8006bee:	6aa6      	ldr	r6, [r4, #40]	; 0x28
 8006bf0:	4643      	mov	r3, r8
 8006bf2:	463a      	mov	r2, r7
 8006bf4:	4628      	mov	r0, r5
 8006bf6:	47b0      	blx	r6
 8006bf8:	2800      	cmp	r0, #0
 8006bfa:	dc06      	bgt.n	8006c0a <__sflush_r+0xfe>
 8006bfc:	89a3      	ldrh	r3, [r4, #12]
 8006bfe:	f043 0340 	orr.w	r3, r3, #64	; 0x40
 8006c02:	81a3      	strh	r3, [r4, #12]
 8006c04:	f04f 30ff 	mov.w	r0, #4294967295
 8006c08:	e78e      	b.n	8006b28 <__sflush_r+0x1c>
 8006c0a:	4407      	add	r7, r0
 8006c0c:	eba8 0800 	sub.w	r8, r8, r0
 8006c10:	e7e9      	b.n	8006be6 <__sflush_r+0xda>
 8006c12:	bf00      	nop
 8006c14:	dfbffffe 	.word	0xdfbffffe

08006c18 <_fflush_r>:
 8006c18:	b538      	push	{r3, r4, r5, lr}
 8006c1a:	690b      	ldr	r3, [r1, #16]
 8006c1c:	4605      	mov	r5, r0
 8006c1e:	460c      	mov	r4, r1
 8006c20:	b913      	cbnz	r3, 8006c28 <_fflush_r+0x10>
 8006c22:	2500      	movs	r5, #0
 8006c24:	4628      	mov	r0, r5
 8006c26:	bd38      	pop	{r3, r4, r5, pc}
 8006c28:	b118      	cbz	r0, 8006c32 <_fflush_r+0x1a>
 8006c2a:	6a03      	ldr	r3, [r0, #32]
 8006c2c:	b90b      	cbnz	r3, 8006c32 <_fflush_r+0x1a>
 8006c2e:	f7ff fd59 	bl	80066e4 <__sinit>
 8006c32:	f9b4 300c 	ldrsh.w	r3, [r4, #12]
 8006c36:	2b00      	cmp	r3, #0
 8006c38:	d0f3      	beq.n	8006c22 <_fflush_r+0xa>
 8006c3a:	6e62      	ldr	r2, [r4, #100]	; 0x64
 8006c3c:	07d0      	lsls	r0, r2, #31
 8006c3e:	d404      	bmi.n	8006c4a <_fflush_r+0x32>
 8006c40:	0599      	lsls	r1, r3, #22
 8006c42:	d402      	bmi.n	8006c4a <_fflush_r+0x32>
 8006c44:	6da0      	ldr	r0, [r4, #88]	; 0x58
 8006c46:	f7ff fe40 	bl	80068ca <__retarget_lock_acquire_recursive>
 8006c4a:	4628      	mov	r0, r5
 8006c4c:	4621      	mov	r1, r4
 8006c4e:	f7ff ff5d 	bl	8006b0c <__sflush_r>
 8006c52:	6e63      	ldr	r3, [r4, #100]	; 0x64
 8006c54:	07da      	lsls	r2, r3, #31
 8006c56:	4605      	mov	r5, r0
 8006c58:	d4e4      	bmi.n	8006c24 <_fflush_r+0xc>
 8006c5a:	89a3      	ldrh	r3, [r4, #12]
 8006c5c:	059b      	lsls	r3, r3, #22
 8006c5e:	d4e1      	bmi.n	8006c24 <_fflush_r+0xc>
 8006c60:	6da0      	ldr	r0, [r4, #88]	; 0x58
 8006c62:	f7ff fe33 	bl	80068cc <__retarget_lock_release_recursive>
 8006c66:	e7dd      	b.n	8006c24 <_fflush_r+0xc>

08006c68 <fiprintf>:
 8006c68:	b40e      	push	{r1, r2, r3}
 8006c6a:	b503      	push	{r0, r1, lr}
 8006c6c:	4601      	mov	r1, r0
 8006c6e:	ab03      	add	r3, sp, #12
 8006c70:	4805      	ldr	r0, [pc, #20]	; (8006c88 <fiprintf+0x20>)
 8006c72:	f853 2b04 	ldr.w	r2, [r3], #4
 8006c76:	6800      	ldr	r0, [r0, #0]
 8006c78:	9301      	str	r3, [sp, #4]
 8006c7a:	f000 f847 	bl	8006d0c <_vfiprintf_r>
 8006c7e:	b002      	add	sp, #8
 8006c80:	f85d eb04 	ldr.w	lr, [sp], #4
 8006c84:	b003      	add	sp, #12
 8006c86:	4770      	bx	lr
 8006c88:	2000007c 	.word	0x2000007c

08006c8c <_sbrk_r>:
 8006c8c:	b538      	push	{r3, r4, r5, lr}
 8006c8e:	4d06      	ldr	r5, [pc, #24]	; (8006ca8 <_sbrk_r+0x1c>)
 8006c90:	2300      	movs	r3, #0
 8006c92:	4604      	mov	r4, r0
 8006c94:	4608      	mov	r0, r1
 8006c96:	602b      	str	r3, [r5, #0]
 8006c98:	f7fa fc4a 	bl	8001530 <_sbrk>
 8006c9c:	1c43      	adds	r3, r0, #1
 8006c9e:	d102      	bne.n	8006ca6 <_sbrk_r+0x1a>
 8006ca0:	682b      	ldr	r3, [r5, #0]
 8006ca2:	b103      	cbz	r3, 8006ca6 <_sbrk_r+0x1a>
 8006ca4:	6023      	str	r3, [r4, #0]
 8006ca6:	bd38      	pop	{r3, r4, r5, pc}
 8006ca8:	20000450 	.word	0x20000450

08006cac <abort>:
 8006cac:	b508      	push	{r3, lr}
 8006cae:	2006      	movs	r0, #6
 8006cb0:	f000 fb94 	bl	80073dc <raise>
 8006cb4:	2001      	movs	r0, #1
 8006cb6:	f7fa fbc3 	bl	8001440 <_exit>

08006cba <__sfputc_r>:
 8006cba:	6893      	ldr	r3, [r2, #8]
 8006cbc:	3b01      	subs	r3, #1
 8006cbe:	2b00      	cmp	r3, #0
 8006cc0:	b410      	push	{r4}
 8006cc2:	6093      	str	r3, [r2, #8]
 8006cc4:	da08      	bge.n	8006cd8 <__sfputc_r+0x1e>
 8006cc6:	6994      	ldr	r4, [r2, #24]
 8006cc8:	42a3      	cmp	r3, r4
 8006cca:	db01      	blt.n	8006cd0 <__sfputc_r+0x16>
 8006ccc:	290a      	cmp	r1, #10
 8006cce:	d103      	bne.n	8006cd8 <__sfputc_r+0x1e>
 8006cd0:	f85d 4b04 	ldr.w	r4, [sp], #4
 8006cd4:	f000 bac4 	b.w	8007260 <__swbuf_r>
 8006cd8:	6813      	ldr	r3, [r2, #0]
 8006cda:	1c58      	adds	r0, r3, #1
 8006cdc:	6010      	str	r0, [r2, #0]
 8006cde:	7019      	strb	r1, [r3, #0]
 8006ce0:	4608      	mov	r0, r1
 8006ce2:	f85d 4b04 	ldr.w	r4, [sp], #4
 8006ce6:	4770      	bx	lr

08006ce8 <__sfputs_r>:
 8006ce8:	b5f8      	push	{r3, r4, r5, r6, r7, lr}
 8006cea:	4606      	mov	r6, r0
 8006cec:	460f      	mov	r7, r1
 8006cee:	4614      	mov	r4, r2
 8006cf0:	18d5      	adds	r5, r2, r3
 8006cf2:	42ac      	cmp	r4, r5
 8006cf4:	d101      	bne.n	8006cfa <__sfputs_r+0x12>
 8006cf6:	2000      	movs	r0, #0
 8006cf8:	e007      	b.n	8006d0a <__sfputs_r+0x22>
 8006cfa:	f814 1b01 	ldrb.w	r1, [r4], #1
 8006cfe:	463a      	mov	r2, r7
 8006d00:	4630      	mov	r0, r6
 8006d02:	f7ff ffda 	bl	8006cba <__sfputc_r>
 8006d06:	1c43      	adds	r3, r0, #1
 8006d08:	d1f3      	bne.n	8006cf2 <__sfputs_r+0xa>
 8006d0a:	bdf8      	pop	{r3, r4, r5, r6, r7, pc}

08006d0c <_vfiprintf_r>:
 8006d0c:	e92d 4ff0 	stmdb	sp!, {r4, r5, r6, r7, r8, r9, sl, fp, lr}
 8006d10:	460d      	mov	r5, r1
 8006d12:	b09d      	sub	sp, #116	; 0x74
 8006d14:	4614      	mov	r4, r2
 8006d16:	4698      	mov	r8, r3
 8006d18:	4606      	mov	r6, r0
 8006d1a:	b118      	cbz	r0, 8006d24 <_vfiprintf_r+0x18>
 8006d1c:	6a03      	ldr	r3, [r0, #32]
 8006d1e:	b90b      	cbnz	r3, 8006d24 <_vfiprintf_r+0x18>
 8006d20:	f7ff fce0 	bl	80066e4 <__sinit>
 8006d24:	6e6b      	ldr	r3, [r5, #100]	; 0x64
 8006d26:	07d9      	lsls	r1, r3, #31
 8006d28:	d405      	bmi.n	8006d36 <_vfiprintf_r+0x2a>
 8006d2a:	89ab      	ldrh	r3, [r5, #12]
 8006d2c:	059a      	lsls	r2, r3, #22
 8006d2e:	d402      	bmi.n	8006d36 <_vfiprintf_r+0x2a>
 8006d30:	6da8      	ldr	r0, [r5, #88]	; 0x58
 8006d32:	f7ff fdca 	bl	80068ca <__retarget_lock_acquire_recursive>
 8006d36:	89ab      	ldrh	r3, [r5, #12]
 8006d38:	071b      	lsls	r3, r3, #28
 8006d3a:	d501      	bpl.n	8006d40 <_vfiprintf_r+0x34>
 8006d3c:	692b      	ldr	r3, [r5, #16]
 8006d3e:	b99b      	cbnz	r3, 8006d68 <_vfiprintf_r+0x5c>
 8006d40:	4629      	mov	r1, r5
 8006d42:	4630      	mov	r0, r6
 8006d44:	f000 faca 	bl	80072dc <__swsetup_r>
 8006d48:	b170      	cbz	r0, 8006d68 <_vfiprintf_r+0x5c>
 8006d4a:	6e6b      	ldr	r3, [r5, #100]	; 0x64
 8006d4c:	07dc      	lsls	r4, r3, #31
 8006d4e:	d504      	bpl.n	8006d5a <_vfiprintf_r+0x4e>
 8006d50:	f04f 30ff 	mov.w	r0, #4294967295
 8006d54:	b01d      	add	sp, #116	; 0x74
 8006d56:	e8bd 8ff0 	ldmia.w	sp!, {r4, r5, r6, r7, r8, r9, sl, fp, pc}
 8006d5a:	89ab      	ldrh	r3, [r5, #12]
 8006d5c:	0598      	lsls	r0, r3, #22
 8006d5e:	d4f7      	bmi.n	8006d50 <_vfiprintf_r+0x44>
 8006d60:	6da8      	ldr	r0, [r5, #88]	; 0x58
 8006d62:	f7ff fdb3 	bl	80068cc <__retarget_lock_release_recursive>
 8006d66:	e7f3      	b.n	8006d50 <_vfiprintf_r+0x44>
 8006d68:	2300      	movs	r3, #0
 8006d6a:	9309      	str	r3, [sp, #36]	; 0x24
 8006d6c:	2320      	movs	r3, #32
 8006d6e:	f88d 3029 	strb.w	r3, [sp, #41]	; 0x29
 8006d72:	f8cd 800c 	str.w	r8, [sp, #12]
 8006d76:	2330      	movs	r3, #48	; 0x30
 8006d78:	f8df 81b0 	ldr.w	r8, [pc, #432]	; 8006f2c <_vfiprintf_r+0x220>
 8006d7c:	f88d 302a 	strb.w	r3, [sp, #42]	; 0x2a
 8006d80:	f04f 0901 	mov.w	r9, #1
 8006d84:	4623      	mov	r3, r4
 8006d86:	469a      	mov	sl, r3
 8006d88:	f813 2b01 	ldrb.w	r2, [r3], #1
 8006d8c:	b10a      	cbz	r2, 8006d92 <_vfiprintf_r+0x86>
 8006d8e:	2a25      	cmp	r2, #37	; 0x25
 8006d90:	d1f9      	bne.n	8006d86 <_vfiprintf_r+0x7a>
 8006d92:	ebba 0b04 	subs.w	fp, sl, r4
 8006d96:	d00b      	beq.n	8006db0 <_vfiprintf_r+0xa4>
 8006d98:	465b      	mov	r3, fp
 8006d9a:	4622      	mov	r2, r4
 8006d9c:	4629      	mov	r1, r5
 8006d9e:	4630      	mov	r0, r6
 8006da0:	f7ff ffa2 	bl	8006ce8 <__sfputs_r>
 8006da4:	3001      	adds	r0, #1
 8006da6:	f000 80a9 	beq.w	8006efc <_vfiprintf_r+0x1f0>
 8006daa:	9a09      	ldr	r2, [sp, #36]	; 0x24
 8006dac:	445a      	add	r2, fp
 8006dae:	9209      	str	r2, [sp, #36]	; 0x24
 8006db0:	f89a 3000 	ldrb.w	r3, [sl]
 8006db4:	2b00      	cmp	r3, #0
 8006db6:	f000 80a1 	beq.w	8006efc <_vfiprintf_r+0x1f0>
 8006dba:	2300      	movs	r3, #0
 8006dbc:	f04f 32ff 	mov.w	r2, #4294967295
 8006dc0:	e9cd 2305 	strd	r2, r3, [sp, #20]
 8006dc4:	f10a 0a01 	add.w	sl, sl, #1
 8006dc8:	9304      	str	r3, [sp, #16]
 8006dca:	9307      	str	r3, [sp, #28]
 8006dcc:	f88d 3053 	strb.w	r3, [sp, #83]	; 0x53
 8006dd0:	931a      	str	r3, [sp, #104]	; 0x68
 8006dd2:	4654      	mov	r4, sl
 8006dd4:	2205      	movs	r2, #5
 8006dd6:	f814 1b01 	ldrb.w	r1, [r4], #1
 8006dda:	4854      	ldr	r0, [pc, #336]	; (8006f2c <_vfiprintf_r+0x220>)
 8006ddc:	f7f9 fa20 	bl	8000220 <memchr>
 8006de0:	9a04      	ldr	r2, [sp, #16]
 8006de2:	b9d8      	cbnz	r0, 8006e1c <_vfiprintf_r+0x110>
 8006de4:	06d1      	lsls	r1, r2, #27
 8006de6:	bf44      	itt	mi
 8006de8:	2320      	movmi	r3, #32
 8006dea:	f88d 3053 	strbmi.w	r3, [sp, #83]	; 0x53
 8006dee:	0713      	lsls	r3, r2, #28
 8006df0:	bf44      	itt	mi
 8006df2:	232b      	movmi	r3, #43	; 0x2b
 8006df4:	f88d 3053 	strbmi.w	r3, [sp, #83]	; 0x53
 8006df8:	f89a 3000 	ldrb.w	r3, [sl]
 8006dfc:	2b2a      	cmp	r3, #42	; 0x2a
 8006dfe:	d015      	beq.n	8006e2c <_vfiprintf_r+0x120>
 8006e00:	9a07      	ldr	r2, [sp, #28]
 8006e02:	4654      	mov	r4, sl
 8006e04:	2000      	movs	r0, #0
 8006e06:	f04f 0c0a 	mov.w	ip, #10
 8006e0a:	4621      	mov	r1, r4
 8006e0c:	f811 3b01 	ldrb.w	r3, [r1], #1
 8006e10:	3b30      	subs	r3, #48	; 0x30
 8006e12:	2b09      	cmp	r3, #9
 8006e14:	d94d      	bls.n	8006eb2 <_vfiprintf_r+0x1a6>
 8006e16:	b1b0      	cbz	r0, 8006e46 <_vfiprintf_r+0x13a>
 8006e18:	9207      	str	r2, [sp, #28]
 8006e1a:	e014      	b.n	8006e46 <_vfiprintf_r+0x13a>
 8006e1c:	eba0 0308 	sub.w	r3, r0, r8
 8006e20:	fa09 f303 	lsl.w	r3, r9, r3
 8006e24:	4313      	orrs	r3, r2
 8006e26:	9304      	str	r3, [sp, #16]
 8006e28:	46a2      	mov	sl, r4
 8006e2a:	e7d2      	b.n	8006dd2 <_vfiprintf_r+0xc6>
 8006e2c:	9b03      	ldr	r3, [sp, #12]
 8006e2e:	1d19      	adds	r1, r3, #4
 8006e30:	681b      	ldr	r3, [r3, #0]
 8006e32:	9103      	str	r1, [sp, #12]
 8006e34:	2b00      	cmp	r3, #0
 8006e36:	bfbb      	ittet	lt
 8006e38:	425b      	neglt	r3, r3
 8006e3a:	f042 0202 	orrlt.w	r2, r2, #2
 8006e3e:	9307      	strge	r3, [sp, #28]
 8006e40:	9307      	strlt	r3, [sp, #28]
 8006e42:	bfb8      	it	lt
 8006e44:	9204      	strlt	r2, [sp, #16]
 8006e46:	7823      	ldrb	r3, [r4, #0]
 8006e48:	2b2e      	cmp	r3, #46	; 0x2e
 8006e4a:	d10c      	bne.n	8006e66 <_vfiprintf_r+0x15a>
 8006e4c:	7863      	ldrb	r3, [r4, #1]
 8006e4e:	2b2a      	cmp	r3, #42	; 0x2a
 8006e50:	d134      	bne.n	8006ebc <_vfiprintf_r+0x1b0>
 8006e52:	9b03      	ldr	r3, [sp, #12]
 8006e54:	1d1a      	adds	r2, r3, #4
 8006e56:	681b      	ldr	r3, [r3, #0]
 8006e58:	9203      	str	r2, [sp, #12]
 8006e5a:	2b00      	cmp	r3, #0
 8006e5c:	bfb8      	it	lt
 8006e5e:	f04f 33ff 	movlt.w	r3, #4294967295
 8006e62:	3402      	adds	r4, #2
 8006e64:	9305      	str	r3, [sp, #20]
 8006e66:	f8df a0d4 	ldr.w	sl, [pc, #212]	; 8006f3c <_vfiprintf_r+0x230>
 8006e6a:	7821      	ldrb	r1, [r4, #0]
 8006e6c:	2203      	movs	r2, #3
 8006e6e:	4650      	mov	r0, sl
 8006e70:	f7f9 f9d6 	bl	8000220 <memchr>
 8006e74:	b138      	cbz	r0, 8006e86 <_vfiprintf_r+0x17a>
 8006e76:	9b04      	ldr	r3, [sp, #16]
 8006e78:	eba0 000a 	sub.w	r0, r0, sl
 8006e7c:	2240      	movs	r2, #64	; 0x40
 8006e7e:	4082      	lsls	r2, r0
 8006e80:	4313      	orrs	r3, r2
 8006e82:	3401      	adds	r4, #1
 8006e84:	9304      	str	r3, [sp, #16]
 8006e86:	f814 1b01 	ldrb.w	r1, [r4], #1
 8006e8a:	4829      	ldr	r0, [pc, #164]	; (8006f30 <_vfiprintf_r+0x224>)
 8006e8c:	f88d 1028 	strb.w	r1, [sp, #40]	; 0x28
 8006e90:	2206      	movs	r2, #6
 8006e92:	f7f9 f9c5 	bl	8000220 <memchr>
 8006e96:	2800      	cmp	r0, #0
 8006e98:	d03f      	beq.n	8006f1a <_vfiprintf_r+0x20e>
 8006e9a:	4b26      	ldr	r3, [pc, #152]	; (8006f34 <_vfiprintf_r+0x228>)
 8006e9c:	bb1b      	cbnz	r3, 8006ee6 <_vfiprintf_r+0x1da>
 8006e9e:	9b03      	ldr	r3, [sp, #12]
 8006ea0:	3307      	adds	r3, #7
 8006ea2:	f023 0307 	bic.w	r3, r3, #7
 8006ea6:	3308      	adds	r3, #8
 8006ea8:	9303      	str	r3, [sp, #12]
 8006eaa:	9b09      	ldr	r3, [sp, #36]	; 0x24
 8006eac:	443b      	add	r3, r7
 8006eae:	9309      	str	r3, [sp, #36]	; 0x24
 8006eb0:	e768      	b.n	8006d84 <_vfiprintf_r+0x78>
 8006eb2:	fb0c 3202 	mla	r2, ip, r2, r3
 8006eb6:	460c      	mov	r4, r1
 8006eb8:	2001      	movs	r0, #1
 8006eba:	e7a6      	b.n	8006e0a <_vfiprintf_r+0xfe>
 8006ebc:	2300      	movs	r3, #0
 8006ebe:	3401      	adds	r4, #1
 8006ec0:	9305      	str	r3, [sp, #20]
 8006ec2:	4619      	mov	r1, r3
 8006ec4:	f04f 0c0a 	mov.w	ip, #10
 8006ec8:	4620      	mov	r0, r4
 8006eca:	f810 2b01 	ldrb.w	r2, [r0], #1
 8006ece:	3a30      	subs	r2, #48	; 0x30
 8006ed0:	2a09      	cmp	r2, #9
 8006ed2:	d903      	bls.n	8006edc <_vfiprintf_r+0x1d0>
 8006ed4:	2b00      	cmp	r3, #0
 8006ed6:	d0c6      	beq.n	8006e66 <_vfiprintf_r+0x15a>
 8006ed8:	9105      	str	r1, [sp, #20]
 8006eda:	e7c4      	b.n	8006e66 <_vfiprintf_r+0x15a>
 8006edc:	fb0c 2101 	mla	r1, ip, r1, r2
 8006ee0:	4604      	mov	r4, r0
 8006ee2:	2301      	movs	r3, #1
 8006ee4:	e7f0      	b.n	8006ec8 <_vfiprintf_r+0x1bc>
 8006ee6:	ab03      	add	r3, sp, #12
 8006ee8:	9300      	str	r3, [sp, #0]
 8006eea:	462a      	mov	r2, r5
 8006eec:	4b12      	ldr	r3, [pc, #72]	; (8006f38 <_vfiprintf_r+0x22c>)
 8006eee:	a904      	add	r1, sp, #16
 8006ef0:	4630      	mov	r0, r6
 8006ef2:	f3af 8000 	nop.w
 8006ef6:	4607      	mov	r7, r0
 8006ef8:	1c78      	adds	r0, r7, #1
 8006efa:	d1d6      	bne.n	8006eaa <_vfiprintf_r+0x19e>
 8006efc:	6e6b      	ldr	r3, [r5, #100]	; 0x64
 8006efe:	07d9      	lsls	r1, r3, #31
 8006f00:	d405      	bmi.n	8006f0e <_vfiprintf_r+0x202>
 8006f02:	89ab      	ldrh	r3, [r5, #12]
 8006f04:	059a      	lsls	r2, r3, #22
 8006f06:	d402      	bmi.n	8006f0e <_vfiprintf_r+0x202>
 8006f08:	6da8      	ldr	r0, [r5, #88]	; 0x58
 8006f0a:	f7ff fcdf 	bl	80068cc <__retarget_lock_release_recursive>
 8006f0e:	89ab      	ldrh	r3, [r5, #12]
 8006f10:	065b      	lsls	r3, r3, #25
 8006f12:	f53f af1d 	bmi.w	8006d50 <_vfiprintf_r+0x44>
 8006f16:	9809      	ldr	r0, [sp, #36]	; 0x24
 8006f18:	e71c      	b.n	8006d54 <_vfiprintf_r+0x48>
 8006f1a:	ab03      	add	r3, sp, #12
 8006f1c:	9300      	str	r3, [sp, #0]
 8006f1e:	462a      	mov	r2, r5
 8006f20:	4b05      	ldr	r3, [pc, #20]	; (8006f38 <_vfiprintf_r+0x22c>)
 8006f22:	a904      	add	r1, sp, #16
 8006f24:	4630      	mov	r0, r6
 8006f26:	f000 f879 	bl	800701c <_printf_i>
 8006f2a:	e7e4      	b.n	8006ef6 <_vfiprintf_r+0x1ea>
 8006f2c:	0800761f 	.word	0x0800761f
 8006f30:	08007629 	.word	0x08007629
 8006f34:	00000000 	.word	0x00000000
 8006f38:	08006ce9 	.word	0x08006ce9
 8006f3c:	08007625 	.word	0x08007625

08006f40 <_printf_common>:
 8006f40:	e92d 47f0 	stmdb	sp!, {r4, r5, r6, r7, r8, r9, sl, lr}
 8006f44:	4616      	mov	r6, r2
 8006f46:	4699      	mov	r9, r3
 8006f48:	688a      	ldr	r2, [r1, #8]
 8006f4a:	690b      	ldr	r3, [r1, #16]
 8006f4c:	f8dd 8020 	ldr.w	r8, [sp, #32]
 8006f50:	4293      	cmp	r3, r2
 8006f52:	bfb8      	it	lt
 8006f54:	4613      	movlt	r3, r2
 8006f56:	6033      	str	r3, [r6, #0]
 8006f58:	f891 2043 	ldrb.w	r2, [r1, #67]	; 0x43
 8006f5c:	4607      	mov	r7, r0
 8006f5e:	460c      	mov	r4, r1
 8006f60:	b10a      	cbz	r2, 8006f66 <_printf_common+0x26>
 8006f62:	3301      	adds	r3, #1
 8006f64:	6033      	str	r3, [r6, #0]
 8006f66:	6823      	ldr	r3, [r4, #0]
 8006f68:	0699      	lsls	r1, r3, #26
 8006f6a:	bf42      	ittt	mi
 8006f6c:	6833      	ldrmi	r3, [r6, #0]
 8006f6e:	3302      	addmi	r3, #2
 8006f70:	6033      	strmi	r3, [r6, #0]
 8006f72:	6825      	ldr	r5, [r4, #0]
 8006f74:	f015 0506 	ands.w	r5, r5, #6
 8006f78:	d106      	bne.n	8006f88 <_printf_common+0x48>
 8006f7a:	f104 0a19 	add.w	sl, r4, #25
 8006f7e:	68e3      	ldr	r3, [r4, #12]
 8006f80:	6832      	ldr	r2, [r6, #0]
 8006f82:	1a9b      	subs	r3, r3, r2
 8006f84:	42ab      	cmp	r3, r5
 8006f86:	dc26      	bgt.n	8006fd6 <_printf_common+0x96>
 8006f88:	f894 2043 	ldrb.w	r2, [r4, #67]	; 0x43
 8006f8c:	1e13      	subs	r3, r2, #0
 8006f8e:	6822      	ldr	r2, [r4, #0]
 8006f90:	bf18      	it	ne
 8006f92:	2301      	movne	r3, #1
 8006f94:	0692      	lsls	r2, r2, #26
 8006f96:	d42b      	bmi.n	8006ff0 <_printf_common+0xb0>
 8006f98:	f104 0243 	add.w	r2, r4, #67	; 0x43
 8006f9c:	4649      	mov	r1, r9
 8006f9e:	4638      	mov	r0, r7
 8006fa0:	47c0      	blx	r8
 8006fa2:	3001      	adds	r0, #1
 8006fa4:	d01e      	beq.n	8006fe4 <_printf_common+0xa4>
 8006fa6:	6823      	ldr	r3, [r4, #0]
 8006fa8:	6922      	ldr	r2, [r4, #16]
 8006faa:	f003 0306 	and.w	r3, r3, #6
 8006fae:	2b04      	cmp	r3, #4
 8006fb0:	bf02      	ittt	eq
 8006fb2:	68e5      	ldreq	r5, [r4, #12]
 8006fb4:	6833      	ldreq	r3, [r6, #0]
 8006fb6:	1aed      	subeq	r5, r5, r3
 8006fb8:	68a3      	ldr	r3, [r4, #8]
 8006fba:	bf0c      	ite	eq
 8006fbc:	ea25 75e5 	biceq.w	r5, r5, r5, asr #31
 8006fc0:	2500      	movne	r5, #0
 8006fc2:	4293      	cmp	r3, r2
 8006fc4:	bfc4      	itt	gt
 8006fc6:	1a9b      	subgt	r3, r3, r2
 8006fc8:	18ed      	addgt	r5, r5, r3
 8006fca:	2600      	movs	r6, #0
 8006fcc:	341a      	adds	r4, #26
 8006fce:	42b5      	cmp	r5, r6
 8006fd0:	d11a      	bne.n	8007008 <_printf_common+0xc8>
 8006fd2:	2000      	movs	r0, #0
 8006fd4:	e008      	b.n	8006fe8 <_printf_common+0xa8>
 8006fd6:	2301      	movs	r3, #1
 8006fd8:	4652      	mov	r2, sl
 8006fda:	4649      	mov	r1, r9
 8006fdc:	4638      	mov	r0, r7
 8006fde:	47c0      	blx	r8
 8006fe0:	3001      	adds	r0, #1
 8006fe2:	d103      	bne.n	8006fec <_printf_common+0xac>
 8006fe4:	f04f 30ff 	mov.w	r0, #4294967295
 8006fe8:	e8bd 87f0 	ldmia.w	sp!, {r4, r5, r6, r7, r8, r9, sl, pc}
 8006fec:	3501      	adds	r5, #1
 8006fee:	e7c6      	b.n	8006f7e <_printf_common+0x3e>
 8006ff0:	18e1      	adds	r1, r4, r3
 8006ff2:	1c5a      	adds	r2, r3, #1
 8006ff4:	2030      	movs	r0, #48	; 0x30
 8006ff6:	f881 0043 	strb.w	r0, [r1, #67]	; 0x43
 8006ffa:	4422      	add	r2, r4
 8006ffc:	f894 1045 	ldrb.w	r1, [r4, #69]	; 0x45
 8007000:	f882 1043 	strb.w	r1, [r2, #67]	; 0x43
 8007004:	3302      	adds	r3, #2
 8007006:	e7c7      	b.n	8006f98 <_printf_common+0x58>
 8007008:	2301      	movs	r3, #1
 800700a:	4622      	mov	r2, r4
 800700c:	4649      	mov	r1, r9
 800700e:	4638      	mov	r0, r7
 8007010:	47c0      	blx	r8
 8007012:	3001      	adds	r0, #1
 8007014:	d0e6      	beq.n	8006fe4 <_printf_common+0xa4>
 8007016:	3601      	adds	r6, #1
 8007018:	e7d9      	b.n	8006fce <_printf_common+0x8e>
	...

0800701c <_printf_i>:
 800701c:	e92d 47ff 	stmdb	sp!, {r0, r1, r2, r3, r4, r5, r6, r7, r8, r9, sl, lr}
 8007020:	7e0f      	ldrb	r7, [r1, #24]
 8007022:	9d0c      	ldr	r5, [sp, #48]	; 0x30
 8007024:	2f78      	cmp	r7, #120	; 0x78
 8007026:	4691      	mov	r9, r2
 8007028:	4680      	mov	r8, r0
 800702a:	460c      	mov	r4, r1
 800702c:	469a      	mov	sl, r3
 800702e:	f101 0243 	add.w	r2, r1, #67	; 0x43
 8007032:	d807      	bhi.n	8007044 <_printf_i+0x28>
 8007034:	2f62      	cmp	r7, #98	; 0x62
 8007036:	d80a      	bhi.n	800704e <_printf_i+0x32>
 8007038:	2f00      	cmp	r7, #0
 800703a:	f000 80d4 	beq.w	80071e6 <_printf_i+0x1ca>
 800703e:	2f58      	cmp	r7, #88	; 0x58
 8007040:	f000 80c0 	beq.w	80071c4 <_printf_i+0x1a8>
 8007044:	f104 0542 	add.w	r5, r4, #66	; 0x42
 8007048:	f884 7042 	strb.w	r7, [r4, #66]	; 0x42
 800704c:	e03a      	b.n	80070c4 <_printf_i+0xa8>
 800704e:	f1a7 0363 	sub.w	r3, r7, #99	; 0x63
 8007052:	2b15      	cmp	r3, #21
 8007054:	d8f6      	bhi.n	8007044 <_printf_i+0x28>
 8007056:	a101      	add	r1, pc, #4	; (adr r1, 800705c <_printf_i+0x40>)
 8007058:	f851 f023 	ldr.w	pc, [r1, r3, lsl #2]
 800705c:	080070b5 	.word	0x080070b5
 8007060:	080070c9 	.word	0x080070c9
 8007064:	08007045 	.word	0x08007045
 8007068:	08007045 	.word	0x08007045
 800706c:	08007045 	.word	0x08007045
 8007070:	08007045 	.word	0x08007045
 8007074:	080070c9 	.word	0x080070c9
 8007078:	08007045 	.word	0x08007045
 800707c:	08007045 	.word	0x08007045
 8007080:	08007045 	.word	0x08007045
 8007084:	08007045 	.word	0x08007045
 8007088:	080071cd 	.word	0x080071cd
 800708c:	080070f5 	.word	0x080070f5
 8007090:	08007187 	.word	0x08007187
 8007094:	08007045 	.word	0x08007045
 8007098:	08007045 	.word	0x08007045
 800709c:	080071ef 	.word	0x080071ef
 80070a0:	08007045 	.word	0x08007045
 80070a4:	080070f5 	.word	0x080070f5
 80070a8:	08007045 	.word	0x08007045
 80070ac:	08007045 	.word	0x08007045
 80070b0:	0800718f 	.word	0x0800718f
 80070b4:	682b      	ldr	r3, [r5, #0]
 80070b6:	1d1a      	adds	r2, r3, #4
 80070b8:	681b      	ldr	r3, [r3, #0]
 80070ba:	602a      	str	r2, [r5, #0]
 80070bc:	f104 0542 	add.w	r5, r4, #66	; 0x42
 80070c0:	f884 3042 	strb.w	r3, [r4, #66]	; 0x42
 80070c4:	2301      	movs	r3, #1
 80070c6:	e09f      	b.n	8007208 <_printf_i+0x1ec>
 80070c8:	6820      	ldr	r0, [r4, #0]
 80070ca:	682b      	ldr	r3, [r5, #0]
 80070cc:	0607      	lsls	r7, r0, #24
 80070ce:	f103 0104 	add.w	r1, r3, #4
 80070d2:	6029      	str	r1, [r5, #0]
 80070d4:	d501      	bpl.n	80070da <_printf_i+0xbe>
 80070d6:	681e      	ldr	r6, [r3, #0]
 80070d8:	e003      	b.n	80070e2 <_printf_i+0xc6>
 80070da:	0646      	lsls	r6, r0, #25
 80070dc:	d5fb      	bpl.n	80070d6 <_printf_i+0xba>
 80070de:	f9b3 6000 	ldrsh.w	r6, [r3]
 80070e2:	2e00      	cmp	r6, #0
 80070e4:	da03      	bge.n	80070ee <_printf_i+0xd2>
 80070e6:	232d      	movs	r3, #45	; 0x2d
 80070e8:	4276      	negs	r6, r6
 80070ea:	f884 3043 	strb.w	r3, [r4, #67]	; 0x43
 80070ee:	485a      	ldr	r0, [pc, #360]	; (8007258 <_printf_i+0x23c>)
 80070f0:	230a      	movs	r3, #10
 80070f2:	e012      	b.n	800711a <_printf_i+0xfe>
 80070f4:	682b      	ldr	r3, [r5, #0]
 80070f6:	6820      	ldr	r0, [r4, #0]
 80070f8:	1d19      	adds	r1, r3, #4
 80070fa:	6029      	str	r1, [r5, #0]
 80070fc:	0605      	lsls	r5, r0, #24
 80070fe:	d501      	bpl.n	8007104 <_printf_i+0xe8>
 8007100:	681e      	ldr	r6, [r3, #0]
 8007102:	e002      	b.n	800710a <_printf_i+0xee>
 8007104:	0641      	lsls	r1, r0, #25
 8007106:	d5fb      	bpl.n	8007100 <_printf_i+0xe4>
 8007108:	881e      	ldrh	r6, [r3, #0]
 800710a:	4853      	ldr	r0, [pc, #332]	; (8007258 <_printf_i+0x23c>)
 800710c:	2f6f      	cmp	r7, #111	; 0x6f
 800710e:	bf0c      	ite	eq
 8007110:	2308      	moveq	r3, #8
 8007112:	230a      	movne	r3, #10
 8007114:	2100      	movs	r1, #0
 8007116:	f884 1043 	strb.w	r1, [r4, #67]	; 0x43
 800711a:	6865      	ldr	r5, [r4, #4]
 800711c:	60a5      	str	r5, [r4, #8]
 800711e:	2d00      	cmp	r5, #0
 8007120:	bfa2      	ittt	ge
 8007122:	6821      	ldrge	r1, [r4, #0]
 8007124:	f021 0104 	bicge.w	r1, r1, #4
 8007128:	6021      	strge	r1, [r4, #0]
 800712a:	b90e      	cbnz	r6, 8007130 <_printf_i+0x114>
 800712c:	2d00      	cmp	r5, #0
 800712e:	d04b      	beq.n	80071c8 <_printf_i+0x1ac>
 8007130:	4615      	mov	r5, r2
 8007132:	fbb6 f1f3 	udiv	r1, r6, r3
 8007136:	fb03 6711 	mls	r7, r3, r1, r6
 800713a:	5dc7      	ldrb	r7, [r0, r7]
 800713c:	f805 7d01 	strb.w	r7, [r5, #-1]!
 8007140:	4637      	mov	r7, r6
 8007142:	42bb      	cmp	r3, r7
 8007144:	460e      	mov	r6, r1
 8007146:	d9f4      	bls.n	8007132 <_printf_i+0x116>
 8007148:	2b08      	cmp	r3, #8
 800714a:	d10b      	bne.n	8007164 <_printf_i+0x148>
 800714c:	6823      	ldr	r3, [r4, #0]
 800714e:	07de      	lsls	r6, r3, #31
 8007150:	d508      	bpl.n	8007164 <_printf_i+0x148>
 8007152:	6923      	ldr	r3, [r4, #16]
 8007154:	6861      	ldr	r1, [r4, #4]
 8007156:	4299      	cmp	r1, r3
 8007158:	bfde      	ittt	le
 800715a:	2330      	movle	r3, #48	; 0x30
 800715c:	f805 3c01 	strble.w	r3, [r5, #-1]
 8007160:	f105 35ff 	addle.w	r5, r5, #4294967295
 8007164:	1b52      	subs	r2, r2, r5
 8007166:	6122      	str	r2, [r4, #16]
 8007168:	f8cd a000 	str.w	sl, [sp]
 800716c:	464b      	mov	r3, r9
 800716e:	aa03      	add	r2, sp, #12
 8007170:	4621      	mov	r1, r4
 8007172:	4640      	mov	r0, r8
 8007174:	f7ff fee4 	bl	8006f40 <_printf_common>
 8007178:	3001      	adds	r0, #1
 800717a:	d14a      	bne.n	8007212 <_printf_i+0x1f6>
 800717c:	f04f 30ff 	mov.w	r0, #4294967295
 8007180:	b004      	add	sp, #16
 8007182:	e8bd 87f0 	ldmia.w	sp!, {r4, r5, r6, r7, r8, r9, sl, pc}
 8007186:	6823      	ldr	r3, [r4, #0]
 8007188:	f043 0320 	orr.w	r3, r3, #32
 800718c:	6023      	str	r3, [r4, #0]
 800718e:	4833      	ldr	r0, [pc, #204]	; (800725c <_printf_i+0x240>)
 8007190:	2778      	movs	r7, #120	; 0x78
 8007192:	f884 7045 	strb.w	r7, [r4, #69]	; 0x45
 8007196:	6823      	ldr	r3, [r4, #0]
 8007198:	6829      	ldr	r1, [r5, #0]
 800719a:	061f      	lsls	r7, r3, #24
 800719c:	f851 6b04 	ldr.w	r6, [r1], #4
 80071a0:	d402      	bmi.n	80071a8 <_printf_i+0x18c>
 80071a2:	065f      	lsls	r7, r3, #25
 80071a4:	bf48      	it	mi
 80071a6:	b2b6      	uxthmi	r6, r6
 80071a8:	07df      	lsls	r7, r3, #31
 80071aa:	bf48      	it	mi
 80071ac:	f043 0320 	orrmi.w	r3, r3, #32
 80071b0:	6029      	str	r1, [r5, #0]
 80071b2:	bf48      	it	mi
 80071b4:	6023      	strmi	r3, [r4, #0]
 80071b6:	b91e      	cbnz	r6, 80071c0 <_printf_i+0x1a4>
 80071b8:	6823      	ldr	r3, [r4, #0]
 80071ba:	f023 0320 	bic.w	r3, r3, #32
 80071be:	6023      	str	r3, [r4, #0]
 80071c0:	2310      	movs	r3, #16
 80071c2:	e7a7      	b.n	8007114 <_printf_i+0xf8>
 80071c4:	4824      	ldr	r0, [pc, #144]	; (8007258 <_printf_i+0x23c>)
 80071c6:	e7e4      	b.n	8007192 <_printf_i+0x176>
 80071c8:	4615      	mov	r5, r2
 80071ca:	e7bd      	b.n	8007148 <_printf_i+0x12c>
 80071cc:	682b      	ldr	r3, [r5, #0]
 80071ce:	6826      	ldr	r6, [r4, #0]
 80071d0:	6961      	ldr	r1, [r4, #20]
 80071d2:	1d18      	adds	r0, r3, #4
 80071d4:	6028      	str	r0, [r5, #0]
 80071d6:	0635      	lsls	r5, r6, #24
 80071d8:	681b      	ldr	r3, [r3, #0]
 80071da:	d501      	bpl.n	80071e0 <_printf_i+0x1c4>
 80071dc:	6019      	str	r1, [r3, #0]
 80071de:	e002      	b.n	80071e6 <_printf_i+0x1ca>
 80071e0:	0670      	lsls	r0, r6, #25
 80071e2:	d5fb      	bpl.n	80071dc <_printf_i+0x1c0>
 80071e4:	8019      	strh	r1, [r3, #0]
 80071e6:	2300      	movs	r3, #0
 80071e8:	6123      	str	r3, [r4, #16]
 80071ea:	4615      	mov	r5, r2
 80071ec:	e7bc      	b.n	8007168 <_printf_i+0x14c>
 80071ee:	682b      	ldr	r3, [r5, #0]
 80071f0:	1d1a      	adds	r2, r3, #4
 80071f2:	602a      	str	r2, [r5, #0]
 80071f4:	681d      	ldr	r5, [r3, #0]
 80071f6:	6862      	ldr	r2, [r4, #4]
 80071f8:	2100      	movs	r1, #0
 80071fa:	4628      	mov	r0, r5
 80071fc:	f7f9 f810 	bl	8000220 <memchr>
 8007200:	b108      	cbz	r0, 8007206 <_printf_i+0x1ea>
 8007202:	1b40      	subs	r0, r0, r5
 8007204:	6060      	str	r0, [r4, #4]
 8007206:	6863      	ldr	r3, [r4, #4]
 8007208:	6123      	str	r3, [r4, #16]
 800720a:	2300      	movs	r3, #0
 800720c:	f884 3043 	strb.w	r3, [r4, #67]	; 0x43
 8007210:	e7aa      	b.n	8007168 <_printf_i+0x14c>
 8007212:	6923      	ldr	r3, [r4, #16]
 8007214:	462a      	mov	r2, r5
 8007216:	4649      	mov	r1, r9
 8007218:	4640      	mov	r0, r8
 800721a:	47d0      	blx	sl
 800721c:	3001      	adds	r0, #1
 800721e:	d0ad      	beq.n	800717c <_printf_i+0x160>
 8007220:	6823      	ldr	r3, [r4, #0]
 8007222:	079b      	lsls	r3, r3, #30
 8007224:	d413      	bmi.n	800724e <_printf_i+0x232>
 8007226:	68e0      	ldr	r0, [r4, #12]
 8007228:	9b03      	ldr	r3, [sp, #12]
 800722a:	4298      	cmp	r0, r3
 800722c:	bfb8      	it	lt
 800722e:	4618      	movlt	r0, r3
 8007230:	e7a6      	b.n	8007180 <_printf_i+0x164>
 8007232:	2301      	movs	r3, #1
 8007234:	4632      	mov	r2, r6
 8007236:	4649      	mov	r1, r9
 8007238:	4640      	mov	r0, r8
 800723a:	47d0      	blx	sl
 800723c:	3001      	adds	r0, #1
 800723e:	d09d      	beq.n	800717c <_printf_i+0x160>
 8007240:	3501      	adds	r5, #1
 8007242:	68e3      	ldr	r3, [r4, #12]
 8007244:	9903      	ldr	r1, [sp, #12]
 8007246:	1a5b      	subs	r3, r3, r1
 8007248:	42ab      	cmp	r3, r5
 800724a:	dcf2      	bgt.n	8007232 <_printf_i+0x216>
 800724c:	e7eb      	b.n	8007226 <_printf_i+0x20a>
 800724e:	2500      	movs	r5, #0
 8007250:	f104 0619 	add.w	r6, r4, #25
 8007254:	e7f5      	b.n	8007242 <_printf_i+0x226>
 8007256:	bf00      	nop
 8007258:	08007630 	.word	0x08007630
 800725c:	08007641 	.word	0x08007641

08007260 <__swbuf_r>:
 8007260:	b5f8      	push	{r3, r4, r5, r6, r7, lr}
 8007262:	460e      	mov	r6, r1
 8007264:	4614      	mov	r4, r2
 8007266:	4605      	mov	r5, r0
 8007268:	b118      	cbz	r0, 8007272 <__swbuf_r+0x12>
 800726a:	6a03      	ldr	r3, [r0, #32]
 800726c:	b90b      	cbnz	r3, 8007272 <__swbuf_r+0x12>
 800726e:	f7ff fa39 	bl	80066e4 <__sinit>
 8007272:	69a3      	ldr	r3, [r4, #24]
 8007274:	60a3      	str	r3, [r4, #8]
 8007276:	89a3      	ldrh	r3, [r4, #12]
 8007278:	071a      	lsls	r2, r3, #28
 800727a:	d525      	bpl.n	80072c8 <__swbuf_r+0x68>
 800727c:	6923      	ldr	r3, [r4, #16]
 800727e:	b31b      	cbz	r3, 80072c8 <__swbuf_r+0x68>
 8007280:	6823      	ldr	r3, [r4, #0]
 8007282:	6922      	ldr	r2, [r4, #16]
 8007284:	1a98      	subs	r0, r3, r2
 8007286:	6963      	ldr	r3, [r4, #20]
 8007288:	b2f6      	uxtb	r6, r6
 800728a:	4283      	cmp	r3, r0
 800728c:	4637      	mov	r7, r6
 800728e:	dc04      	bgt.n	800729a <__swbuf_r+0x3a>
 8007290:	4621      	mov	r1, r4
 8007292:	4628      	mov	r0, r5
 8007294:	f7ff fcc0 	bl	8006c18 <_fflush_r>
 8007298:	b9e0      	cbnz	r0, 80072d4 <__swbuf_r+0x74>
 800729a:	68a3      	ldr	r3, [r4, #8]
 800729c:	3b01      	subs	r3, #1
 800729e:	60a3      	str	r3, [r4, #8]
 80072a0:	6823      	ldr	r3, [r4, #0]
 80072a2:	1c5a      	adds	r2, r3, #1
 80072a4:	6022      	str	r2, [r4, #0]
 80072a6:	701e      	strb	r6, [r3, #0]
 80072a8:	6962      	ldr	r2, [r4, #20]
 80072aa:	1c43      	adds	r3, r0, #1
 80072ac:	429a      	cmp	r2, r3
 80072ae:	d004      	beq.n	80072ba <__swbuf_r+0x5a>
 80072b0:	89a3      	ldrh	r3, [r4, #12]
 80072b2:	07db      	lsls	r3, r3, #31
 80072b4:	d506      	bpl.n	80072c4 <__swbuf_r+0x64>
 80072b6:	2e0a      	cmp	r6, #10
 80072b8:	d104      	bne.n	80072c4 <__swbuf_r+0x64>
 80072ba:	4621      	mov	r1, r4
 80072bc:	4628      	mov	r0, r5
 80072be:	f7ff fcab 	bl	8006c18 <_fflush_r>
 80072c2:	b938      	cbnz	r0, 80072d4 <__swbuf_r+0x74>
 80072c4:	4638      	mov	r0, r7
 80072c6:	bdf8      	pop	{r3, r4, r5, r6, r7, pc}
 80072c8:	4621      	mov	r1, r4
 80072ca:	4628      	mov	r0, r5
 80072cc:	f000 f806 	bl	80072dc <__swsetup_r>
 80072d0:	2800      	cmp	r0, #0
 80072d2:	d0d5      	beq.n	8007280 <__swbuf_r+0x20>
 80072d4:	f04f 37ff 	mov.w	r7, #4294967295
 80072d8:	e7f4      	b.n	80072c4 <__swbuf_r+0x64>
	...

080072dc <__swsetup_r>:
 80072dc:	b538      	push	{r3, r4, r5, lr}
 80072de:	4b2a      	ldr	r3, [pc, #168]	; (8007388 <__swsetup_r+0xac>)
 80072e0:	4605      	mov	r5, r0
 80072e2:	6818      	ldr	r0, [r3, #0]
 80072e4:	460c      	mov	r4, r1
 80072e6:	b118      	cbz	r0, 80072f0 <__swsetup_r+0x14>
 80072e8:	6a03      	ldr	r3, [r0, #32]
 80072ea:	b90b      	cbnz	r3, 80072f0 <__swsetup_r+0x14>
 80072ec:	f7ff f9fa 	bl	80066e4 <__sinit>
 80072f0:	89a3      	ldrh	r3, [r4, #12]
 80072f2:	f9b4 200c 	ldrsh.w	r2, [r4, #12]
 80072f6:	0718      	lsls	r0, r3, #28
 80072f8:	d422      	bmi.n	8007340 <__swsetup_r+0x64>
 80072fa:	06d9      	lsls	r1, r3, #27
 80072fc:	d407      	bmi.n	800730e <__swsetup_r+0x32>
 80072fe:	2309      	movs	r3, #9
 8007300:	602b      	str	r3, [r5, #0]
 8007302:	f042 0340 	orr.w	r3, r2, #64	; 0x40
 8007306:	81a3      	strh	r3, [r4, #12]
 8007308:	f04f 30ff 	mov.w	r0, #4294967295
 800730c:	e034      	b.n	8007378 <__swsetup_r+0x9c>
 800730e:	0758      	lsls	r0, r3, #29
 8007310:	d512      	bpl.n	8007338 <__swsetup_r+0x5c>
 8007312:	6b61      	ldr	r1, [r4, #52]	; 0x34
 8007314:	b141      	cbz	r1, 8007328 <__swsetup_r+0x4c>
 8007316:	f104 0344 	add.w	r3, r4, #68	; 0x44
 800731a:	4299      	cmp	r1, r3
 800731c:	d002      	beq.n	8007324 <__swsetup_r+0x48>
 800731e:	4628      	mov	r0, r5
 8007320:	f7ff faf4 	bl	800690c <_free_r>
 8007324:	2300      	movs	r3, #0
 8007326:	6363      	str	r3, [r4, #52]	; 0x34
 8007328:	89a3      	ldrh	r3, [r4, #12]
 800732a:	f023 0324 	bic.w	r3, r3, #36	; 0x24
 800732e:	81a3      	strh	r3, [r4, #12]
 8007330:	2300      	movs	r3, #0
 8007332:	6063      	str	r3, [r4, #4]
 8007334:	6923      	ldr	r3, [r4, #16]
 8007336:	6023      	str	r3, [r4, #0]
 8007338:	89a3      	ldrh	r3, [r4, #12]
 800733a:	f043 0308 	orr.w	r3, r3, #8
 800733e:	81a3      	strh	r3, [r4, #12]
 8007340:	6923      	ldr	r3, [r4, #16]
 8007342:	b94b      	cbnz	r3, 8007358 <__swsetup_r+0x7c>
 8007344:	89a3      	ldrh	r3, [r4, #12]
 8007346:	f403 7320 	and.w	r3, r3, #640	; 0x280
 800734a:	f5b3 7f00 	cmp.w	r3, #512	; 0x200
 800734e:	d003      	beq.n	8007358 <__swsetup_r+0x7c>
 8007350:	4621      	mov	r1, r4
 8007352:	4628      	mov	r0, r5
 8007354:	f000 f884 	bl	8007460 <__smakebuf_r>
 8007358:	89a0      	ldrh	r0, [r4, #12]
 800735a:	f9b4 200c 	ldrsh.w	r2, [r4, #12]
 800735e:	f010 0301 	ands.w	r3, r0, #1
 8007362:	d00a      	beq.n	800737a <__swsetup_r+0x9e>
 8007364:	2300      	movs	r3, #0
 8007366:	60a3      	str	r3, [r4, #8]
 8007368:	6963      	ldr	r3, [r4, #20]
 800736a:	425b      	negs	r3, r3
 800736c:	61a3      	str	r3, [r4, #24]
 800736e:	6923      	ldr	r3, [r4, #16]
 8007370:	b943      	cbnz	r3, 8007384 <__swsetup_r+0xa8>
 8007372:	f010 0080 	ands.w	r0, r0, #128	; 0x80
 8007376:	d1c4      	bne.n	8007302 <__swsetup_r+0x26>
 8007378:	bd38      	pop	{r3, r4, r5, pc}
 800737a:	0781      	lsls	r1, r0, #30
 800737c:	bf58      	it	pl
 800737e:	6963      	ldrpl	r3, [r4, #20]
 8007380:	60a3      	str	r3, [r4, #8]
 8007382:	e7f4      	b.n	800736e <__swsetup_r+0x92>
 8007384:	2000      	movs	r0, #0
 8007386:	e7f7      	b.n	8007378 <__swsetup_r+0x9c>
 8007388:	2000007c 	.word	0x2000007c

0800738c <_raise_r>:
 800738c:	291f      	cmp	r1, #31
 800738e:	b538      	push	{r3, r4, r5, lr}
 8007390:	4604      	mov	r4, r0
 8007392:	460d      	mov	r5, r1
 8007394:	d904      	bls.n	80073a0 <_raise_r+0x14>
 8007396:	2316      	movs	r3, #22
 8007398:	6003      	str	r3, [r0, #0]
 800739a:	f04f 30ff 	mov.w	r0, #4294967295
 800739e:	bd38      	pop	{r3, r4, r5, pc}
 80073a0:	6bc2      	ldr	r2, [r0, #60]	; 0x3c
 80073a2:	b112      	cbz	r2, 80073aa <_raise_r+0x1e>
 80073a4:	f852 3021 	ldr.w	r3, [r2, r1, lsl #2]
 80073a8:	b94b      	cbnz	r3, 80073be <_raise_r+0x32>
 80073aa:	4620      	mov	r0, r4
 80073ac:	f000 f830 	bl	8007410 <_getpid_r>
 80073b0:	462a      	mov	r2, r5
 80073b2:	4601      	mov	r1, r0
 80073b4:	4620      	mov	r0, r4
 80073b6:	e8bd 4038 	ldmia.w	sp!, {r3, r4, r5, lr}
 80073ba:	f000 b817 	b.w	80073ec <_kill_r>
 80073be:	2b01      	cmp	r3, #1
 80073c0:	d00a      	beq.n	80073d8 <_raise_r+0x4c>
 80073c2:	1c59      	adds	r1, r3, #1
 80073c4:	d103      	bne.n	80073ce <_raise_r+0x42>
 80073c6:	2316      	movs	r3, #22
 80073c8:	6003      	str	r3, [r0, #0]
 80073ca:	2001      	movs	r0, #1
 80073cc:	e7e7      	b.n	800739e <_raise_r+0x12>
 80073ce:	2400      	movs	r4, #0
 80073d0:	f842 4025 	str.w	r4, [r2, r5, lsl #2]
 80073d4:	4628      	mov	r0, r5
 80073d6:	4798      	blx	r3
 80073d8:	2000      	movs	r0, #0
 80073da:	e7e0      	b.n	800739e <_raise_r+0x12>

080073dc <raise>:
 80073dc:	4b02      	ldr	r3, [pc, #8]	; (80073e8 <raise+0xc>)
 80073de:	4601      	mov	r1, r0
 80073e0:	6818      	ldr	r0, [r3, #0]
 80073e2:	f7ff bfd3 	b.w	800738c <_raise_r>
 80073e6:	bf00      	nop
 80073e8:	2000007c 	.word	0x2000007c

080073ec <_kill_r>:
 80073ec:	b538      	push	{r3, r4, r5, lr}
 80073ee:	4d07      	ldr	r5, [pc, #28]	; (800740c <_kill_r+0x20>)
 80073f0:	2300      	movs	r3, #0
 80073f2:	4604      	mov	r4, r0
 80073f4:	4608      	mov	r0, r1
 80073f6:	4611      	mov	r1, r2
 80073f8:	602b      	str	r3, [r5, #0]
 80073fa:	f7fa f811 	bl	8001420 <_kill>
 80073fe:	1c43      	adds	r3, r0, #1
 8007400:	d102      	bne.n	8007408 <_kill_r+0x1c>
 8007402:	682b      	ldr	r3, [r5, #0]
 8007404:	b103      	cbz	r3, 8007408 <_kill_r+0x1c>
 8007406:	6023      	str	r3, [r4, #0]
 8007408:	bd38      	pop	{r3, r4, r5, pc}
 800740a:	bf00      	nop
 800740c:	20000450 	.word	0x20000450

08007410 <_getpid_r>:
 8007410:	f7f9 bffe 	b.w	8001410 <_getpid>

08007414 <__swhatbuf_r>:
 8007414:	b570      	push	{r4, r5, r6, lr}
 8007416:	460c      	mov	r4, r1
 8007418:	f9b1 100e 	ldrsh.w	r1, [r1, #14]
 800741c:	2900      	cmp	r1, #0
 800741e:	b096      	sub	sp, #88	; 0x58
 8007420:	4615      	mov	r5, r2
 8007422:	461e      	mov	r6, r3
 8007424:	da0d      	bge.n	8007442 <__swhatbuf_r+0x2e>
 8007426:	89a3      	ldrh	r3, [r4, #12]
 8007428:	f013 0f80 	tst.w	r3, #128	; 0x80
 800742c:	f04f 0100 	mov.w	r1, #0
 8007430:	bf0c      	ite	eq
 8007432:	f44f 6380 	moveq.w	r3, #1024	; 0x400
 8007436:	2340      	movne	r3, #64	; 0x40
 8007438:	2000      	movs	r0, #0
 800743a:	6031      	str	r1, [r6, #0]
 800743c:	602b      	str	r3, [r5, #0]
 800743e:	b016      	add	sp, #88	; 0x58
 8007440:	bd70      	pop	{r4, r5, r6, pc}
 8007442:	466a      	mov	r2, sp
 8007444:	f000 f848 	bl	80074d8 <_fstat_r>
 8007448:	2800      	cmp	r0, #0
 800744a:	dbec      	blt.n	8007426 <__swhatbuf_r+0x12>
 800744c:	9901      	ldr	r1, [sp, #4]
 800744e:	f401 4170 	and.w	r1, r1, #61440	; 0xf000
 8007452:	f5a1 5300 	sub.w	r3, r1, #8192	; 0x2000
 8007456:	4259      	negs	r1, r3
 8007458:	4159      	adcs	r1, r3
 800745a:	f44f 6380 	mov.w	r3, #1024	; 0x400
 800745e:	e7eb      	b.n	8007438 <__swhatbuf_r+0x24>

08007460 <__smakebuf_r>:
 8007460:	898b      	ldrh	r3, [r1, #12]
 8007462:	b573      	push	{r0, r1, r4, r5, r6, lr}
 8007464:	079d      	lsls	r5, r3, #30
 8007466:	4606      	mov	r6, r0
 8007468:	460c      	mov	r4, r1
 800746a:	d507      	bpl.n	800747c <__smakebuf_r+0x1c>
 800746c:	f104 0347 	add.w	r3, r4, #71	; 0x47
 8007470:	6023      	str	r3, [r4, #0]
 8007472:	6123      	str	r3, [r4, #16]
 8007474:	2301      	movs	r3, #1
 8007476:	6163      	str	r3, [r4, #20]
 8007478:	b002      	add	sp, #8
 800747a:	bd70      	pop	{r4, r5, r6, pc}
 800747c:	ab01      	add	r3, sp, #4
 800747e:	466a      	mov	r2, sp
 8007480:	f7ff ffc8 	bl	8007414 <__swhatbuf_r>
 8007484:	9900      	ldr	r1, [sp, #0]
 8007486:	4605      	mov	r5, r0
 8007488:	4630      	mov	r0, r6
 800748a:	f7ff fab3 	bl	80069f4 <_malloc_r>
 800748e:	b948      	cbnz	r0, 80074a4 <__smakebuf_r+0x44>
 8007490:	f9b4 300c 	ldrsh.w	r3, [r4, #12]
 8007494:	059a      	lsls	r2, r3, #22
 8007496:	d4ef      	bmi.n	8007478 <__smakebuf_r+0x18>
 8007498:	f023 0303 	bic.w	r3, r3, #3
 800749c:	f043 0302 	orr.w	r3, r3, #2
 80074a0:	81a3      	strh	r3, [r4, #12]
 80074a2:	e7e3      	b.n	800746c <__smakebuf_r+0xc>
 80074a4:	89a3      	ldrh	r3, [r4, #12]
 80074a6:	6020      	str	r0, [r4, #0]
 80074a8:	f043 0380 	orr.w	r3, r3, #128	; 0x80
 80074ac:	81a3      	strh	r3, [r4, #12]
 80074ae:	9b00      	ldr	r3, [sp, #0]
 80074b0:	6163      	str	r3, [r4, #20]
 80074b2:	9b01      	ldr	r3, [sp, #4]
 80074b4:	6120      	str	r0, [r4, #16]
 80074b6:	b15b      	cbz	r3, 80074d0 <__smakebuf_r+0x70>
 80074b8:	f9b4 100e 	ldrsh.w	r1, [r4, #14]
 80074bc:	4630      	mov	r0, r6
 80074be:	f000 f81d 	bl	80074fc <_isatty_r>
 80074c2:	b128      	cbz	r0, 80074d0 <__smakebuf_r+0x70>
 80074c4:	89a3      	ldrh	r3, [r4, #12]
 80074c6:	f023 0303 	bic.w	r3, r3, #3
 80074ca:	f043 0301 	orr.w	r3, r3, #1
 80074ce:	81a3      	strh	r3, [r4, #12]
 80074d0:	89a3      	ldrh	r3, [r4, #12]
 80074d2:	431d      	orrs	r5, r3
 80074d4:	81a5      	strh	r5, [r4, #12]
 80074d6:	e7cf      	b.n	8007478 <__smakebuf_r+0x18>

080074d8 <_fstat_r>:
 80074d8:	b538      	push	{r3, r4, r5, lr}
 80074da:	4d07      	ldr	r5, [pc, #28]	; (80074f8 <_fstat_r+0x20>)
 80074dc:	2300      	movs	r3, #0
 80074de:	4604      	mov	r4, r0
 80074e0:	4608      	mov	r0, r1
 80074e2:	4611      	mov	r1, r2
 80074e4:	602b      	str	r3, [r5, #0]
 80074e6:	f7f9 fffa 	bl	80014de <_fstat>
 80074ea:	1c43      	adds	r3, r0, #1
 80074ec:	d102      	bne.n	80074f4 <_fstat_r+0x1c>
 80074ee:	682b      	ldr	r3, [r5, #0]
 80074f0:	b103      	cbz	r3, 80074f4 <_fstat_r+0x1c>
 80074f2:	6023      	str	r3, [r4, #0]
 80074f4:	bd38      	pop	{r3, r4, r5, pc}
 80074f6:	bf00      	nop
 80074f8:	20000450 	.word	0x20000450

080074fc <_isatty_r>:
 80074fc:	b538      	push	{r3, r4, r5, lr}
 80074fe:	4d06      	ldr	r5, [pc, #24]	; (8007518 <_isatty_r+0x1c>)
 8007500:	2300      	movs	r3, #0
 8007502:	4604      	mov	r4, r0
 8007504:	4608      	mov	r0, r1
 8007506:	602b      	str	r3, [r5, #0]
 8007508:	f7f9 fff9 	bl	80014fe <_isatty>
 800750c:	1c43      	adds	r3, r0, #1
 800750e:	d102      	bne.n	8007516 <_isatty_r+0x1a>
 8007510:	682b      	ldr	r3, [r5, #0]
 8007512:	b103      	cbz	r3, 8007516 <_isatty_r+0x1a>
 8007514:	6023      	str	r3, [r4, #0]
 8007516:	bd38      	pop	{r3, r4, r5, pc}
 8007518:	20000450 	.word	0x20000450

0800751c <_init>:
 800751c:	b5f8      	push	{r3, r4, r5, r6, r7, lr}
 800751e:	bf00      	nop
 8007520:	bcf8      	pop	{r3, r4, r5, r6, r7}
 8007522:	bc08      	pop	{r3}
 8007524:	469e      	mov	lr, r3
 8007526:	4770      	bx	lr

08007528 <_fini>:
 8007528:	b5f8      	push	{r3, r4, r5, r6, r7, lr}
 800752a:	bf00      	nop
 800752c:	bcf8      	pop	{r3, r4, r5, r6, r7}
 800752e:	bc08      	pop	{r3}
 8007530:	469e      	mov	lr, r3
 8007532:	4770      	bx	lr
